

Microchip MPLAB XC8 Assembler V2.20 build 20200408173844 
                                                                                               Tue Jul 14 17:16:32 2020

Microchip MPLAB XC8 C Compiler v2.20 (Free license) build 20200408173844 Og1 
     1                           	processor	16F877A
     2                           	pagewidth 120
     3                           	opt	flic
     4                           	psect	idataBANK1,global,class=CODE,delta=2,noexec
     5                           	psect	cinit,global,class=CODE,merge=1,delta=2
     6                           	psect	bssBANK1,global,class=BANK1,space=1,delta=1,noexec
     7                           	psect	dataBANK1,global,class=BANK1,space=1,delta=1,noexec
     8                           	psect	bssBANK3,global,class=BANK3,space=1,delta=1,noexec
     9                           	psect	inittext,global,class=CODE,delta=2
    10                           	psect	clrtext,global,class=CODE,delta=2
    11                           	psect	cstackBANK1,global,class=BANK1,space=1,delta=1,noexec
    12                           	psect	cstackCOMMON,global,class=COMMON,space=1,delta=1,noexec
    13                           	psect	cstackBANK0,global,class=BANK0,space=1,delta=1,noexec
    14                           	psect	maintext,global,class=CODE,split=1,delta=2
    15                           	psect	text1,local,class=CODE,merge=1,delta=2
    16                           	psect	text2,local,class=CODE,merge=1,delta=2
    17                           	psect	text3,local,class=CODE,merge=1,delta=2
    18                           	psect	text4,local,class=CODE,merge=1,delta=2
    19                           	psect	text5,local,class=CODE,merge=1,delta=2
    20                           	psect	text6,local,class=CODE,merge=1,delta=2
    21                           	psect	text7,local,class=CODE,merge=1,delta=2
    22                           	psect	text8,local,class=CODE,merge=1,delta=2
    23                           	psect	text9,local,class=CODE,merge=1,delta=2
    24                           	psect	text10,local,class=CODE,merge=1,delta=2
    25                           	psect	text11,local,class=CODE,merge=1,delta=2
    26                           	psect	text12,local,class=CODE,merge=1,delta=2
    27                           	psect	text13,local,class=CODE,merge=1,delta=2
    28                           	psect	text14,local,class=CODE,merge=1,delta=2,group=1
    29                           	psect	text15,local,class=CODE,merge=1,delta=2
    30                           	psect	text16,local,class=CODE,merge=1,delta=2
    31                           	psect	text17,local,class=CODE,merge=1,delta=2
    32                           	psect	text18,local,class=CODE,merge=1,delta=2
    33                           	psect	text19,local,class=CODE,merge=1,delta=2
    34                           	psect	text20,local,class=CODE,merge=1,delta=2
    35                           	psect	text21,local,class=CODE,merge=1,delta=2
    36                           	psect	text22,local,class=CODE,merge=1,delta=2
    37                           	psect	text23,local,class=CODE,merge=1,delta=2
    38                           	psect	text24,local,class=CODE,merge=1,delta=2
    39                           	psect	text25,local,class=CODE,merge=1,delta=2
    40                           	psect	text26,local,class=CODE,merge=1,delta=2
    41                           	psect	text27,local,class=CODE,merge=1,delta=2,group=1
    42                           	psect	text28,local,class=CODE,merge=1,delta=2,group=1
    43                           	psect	text29,local,class=CODE,merge=1,delta=2
    44                           	psect	intentry,global,class=CODE,delta=2
    45                           	psect	text30,local,class=CODE,merge=1,delta=2
    46                           	psect	text31,local,class=CODE,merge=1,delta=2,group=1
    47                           	psect	text32,local,class=CODE,merge=1,delta=2,group=1
    48                           	psect	text33,local,class=CODE,merge=1,delta=2
    49                           	psect	text34,local,class=CODE,merge=1,delta=2
    50                           	psect	text35,local,class=CODE,merge=1,delta=2,group=1
    51                           	psect	text36,local,class=CODE,merge=1,delta=2,group=1
    52                           	psect	text37,local,class=CODE,merge=1,delta=2,group=1
    53                           	psect	text38,local,class=CODE,merge=1,delta=2,group=1
    54                           	psect	text39,local,class=CODE,merge=1,delta=2
    55                           	psect	text40,local,class=CODE,merge=1,delta=2
    56                           	psect	config,global,abs,ovrld,class=CONFIG,space=4,delta=2,noexec
    57                           	dabs	1,0x7E,2
    58  0000                     
    59                           ; Version 2.20
    60                           ; Generated 12/02/2020 GMT
    61                           ; 
    62                           ; Copyright © 2020, Microchip Technology Inc. and its subsidiaries ("Microchip")
    63                           ; All rights reserved.
    64                           ; 
    65                           ; This software is developed by Microchip Technology Inc. and its subsidiaries ("Microch
      +                          ip").
    66                           ; 
    67                           ; Redistribution and use in source and binary forms, with or without modification, are
    68                           ; permitted provided that the following conditions are met:
    69                           ; 
    70                           ;     1. Redistributions of source code must retain the above copyright notice, this lis
      +                          t of
    71                           ;        conditions and the following disclaimer.
    72                           ; 
    73                           ;     2. Redistributions in binary form must reproduce the above copyright notice, this 
      +                          list
    74                           ;        of conditions and the following disclaimer in the documentation and/or other
    75                           ;        materials provided with the distribution.
    76                           ; 
    77                           ;     3. Microchip's name may not be used to endorse or promote products derived from th
      +                          is
    78                           ;        software without specific prior written permission.
    79                           ; 
    80                           ; THIS SOFTWARE IS PROVIDED BY MICROCHIP "AS IS" AND ANY EXPRESS OR IMPLIED WARRANTIES,
    81                           ; INCLUDING, BUT NOT LIMITED TO, THE IMPLIED WARRANTIES OF MERCHANTABILITY AND FITNESS F
      +                          OR
    82                           ; PURPOSE ARE DISCLAIMED.  IN NO EVENT SHALL MICROCHIP BE LIABLE FOR ANY DIRECT, INDIREC
      +                          T,
    83                           ; INCIDENTAL, SPECIAL, EXEMPLARY, OR CONSEQUENTIAL DAMAGES (INCLUDING BUT NOT LIMITED TO
    84                           ; PROCUREMENT OF SUBSTITUTE GOODS OR SERVICES; LOSS OF USE, DATA OR PROFITS; OR BUSINESS
    85                           ; INTERRUPTION) HOWSOEVER CAUSED AND ON ANY THEORY OF LIABILITY, WHETHER IN CONTRACT, ST
      +                          RICT
    86                           ; LIABILITY, OR TORT (INCLUDING NEGLIGENCE OR OTHERWISE) ARISING IN ANY WAY OUT OF THE U
      +                          SE OF
    87                           ; THIS SOFTWARE, EVEN IF ADVISED OF THE POSSIBILITY OF SUCH DAMAGE.
    88                           ; 
    89                           ; 
    90                           ; Code-generator required, PIC16F877A Definitions
    91                           ; 
    92                           ; SFR Addresses
    93  0000                     	;# 
    94  0001                     	;# 
    95  0002                     	;# 
    96  0003                     	;# 
    97  0004                     	;# 
    98  0005                     	;# 
    99  0006                     	;# 
   100  0007                     	;# 
   101  0008                     	;# 
   102  0009                     	;# 
   103  000A                     	;# 
   104  000B                     	;# 
   105  000C                     	;# 
   106  000D                     	;# 
   107  000E                     	;# 
   108  000E                     	;# 
   109  000F                     	;# 
   110  0010                     	;# 
   111  0011                     	;# 
   112  0012                     	;# 
   113  0013                     	;# 
   114  0014                     	;# 
   115  0015                     	;# 
   116  0015                     	;# 
   117  0016                     	;# 
   118  0017                     	;# 
   119  0018                     	;# 
   120  0019                     	;# 
   121  001A                     	;# 
   122  001B                     	;# 
   123  001B                     	;# 
   124  001C                     	;# 
   125  001D                     	;# 
   126  001E                     	;# 
   127  001F                     	;# 
   128  0081                     	;# 
   129  0085                     	;# 
   130  0086                     	;# 
   131  0087                     	;# 
   132  0088                     	;# 
   133  0089                     	;# 
   134  008C                     	;# 
   135  008D                     	;# 
   136  008E                     	;# 
   137  0091                     	;# 
   138  0092                     	;# 
   139  0093                     	;# 
   140  0094                     	;# 
   141  0098                     	;# 
   142  0099                     	;# 
   143  009C                     	;# 
   144  009D                     	;# 
   145  009E                     	;# 
   146  009F                     	;# 
   147  010C                     	;# 
   148  010D                     	;# 
   149  010E                     	;# 
   150  010F                     	;# 
   151  018C                     	;# 
   152  018D                     	;# 
   153  0000                     	;# 
   154  0001                     	;# 
   155  0002                     	;# 
   156  0003                     	;# 
   157  0004                     	;# 
   158  0005                     	;# 
   159  0006                     	;# 
   160  0007                     	;# 
   161  0008                     	;# 
   162  0009                     	;# 
   163  000A                     	;# 
   164  000B                     	;# 
   165  000C                     	;# 
   166  000D                     	;# 
   167  000E                     	;# 
   168  000E                     	;# 
   169  000F                     	;# 
   170  0010                     	;# 
   171  0011                     	;# 
   172  0012                     	;# 
   173  0013                     	;# 
   174  0014                     	;# 
   175  0015                     	;# 
   176  0015                     	;# 
   177  0016                     	;# 
   178  0017                     	;# 
   179  0018                     	;# 
   180  0019                     	;# 
   181  001A                     	;# 
   182  001B                     	;# 
   183  001B                     	;# 
   184  001C                     	;# 
   185  001D                     	;# 
   186  001E                     	;# 
   187  001F                     	;# 
   188  0081                     	;# 
   189  0085                     	;# 
   190  0086                     	;# 
   191  0087                     	;# 
   192  0088                     	;# 
   193  0089                     	;# 
   194  008C                     	;# 
   195  008D                     	;# 
   196  008E                     	;# 
   197  0091                     	;# 
   198  0092                     	;# 
   199  0093                     	;# 
   200  0094                     	;# 
   201  0098                     	;# 
   202  0099                     	;# 
   203  009C                     	;# 
   204  009D                     	;# 
   205  009E                     	;# 
   206  009F                     	;# 
   207  010C                     	;# 
   208  010D                     	;# 
   209  010E                     	;# 
   210  010F                     	;# 
   211  018C                     	;# 
   212  018D                     	;# 
   213                           
   214                           	psect	idataBANK1
   215  1593                     __pidataBANK1:
   216                           
   217                           ;initializer for _binary_pattern
   218  1593  343F               	retlw	63
   219  1594  3406               	retlw	6
   220  1595  345B               	retlw	91
   221  1596  344F               	retlw	79
   222  1597  3466               	retlw	102
   223  1598  346D               	retlw	109
   224  1599  347D               	retlw	125
   225  159A  3407               	retlw	7
   226  159B  347F               	retlw	127
   227  159C  346F               	retlw	111
   228                           
   229                           ;initializer for _Address
   230  159D  3420               	retlw	32
   231  159E  3400               	retlw	0
   232                           
   233                           ;initializer for _Temp
   234  159F  343C               	retlw	60
   235  15A0  3400               	retlw	0
   236  0007                     _PORTC	set	7
   237  0006                     _PORTB	set	6
   238  0005                     _PORTA	set	5
   239  0006                     _PORTBbits	set	6
   240  001E                     _ADRESH	set	30
   241  001F                     _ADCON0bits	set	31
   242  000B                     _INTCON	set	11
   243  0011                     _TMR2	set	17
   244  0012                     _T2CON	set	18
   245  000E                     _TMR1L	set	14
   246  000F                     _TMR1H	set	15
   247  0010                     _T1CON	set	16
   248  0007                     _PORTCbits	set	7
   249  001F                     _ADCON0	set	31
   250  0008                     _PORTD	set	8
   251  0005                     _PORTAbits	set	5
   252  0013                     _SSPBUF	set	19
   253  0014                     _SSPCON	set	20
   254  0059                     _INTF	set	89
   255  0061                     _TMR2IF	set	97
   256  0060                     _TMR1IF	set	96
   257  002D                     _RA5	set	45
   258  002C                     _RA4	set	44
   259  005B                     _RBIE	set	91
   260  0092                     _TMR2ON	set	146
   261  0080                     _TMR1ON	set	128
   262  005E                     _PEIE	set	94
   263  005F                     _GIE	set	95
   264  0063                     _SSPIF	set	99
   265  009E                     _ADRESL	set	158
   266  0081                     _OPTION_REG	set	129
   267  0088                     _TRISD	set	136
   268  009F                     _ADCON1	set	159
   269  0094                     _SSPSTAT	set	148
   270  0093                     _SSPADD	set	147
   271  0091                     _SSPCON2	set	145
   272  0461                     _TMR2IE	set	1121
   273  0460                     _TMR1IE	set	1120
   274  043A                     _TRISC2	set	1082
   275  043D                     _TRISC5	set	1085
   276  042D                     _TRISA5	set	1069
   277  042C                     _TRISA4	set	1068
   278  0431                     _TRISB1	set	1073
   279  0435                     _TRISB5	set	1077
   280  0434                     _TRISB4	set	1076
   281  0430                     _TRISB0	set	1072
   282  048C                     _ACKEN	set	1164
   283  048D                     _ACKDT	set	1165
   284  048B                     _RCEN	set	1163
   285  048E                     _ACKSTAT	set	1166
   286  048A                     _PEN	set	1162
   287  0489                     _RSEN	set	1161
   288  0488                     _SEN	set	1160
   289  043C                     _TRISC4	set	1084
   290  043B                     _TRISC3	set	1083
   291                           
   292                           	psect	cinit
   293  0019                     start_initialization:	
   294                           ; #config settings
   295                           
   296  0019                     __initialization:
   297                           
   298                           ; Initialize objects allocated to BANK1
   299  0019  1383               	bcf	3,7	;select IRP bank0
   300  001A  30E9               	movlw	low (__pdataBANK1+14)
   301  001B  00FD               	movwf	btemp+-1
   302  001C  3015               	movlw	high __pidataBANK1
   303  001D  00FE               	movwf	btemp
   304  001E  3093               	movlw	low __pidataBANK1
   305  001F  00FF               	movwf	btemp+1
   306  0020  30DB               	movlw	low __pdataBANK1
   307  0021  0084               	movwf	4
   308  0022  160A  118A  25B6  120A  118A  	fcall	init_ram0
   309                           
   310                           ; Clear objects allocated to BANK3
   311  0027  1783               	bsf	3,7	;select IRP bank2
   312  0028  3090               	movlw	low __pbssBANK3
   313  0029  0084               	movwf	4
   314  002A  30B8               	movlw	low (__pbssBANK3+40)
   315  002B  120A  158A  2000  120A  118A  	fcall	clear_ram0
   316                           
   317                           ; Clear objects allocated to BANK1
   318  0030  1383               	bcf	3,7	;select IRP bank0
   319  0031  30C9               	movlw	low __pbssBANK1
   320  0032  0084               	movwf	4
   321  0033  30DB               	movlw	low (__pbssBANK1+18)
   322  0034  120A  158A  2000  120A  118A  	fcall	clear_ram0
   323  0039                     end_of_initialization:	
   324                           ;End of C runtime variable initialization code
   325                           
   326  0039                     __end_of__initialization:
   327  0039  0183               	clrf	3
   328  003A  160A  118A  2E1F   	ljmp	_main	;jump to C main() function
   329                           
   330                           	psect	bssBANK1
   331  00C9                     __pbssBANK1:
   332  00C9                     _Flag:
   333  00C9                     	ds	2
   334  00CB                     _count:
   335  00CB                     	ds	2
   336  00CD                     _value:
   337  00CD                     	ds	2
   338  00CF                     _s:
   339  00CF                     	ds	2
   340  00D1                     _x:
   341  00D1                     	ds	2
   342  00D3                     _i:
   343  00D3                     	ds	2
   344  00D5                     _averageTemp:
   345  00D5                     	ds	2
   346  00D7                     _currentTemp:
   347  00D7                     	ds	2
   348  00D9                     _ADCResult:
   349  00D9                     	ds	2
   350                           
   351                           	psect	dataBANK1
   352  00DB                     __pdataBANK1:
   353  00DB                     _binary_pattern:
   354  00DB                     	ds	10
   355  00E5                     _Address:
   356  00E5                     	ds	2
   357  00E7                     _Temp:
   358  00E7                     	ds	2
   359                           
   360                           	psect	bssBANK3
   361  0190                     __pbssBANK3:
   362  0190                     _Readings:
   363  0190                     	ds	40
   364                           
   365                           	psect	inittext
   366  15B2                     init_fetch0:	
   367                           ;	Called with low address in FSR and high address in W
   368                           
   369  15B2  087E               	movf	btemp,w
   370  15B3  008A               	movwf	10
   371  15B4  087F               	movf	btemp+1,w
   372  15B5  0082               	movwf	2
   373  15B6                     init_ram0:	
   374                           ;Called with:
   375                           ;	high address of idata address in btemp 
   376                           ;	low address of idata address in btemp+1 
   377                           ;	low address of data in FSR
   378                           ;	high address + 1 of data in btemp-1
   379                           
   380  15B6  160A  118A  25B2  160A  118A  	fcall	init_fetch0
   381  15BB  0080               	movwf	0
   382  15BC  0A84               	incf	4,f
   383  15BD  0804               	movf	4,w
   384  15BE  067D               	xorwf	btemp+-1,w
   385  15BF  1903               	btfsc	3,2
   386  15C0  3400               	retlw	0
   387  15C1  0AFF               	incf	btemp+1,f
   388  15C2  1903               	btfsc	3,2
   389  15C3  0AFE               	incf	btemp,f
   390  15C4  2DB6               	goto	init_ram0
   391                           
   392                           	psect	clrtext
   393  0800                     clear_ram0:	
   394                           ;	Called with FSR containing the base address, and
   395                           ;	W with the last address+1
   396                           
   397  0800  0064               	clrwdt	;clear the watchdog before getting into this loop
   398  0801                     clrloop0:
   399  0801  0180               	clrf	0	;clear RAM location pointed to by FSR
   400  0802  0A84               	incf	4,f	;increment pointer
   401  0803  0604               	xorwf	4,w	;XOR with final address
   402  0804  1903               	btfsc	3,2	;have we reached the end yet?
   403  0805  3400               	retlw	0	;all done for this memory range, return
   404  0806  0604               	xorwf	4,w	;XOR again to restore value
   405  0807  2801               	goto	clrloop0	;do the next byte
   406                           
   407                           	psect	cstackBANK1
   408  00A0                     __pcstackBANK1:
   409  00A0                     ??_ISR:
   410                           
   411                           ; 1 bytes @ 0x0
   412  00A0                     	ds	4
   413  00A4                     ??_HeatingCoolingElement:
   414  00A4                     ??_I2C_Master_Wait:	
   415                           ; 1 bytes @ 0x4
   416                           
   417  00A4                     ??_I2C_Master_Start:	
   418                           ; 1 bytes @ 0x4
   419                           
   420  00A4                     ??_I2C_Master_RepeatedStart:	
   421                           ; 1 bytes @ 0x4
   422                           
   423  00A4                     ??_I2C_Master_Stop:	
   424                           ; 1 bytes @ 0x4
   425                           
   426  00A4                     ??_I2C_Master_Write:	
   427                           ; 1 bytes @ 0x4
   428                           
   429  00A4                     ??_I2C_Read_Byte:	
   430                           ; 1 bytes @ 0x4
   431                           
   432  00A4                     ??_I2C_ACK:	
   433                           ; 1 bytes @ 0x4
   434                           
   435  00A4                     ??_ButtonsInit:	
   436                           ; 1 bytes @ 0x4
   437                           
   438  00A4                     ??_LEDInit:	
   439                           ; 1 bytes @ 0x4
   440                           
   441  00A4                     ??_SevenSegInit:	
   442                           ; 1 bytes @ 0x4
   443                           
   444  00A4                     ??_ElementInit:	
   445                           ; 1 bytes @ 0x4
   446                           
   447  00A4                     ??_Timer1Init:	
   448                           ; 1 bytes @ 0x4
   449                           
   450  00A4                     ??_Timer2Init:	
   451                           ; 1 bytes @ 0x4
   452                           
   453  00A4                     ??_OnOff_Int_Init:	
   454                           ; 1 bytes @ 0x4
   455                           
   456  00A4                     ??_SysInit:	
   457                           ; 1 bytes @ 0x4
   458                           
   459  00A4                     ?_TempSet:	
   460                           ; 1 bytes @ 0x4
   461                           
   462  00A4                     ?___lwdiv:	
   463                           ; 2 bytes @ 0x4
   464                           
   465  00A4                     ?___lldiv:	
   466                           ; 2 bytes @ 0x4
   467                           
   468  00A4                     I2C_Master_Write@data:	
   469                           ; 4 bytes @ 0x4
   470                           
   471  00A4                     ___lwdiv@divisor:	
   472                           ; 1 bytes @ 0x4
   473                           
   474  00A4                     ___lldiv@divisor:	
   475                           ; 2 bytes @ 0x4
   476                           
   477                           
   478                           ; 4 bytes @ 0x4
   479  00A4                     	ds	1
   480  00A5                     ?_EEPROM_Write:
   481  00A5                     ?_EEPROM_Read:	
   482                           ; 1 bytes @ 0x5
   483                           
   484  00A5                     EEPROM_Write@add:	
   485                           ; 1 bytes @ 0x5
   486                           
   487  00A5                     EEPROM_Read@add:	
   488                           ; 2 bytes @ 0x5
   489                           
   490                           
   491                           ; 2 bytes @ 0x5
   492  00A5                     	ds	1
   493  00A6                     ??_TempSet:
   494  00A6                     ___lwdiv@dividend:	
   495                           ; 1 bytes @ 0x6
   496                           
   497                           
   498                           ; 2 bytes @ 0x6
   499  00A6                     	ds	1
   500  00A7                     EEPROM_Write@data:
   501  00A7                     EEPROM_Read@data:	
   502                           ; 2 bytes @ 0x7
   503                           
   504                           
   505                           ; 2 bytes @ 0x7
   506  00A7                     	ds	1
   507  00A8                     ??___lwdiv:
   508  00A8                     ___lwdiv@quotient:	
   509                           ; 1 bytes @ 0x8
   510                           
   511  00A8                     ___lldiv@dividend:	
   512                           ; 2 bytes @ 0x8
   513                           
   514                           
   515                           ; 4 bytes @ 0x8
   516  00A8                     	ds	1
   517  00A9                     EEPROM_Write@len:
   518  00A9                     EEPROM_Read@len:	
   519                           ; 1 bytes @ 0x9
   520                           
   521                           
   522                           ; 2 bytes @ 0x9
   523  00A9                     	ds	1
   524  00AA                     ??_EEPROM_Write:
   525  00AA                     ___lwdiv@counter:	
   526                           ; 1 bytes @ 0xA
   527                           
   528                           
   529                           ; 1 bytes @ 0xA
   530  00AA                     	ds	1
   531  00AB                     ??_EEPROM_Read:
   532  00AB                     ?___lwmod:	
   533                           ; 1 bytes @ 0xB
   534                           
   535  00AB                     ___lwmod@divisor:	
   536                           ; 2 bytes @ 0xB
   537                           
   538                           
   539                           ; 2 bytes @ 0xB
   540  00AB                     	ds	1
   541  00AC                     ??___lldiv:
   542  00AC                     EEPROM_Write@i:	
   543                           ; 1 bytes @ 0xC
   544                           
   545                           
   546                           ; 2 bytes @ 0xC
   547  00AC                     	ds	1
   548  00AD                     EEPROM_Read@i:
   549  00AD                     ___lwmod@dividend:	
   550                           ; 2 bytes @ 0xD
   551                           
   552  00AD                     ___lldiv@quotient:	
   553                           ; 2 bytes @ 0xD
   554                           
   555                           
   556                           ; 4 bytes @ 0xD
   557  00AD                     	ds	2
   558  00AF                     ??_FetchTemp:
   559  00AF                     ??___lwmod:	
   560                           ; 1 bytes @ 0xF
   561                           
   562  00AF                     ___lwmod@counter:	
   563                           ; 1 bytes @ 0xF
   564                           
   565                           
   566                           ; 1 bytes @ 0xF
   567  00AF                     	ds	1
   568  00B0                     ??_CurrentTempDisplay:
   569                           
   570                           ; 1 bytes @ 0x10
   571  00B0                     	ds	1
   572  00B1                     ___lldiv@counter:
   573                           
   574                           ; 1 bytes @ 0x11
   575  00B1                     	ds	1
   576  00B2                     ?_I2C_Master_Init:
   577  00B2                     CurrentTempDisplay@a:	
   578                           ; 1 bytes @ 0x12
   579                           
   580  00B2                     I2C_Master_Init@baud:	
   581                           ; 2 bytes @ 0x12
   582                           
   583                           
   584                           ; 4 bytes @ 0x12
   585  00B2                     	ds	2
   586  00B4                     CurrentTempDisplay@b:
   587                           
   588                           ; 2 bytes @ 0x14
   589  00B4                     	ds	2
   590  00B6                     ??_I2C_Master_Init:
   591                           
   592                           ; 1 bytes @ 0x16
   593  00B6                     	ds	4
   594  00BA                     ??_SaveTemp:
   595  00BA                     ??_TempDisplay:	
   596                           ; 1 bytes @ 0x1A
   597                           
   598                           
   599                           ; 1 bytes @ 0x1A
   600  00BA                     	ds	2
   601  00BC                     TempDisplay@a:
   602                           
   603                           ; 2 bytes @ 0x1C
   604  00BC                     	ds	2
   605  00BE                     TempDisplay@b:
   606                           
   607                           ; 2 bytes @ 0x1E
   608  00BE                     	ds	2
   609  00C0                     ??_SettingMode:
   610                           
   611                           ; 1 bytes @ 0x20
   612  00C0                     	ds	3
   613  00C3                     SettingMode@z:
   614                           
   615                           ; 2 bytes @ 0x23
   616  00C3                     	ds	2
   617  00C5                     SettingMode@y:
   618                           
   619                           ; 2 bytes @ 0x25
   620  00C5                     	ds	2
   621  00C7                     SettingMode@k:
   622                           
   623                           ; 2 bytes @ 0x27
   624  00C7                     	ds	2
   625  00C9                     ??_main:
   626                           
   627                           	psect	cstackCOMMON
   628  0070                     __pcstackCOMMON:	
   629                           ; 1 bytes @ 0x29
   630                           
   631  0070                     ?_HeatingCoolingElement:
   632  0070                     ?_I2C_Master_Wait:	
   633                           ; 1 bytes @ 0x0
   634                           
   635  0070                     ?_I2C_Master_Start:	
   636                           ; 1 bytes @ 0x0
   637                           
   638  0070                     ?_I2C_Master_RepeatedStart:	
   639                           ; 1 bytes @ 0x0
   640                           
   641  0070                     ?_I2C_Master_Stop:	
   642                           ; 1 bytes @ 0x0
   643                           
   644  0070                     ?_I2C_Master_Write:	
   645                           ; 1 bytes @ 0x0
   646                           
   647  0070                     ?_I2C_Read_Byte:	
   648                           ; 1 bytes @ 0x0
   649                           
   650  0070                     ?_I2C_ACK:	
   651                           ; 1 bytes @ 0x0
   652                           
   653  0070                     ?_ButtonsInit:	
   654                           ; 1 bytes @ 0x0
   655                           
   656  0070                     ?_LEDInit:	
   657                           ; 1 bytes @ 0x0
   658                           
   659  0070                     ?_SevenSegInit:	
   660                           ; 1 bytes @ 0x0
   661                           
   662  0070                     ?_ADCInit:	
   663                           ; 1 bytes @ 0x0
   664                           
   665  0070                     ??_ADCInit:	
   666                           ; 1 bytes @ 0x0
   667                           
   668  0070                     ?_ElementInit:	
   669                           ; 1 bytes @ 0x0
   670                           
   671  0070                     ?_Timer1Init:	
   672                           ; 1 bytes @ 0x0
   673                           
   674  0070                     ?_Timer2Init:	
   675                           ; 1 bytes @ 0x0
   676                           
   677  0070                     ?_OnOff_Int_Init:	
   678                           ; 1 bytes @ 0x0
   679                           
   680  0070                     ?_SysInit:	
   681                           ; 1 bytes @ 0x0
   682                           
   683  0070                     ?_SaveTemp:	
   684                           ; 1 bytes @ 0x0
   685                           
   686  0070                     ?_FetchTemp:	
   687                           ; 1 bytes @ 0x0
   688                           
   689  0070                     ?_TempDisplay:	
   690                           ; 1 bytes @ 0x0
   691                           
   692  0070                     ?_CurrentTempDisplay:	
   693                           ; 1 bytes @ 0x0
   694                           
   695  0070                     ?_AverageTemp:	
   696                           ; 1 bytes @ 0x0
   697                           
   698  0070                     ?_TempSensor:	
   699                           ; 1 bytes @ 0x0
   700                           
   701  0070                     ?_SettingMode:	
   702                           ; 1 bytes @ 0x0
   703                           
   704  0070                     ?_ISR:	
   705                           ; 1 bytes @ 0x0
   706                           
   707  0070                     ?_main:	
   708                           ; 1 bytes @ 0x0
   709                           
   710  0070                     ?i1_HeatingCoolingElement:	
   711                           ; 1 bytes @ 0x0
   712                           
   713  0070                     ??i1_HeatingCoolingElement:	
   714                           ; 1 bytes @ 0x0
   715                           
   716  0070                     ?__Umul8_16:	
   717                           ; 1 bytes @ 0x0
   718                           
   719  0070                     ?_ADC_Read:	
   720                           ; 2 bytes @ 0x0
   721                           
   722  0070                     ?___fladd:	
   723                           ; 2 bytes @ 0x0
   724                           
   725  0070                     ?___xxtofl:	
   726                           ; 4 bytes @ 0x0
   727                           
   728  0070                     __Umul8_16@multiplicand:	
   729                           ; 4 bytes @ 0x0
   730                           
   731  0070                     ___fladd@b:	
   732                           ; 1 bytes @ 0x0
   733                           
   734  0070                     ___xxtofl@val:	
   735                           ; 4 bytes @ 0x0
   736                           
   737                           
   738                           ; 4 bytes @ 0x0
   739  0070                     	ds	2
   740  0072                     ??__Umul8_16:
   741  0072                     ??_ADC_Read:	
   742                           ; 1 bytes @ 0x2
   743                           
   744                           
   745                           ; 1 bytes @ 0x2
   746  0072                     	ds	2
   747  0074                     ??___xxtofl:
   748  0074                     __Umul8_16@product:	
   749                           ; 1 bytes @ 0x4
   750                           
   751  0074                     ___fladd@a:	
   752                           ; 2 bytes @ 0x4
   753                           
   754                           
   755                           ; 4 bytes @ 0x4
   756  0074                     	ds	2
   757  0076                     __Umul8_16@word_mpld:
   758                           
   759                           ; 2 bytes @ 0x6
   760  0076                     	ds	2
   761  0078                     ___fladd@signs:
   762  0078                     __Umul8_16@multiplier:	
   763                           ; 1 bytes @ 0x8
   764                           
   765  0078                     ___xxtofl@sign:	
   766                           ; 1 bytes @ 0x8
   767                           
   768                           
   769                           ; 1 bytes @ 0x8
   770  0078                     	ds	1
   771  0079                     ___fladd@aexp:
   772  0079                     ___xxtofl@exp:	
   773                           ; 1 bytes @ 0x9
   774                           
   775                           
   776                           ; 1 bytes @ 0x9
   777  0079                     	ds	1
   778  007A                     ___fladd@bexp:
   779  007A                     ___xxtofl@arg:	
   780                           ; 1 bytes @ 0xA
   781                           
   782                           
   783                           ; 4 bytes @ 0xA
   784  007A                     	ds	1
   785  007B                     ___fladd@grs:
   786                           
   787                           ; 1 bytes @ 0xB
   788  007B                     	ds	3
   789  007E                     ??_TempSensor:
   790                           
   791                           	psect	cstackBANK0
   792  0020                     __pcstackBANK0:	
   793                           ; 1 bytes @ 0xE
   794                           
   795  0020                     ??___fladd:
   796  0020                     ?___flmul:	
   797                           ; 1 bytes @ 0x0
   798                           
   799  0020                     ___flmul@b:	
   800                           ; 4 bytes @ 0x0
   801                           
   802                           
   803                           ; 4 bytes @ 0x0
   804  0020                     	ds	4
   805  0024                     ___flmul@a:
   806                           
   807                           ; 4 bytes @ 0x4
   808  0024                     	ds	4
   809  0028                     ??___flmul:
   810                           
   811                           ; 1 bytes @ 0x8
   812  0028                     	ds	5
   813  002D                     ___flmul@sign:
   814                           
   815                           ; 1 bytes @ 0xD
   816  002D                     	ds	1
   817  002E                     ___flmul@grs:
   818                           
   819                           ; 4 bytes @ 0xE
   820  002E                     	ds	4
   821  0032                     ___flmul@aexp:
   822                           
   823                           ; 1 bytes @ 0x12
   824  0032                     	ds	1
   825  0033                     ___flmul@bexp:
   826                           
   827                           ; 1 bytes @ 0x13
   828  0033                     	ds	1
   829  0034                     ___flmul@prod:
   830                           
   831                           ; 4 bytes @ 0x14
   832  0034                     	ds	4
   833  0038                     ___flmul@temp:
   834                           
   835                           ; 2 bytes @ 0x18
   836  0038                     	ds	2
   837  003A                     ?___fldiv:
   838  003A                     ___fldiv@a:	
   839                           ; 4 bytes @ 0x1A
   840                           
   841                           
   842                           ; 4 bytes @ 0x1A
   843  003A                     	ds	4
   844  003E                     ___fldiv@b:
   845                           
   846                           ; 4 bytes @ 0x1E
   847  003E                     	ds	4
   848  0042                     ??___fldiv:
   849                           
   850                           ; 1 bytes @ 0x22
   851  0042                     	ds	5
   852  0047                     ___fldiv@rem:
   853                           
   854                           ; 4 bytes @ 0x27
   855  0047                     	ds	4
   856  004B                     ___fldiv@sign:
   857                           
   858                           ; 1 bytes @ 0x2B
   859  004B                     	ds	1
   860  004C                     ___fldiv@new_exp:
   861                           
   862                           ; 2 bytes @ 0x2C
   863  004C                     	ds	2
   864  004E                     ___fldiv@grs:
   865                           
   866                           ; 4 bytes @ 0x2E
   867  004E                     	ds	4
   868  0052                     ___fldiv@bexp:
   869                           
   870                           ; 1 bytes @ 0x32
   871  0052                     	ds	1
   872  0053                     ___fldiv@aexp:
   873                           
   874                           ; 1 bytes @ 0x33
   875  0053                     	ds	1
   876  0054                     ?___fltol:
   877  0054                     ___fltol@f1:	
   878                           ; 4 bytes @ 0x34
   879                           
   880                           
   881                           ; 4 bytes @ 0x34
   882  0054                     	ds	4
   883  0058                     ??___fltol:
   884                           
   885                           ; 1 bytes @ 0x38
   886  0058                     	ds	4
   887  005C                     ___fltol@sign1:
   888                           
   889                           ; 1 bytes @ 0x3C
   890  005C                     	ds	1
   891  005D                     ___fltol@exp1:
   892                           
   893                           ; 1 bytes @ 0x3D
   894  005D                     	ds	1
   895  005E                     ??_AverageTemp:
   896                           
   897                           ; 1 bytes @ 0x3E
   898  005E                     	ds	3
   899  0061                     AverageTemp@j:
   900                           
   901                           ; 2 bytes @ 0x41
   902  0061                     	ds	2
   903  0063                     AverageTemp@reading:
   904                           
   905                           ; 4 bytes @ 0x43
   906  0063                     	ds	4
   907  0067                     AverageTemp@j_293:
   908                           
   909                           ; 2 bytes @ 0x47
   910  0067                     	ds	2
   911  0069                     AverageTemp@j_294:
   912                           
   913                           ; 2 bytes @ 0x49
   914  0069                     	ds	2
   915  006B                     AverageTemp@tmp:
   916                           
   917                           ; 4 bytes @ 0x4B
   918  006B                     	ds	4
   919                           
   920                           	psect	maintext
   921  161F                     __pmaintext:	
   922 ;;
   923 ;;Main: autosize = 0, tempsize = 0, incstack = 0, save=0
   924 ;;
   925 ;; *************** function _main *****************
   926 ;; Defined at:
   927 ;;		line 3 in file "main.c"
   928 ;; Parameters:    Size  Location     Type
   929 ;;		None
   930 ;; Auto vars:     Size  Location     Type
   931 ;;		None
   932 ;; Return value:  Size  Location     Type
   933 ;;                  1    wreg      void 
   934 ;; Registers used:
   935 ;;		wreg, fsr0l, fsr0h, status,2, status,0, btemp+1, pclath, cstack
   936 ;; Tracked objects:
   937 ;;		On entry : B00/0
   938 ;;		On exit  : 0/0
   939 ;;		Unchanged: 0/0
   940 ;; Data sizes:     COMMON   BANK0   BANK1   BANK3   BANK2
   941 ;;      Params:         0       0       0       0       0
   942 ;;      Locals:         0       0       0       0       0
   943 ;;      Temps:          0       0       0       0       0
   944 ;;      Totals:         0       0       0       0       0
   945 ;;Total ram usage:        0 bytes
   946 ;; Hardware stack levels required when called:   10
   947 ;; This function calls:
   948 ;;		_CurrentTempDisplay
   949 ;;		_SettingMode
   950 ;;		_SysInit
   951 ;; This function is called by:
   952 ;;		Startup code after reset
   953 ;; This function uses a non-reentrant model
   954 ;;
   955                           
   956                           
   957                           ;psect for function _main
   958  161F                     _main:
   959  161F                     l3085:	
   960                           ;incstack = 0
   961 ;; hardware stack exceeded
   962                           ; Regs used in _main: [wreg-fsr0h+status,2+status,0+btemp+1+pclath+cstack]
   963                           
   964                           
   965                           ;main.c: 4:     SysInit();
   966  161F  160A  118A  265F  160A  118A  	fcall	_SysInit
   967  1624                     l3087:
   968                           
   969                           ;main.c: 6:         CurrentTempDisplay();
   970  1624  120A  158A  21FE  160A  118A  	fcall	_CurrentTempDisplay
   971  1629                     l3089:
   972                           
   973                           ;main.c: 7:         if(PORTBbits.RB4 == 0 || PORTBbits.RB5 == 0){
   974  1629  1283               	bcf	3,5	;RP0=0, select bank0
   975  162A  1303               	bcf	3,6	;RP1=0, select bank0
   976  162B  1E06               	btfss	6,4	;volatile
   977  162C  2E2E               	goto	u4091
   978  162D  2E2F               	goto	u4090
   979  162E                     u4091:
   980  162E  2E33               	goto	l3093
   981  162F                     u4090:
   982  162F                     l3091:
   983  162F  1A86               	btfsc	6,5	;volatile
   984  1630  2E32               	goto	u4101
   985  1631  2E33               	goto	u4100
   986  1632                     u4101:
   987  1632  2E24               	goto	l3087
   988  1633                     u4100:
   989  1633                     l3093:
   990                           
   991                           ;main.c: 8:             SettingMode();
   992  1633  120A  158A  226A  160A  118A  	fcall	_SettingMode
   993  1638  2E24               	goto	l3087
   994  1639  120A  118A  2816   	ljmp	start
   995  163C                     __end_of_main:
   996                           
   997                           	psect	text1
   998  165F                     __ptext1:	
   999 ;; *************** function _SysInit *****************
  1000 ;; Defined at:
  1001 ;;		line 95 in file "./Init.h"
  1002 ;; Parameters:    Size  Location     Type
  1003 ;;		None
  1004 ;; Auto vars:     Size  Location     Type
  1005 ;;		None
  1006 ;; Return value:  Size  Location     Type
  1007 ;;                  1    wreg      void 
  1008 ;; Registers used:
  1009 ;;		wreg, status,2, status,0, btemp+1, pclath, cstack
  1010 ;; Tracked objects:
  1011 ;;		On entry : 0/0
  1012 ;;		On exit  : 0/0
  1013 ;;		Unchanged: 0/0
  1014 ;; Data sizes:     COMMON   BANK0   BANK1   BANK3   BANK2
  1015 ;;      Params:         0       0       0       0       0
  1016 ;;      Locals:         0       0       0       0       0
  1017 ;;      Temps:          0       0       0       0       0
  1018 ;;      Totals:         0       0       0       0       0
  1019 ;;Total ram usage:        0 bytes
  1020 ;; Hardware stack levels used:    1
  1021 ;; Hardware stack levels required when called:    5
  1022 ;; This function calls:
  1023 ;;		_ButtonsInit
  1024 ;;		_ElementInit
  1025 ;;		_LEDInit
  1026 ;;		_OnOff_Int_Init
  1027 ;;		_SevenSegInit
  1028 ;;		_Timer1Init
  1029 ;;		_Timer2Init
  1030 ;; This function is called by:
  1031 ;;		_main
  1032 ;; This function uses a non-reentrant model
  1033 ;;
  1034                           
  1035                           
  1036                           ;psect for function _SysInit
  1037  165F                     _SysInit:
  1038  165F                     l2957:	
  1039                           ;incstack = 0
  1040                           ; Regs used in _SysInit: [wreg+status,2+status,0+btemp+1+pclath+cstack]
  1041                           
  1042                           
  1043                           ;./Init.h: 96:     ButtonsInit();
  1044  165F  160A  118A  253F  160A  118A  	fcall	_ButtonsInit
  1045                           
  1046                           ;./Init.h: 97:     LEDInit();
  1047  1664  160A  118A  253B  160A  118A  	fcall	_LEDInit
  1048  1669                     l2959:
  1049                           
  1050                           ;./Init.h: 98:     SevenSegInit();
  1051  1669  160A  118A  25D9  160A  118A  	fcall	_SevenSegInit
  1052  166E                     l2961:
  1053                           
  1054                           ;./Init.h: 99:     ElementInit();
  1055  166E  160A  118A  2571  160A  118A  	fcall	_ElementInit
  1056                           
  1057                           ;./Init.h: 100:     Timer1Init();
  1058  1673  160A  118A  25A1  160A  118A  	fcall	_Timer1Init
  1059                           
  1060                           ;./Init.h: 101:     Timer2Init();
  1061  1678  120A  118A  27F0  160A  118A  	fcall	_Timer2Init
  1062  167D                     l2963:
  1063                           
  1064                           ;./Init.h: 102:     OnOff_Int_Init();
  1065  167D  160A  118A  2545  160A  118A  	fcall	_OnOff_Int_Init
  1066  1682                     l200:
  1067  1682  0008               	return
  1068  1683                     __end_of_SysInit:
  1069                           
  1070                           	psect	text2
  1071  07F0                     __ptext2:	
  1072 ;; *************** function _Timer2Init *****************
  1073 ;; Defined at:
  1074 ;;		line 77 in file "./Init.h"
  1075 ;; Parameters:    Size  Location     Type
  1076 ;;		None
  1077 ;; Auto vars:     Size  Location     Type
  1078 ;;		None
  1079 ;; Return value:  Size  Location     Type
  1080 ;;                  1    wreg      void 
  1081 ;; Registers used:
  1082 ;;		wreg
  1083 ;; Tracked objects:
  1084 ;;		On entry : 0/0
  1085 ;;		On exit  : 0/0
  1086 ;;		Unchanged: 0/0
  1087 ;; Data sizes:     COMMON   BANK0   BANK1   BANK3   BANK2
  1088 ;;      Params:         0       0       0       0       0
  1089 ;;      Locals:         0       0       0       0       0
  1090 ;;      Temps:          0       0       0       0       0
  1091 ;;      Totals:         0       0       0       0       0
  1092 ;;Total ram usage:        0 bytes
  1093 ;; Hardware stack levels used:    1
  1094 ;; Hardware stack levels required when called:    4
  1095 ;; This function calls:
  1096 ;;		Nothing
  1097 ;; This function is called by:
  1098 ;;		_SysInit
  1099 ;; This function uses a non-reentrant model
  1100 ;;
  1101                           
  1102                           
  1103                           ;psect for function _Timer2Init
  1104  07F0                     _Timer2Init:
  1105  07F0                     l2659:	
  1106                           ;incstack = 0
  1107                           ; Regs used in _Timer2Init: [wreg]
  1108                           
  1109                           
  1110                           ;./Init.h: 78:     T2CON = (1<<1);
  1111  07F0  3002               	movlw	2
  1112  07F1  1283               	bcf	3,5	;RP0=0, select bank0
  1113  07F2  1303               	bcf	3,6	;RP1=0, select bank0
  1114  07F3  0092               	movwf	18	;volatile
  1115                           
  1116                           ;./Init.h: 79:     TMR2=100;
  1117  07F4  3064               	movlw	100
  1118  07F5  0091               	movwf	17	;volatile
  1119  07F6                     l2661:
  1120                           
  1121                           ;./Init.h: 80:     TMR2IE=1;
  1122  07F6  1683               	bsf	3,5	;RP0=1, select bank1
  1123  07F7  1303               	bcf	3,6	;RP1=0, select bank1
  1124  07F8  148C               	bsf	12,1	;volatile
  1125  07F9                     l2663:
  1126                           
  1127                           ;./Init.h: 81:     GIE=1;
  1128  07F9  178B               	bsf	11,7	;volatile
  1129  07FA                     l2665:
  1130                           
  1131                           ;./Init.h: 82:     PEIE=1;
  1132  07FA  170B               	bsf	11,6	;volatile
  1133  07FB                     l2667:
  1134                           
  1135                           ;./Init.h: 83:     TMR2ON = 1;
  1136  07FB  1283               	bcf	3,5	;RP0=0, select bank0
  1137  07FC  1303               	bcf	3,6	;RP1=0, select bank0
  1138  07FD  1512               	bsf	18,2	;volatile
  1139  07FE                     l191:
  1140  07FE  0008               	return
  1141  07FF                     __end_of_Timer2Init:
  1142                           
  1143                           	psect	text3
  1144  15A1                     __ptext3:	
  1145 ;; *************** function _Timer1Init *****************
  1146 ;; Defined at:
  1147 ;;		line 68 in file "./Init.h"
  1148 ;; Parameters:    Size  Location     Type
  1149 ;;		None
  1150 ;; Auto vars:     Size  Location     Type
  1151 ;;		None
  1152 ;; Return value:  Size  Location     Type
  1153 ;;                  1    wreg      void 
  1154 ;; Registers used:
  1155 ;;		wreg
  1156 ;; Tracked objects:
  1157 ;;		On entry : 0/0
  1158 ;;		On exit  : 0/0
  1159 ;;		Unchanged: 0/0
  1160 ;; Data sizes:     COMMON   BANK0   BANK1   BANK3   BANK2
  1161 ;;      Params:         0       0       0       0       0
  1162 ;;      Locals:         0       0       0       0       0
  1163 ;;      Temps:          0       0       0       0       0
  1164 ;;      Totals:         0       0       0       0       0
  1165 ;;Total ram usage:        0 bytes
  1166 ;; Hardware stack levels used:    1
  1167 ;; Hardware stack levels required when called:    4
  1168 ;; This function calls:
  1169 ;;		Nothing
  1170 ;; This function is called by:
  1171 ;;		_SysInit
  1172 ;; This function uses a non-reentrant model
  1173 ;;
  1174                           
  1175                           
  1176                           ;psect for function _Timer1Init
  1177  15A1                     _Timer1Init:
  1178  15A1                     l2649:	
  1179                           ;incstack = 0
  1180                           ; Regs used in _Timer1Init: [wreg]
  1181                           
  1182                           
  1183                           ;./Init.h: 69:     T1CON = (1<<5) | (1<<4);
  1184  15A1  3030               	movlw	48
  1185  15A2  1283               	bcf	3,5	;RP0=0, select bank0
  1186  15A3  1303               	bcf	3,6	;RP1=0, select bank0
  1187  15A4  0090               	movwf	16	;volatile
  1188                           
  1189                           ;./Init.h: 70:     TMR1H=0x0B;
  1190  15A5  300B               	movlw	11
  1191  15A6  008F               	movwf	15	;volatile
  1192                           
  1193                           ;./Init.h: 71:     TMR1L=0xDC;
  1194  15A7  30DC               	movlw	220
  1195  15A8  008E               	movwf	14	;volatile
  1196  15A9                     l2651:
  1197                           
  1198                           ;./Init.h: 72:     TMR1IE=1;
  1199  15A9  1683               	bsf	3,5	;RP0=1, select bank1
  1200  15AA  1303               	bcf	3,6	;RP1=0, select bank1
  1201  15AB  140C               	bsf	12,0	;volatile
  1202  15AC                     l2653:
  1203                           
  1204                           ;./Init.h: 73:     GIE=1;
  1205  15AC  178B               	bsf	11,7	;volatile
  1206  15AD                     l2655:
  1207                           
  1208                           ;./Init.h: 74:     PEIE=1;
  1209  15AD  170B               	bsf	11,6	;volatile
  1210  15AE                     l2657:
  1211                           
  1212                           ;./Init.h: 75:     TMR1ON = 1;
  1213  15AE  1283               	bcf	3,5	;RP0=0, select bank0
  1214  15AF  1303               	bcf	3,6	;RP1=0, select bank0
  1215  15B0  1410               	bsf	16,0	;volatile
  1216  15B1                     l188:
  1217  15B1  0008               	return
  1218  15B2                     __end_of_Timer1Init:
  1219                           
  1220                           	psect	text4
  1221  15D9                     __ptext4:	
  1222 ;; *************** function _SevenSegInit *****************
  1223 ;; Defined at:
  1224 ;;		line 49 in file "./Init.h"
  1225 ;; Parameters:    Size  Location     Type
  1226 ;;		None
  1227 ;; Auto vars:     Size  Location     Type
  1228 ;;		None
  1229 ;; Return value:  Size  Location     Type
  1230 ;;                  1    wreg      void 
  1231 ;; Registers used:
  1232 ;;		wreg, status,2
  1233 ;; Tracked objects:
  1234 ;;		On entry : 0/0
  1235 ;;		On exit  : 0/0
  1236 ;;		Unchanged: 0/0
  1237 ;; Data sizes:     COMMON   BANK0   BANK1   BANK3   BANK2
  1238 ;;      Params:         0       0       0       0       0
  1239 ;;      Locals:         0       0       0       0       0
  1240 ;;      Temps:          0       0       0       0       0
  1241 ;;      Totals:         0       0       0       0       0
  1242 ;;Total ram usage:        0 bytes
  1243 ;; Hardware stack levels used:    1
  1244 ;; Hardware stack levels required when called:    4
  1245 ;; This function calls:
  1246 ;;		Nothing
  1247 ;; This function is called by:
  1248 ;;		_SysInit
  1249 ;; This function uses a non-reentrant model
  1250 ;;
  1251                           
  1252                           
  1253                           ;psect for function _SevenSegInit
  1254  15D9                     _SevenSegInit:
  1255  15D9                     l2633:	
  1256                           ;incstack = 0
  1257                           ; Regs used in _SevenSegInit: [wreg+status,2]
  1258                           
  1259                           
  1260                           ;./Init.h: 50:     ADCON1 = 6;
  1261  15D9  3006               	movlw	6
  1262  15DA  1683               	bsf	3,5	;RP0=1, select bank1
  1263  15DB  1303               	bcf	3,6	;RP1=0, select bank1
  1264  15DC  009F               	movwf	31	;volatile
  1265  15DD                     l2635:
  1266                           
  1267                           ;./Init.h: 51:     PORTAbits.RA4 = 0;
  1268  15DD  1283               	bcf	3,5	;RP0=0, select bank0
  1269  15DE  1303               	bcf	3,6	;RP1=0, select bank0
  1270  15DF  1205               	bcf	5,4	;volatile
  1271  15E0                     l2637:
  1272                           
  1273                           ;./Init.h: 52:     TRISA4 = 0;
  1274  15E0  1683               	bsf	3,5	;RP0=1, select bank1
  1275  15E1  1303               	bcf	3,6	;RP1=0, select bank1
  1276  15E2  1205               	bcf	5,4	;volatile
  1277  15E3                     l2639:
  1278                           
  1279                           ;./Init.h: 53:     PORTAbits.RA5 = 0;
  1280  15E3  1283               	bcf	3,5	;RP0=0, select bank0
  1281  15E4  1303               	bcf	3,6	;RP1=0, select bank0
  1282  15E5  1285               	bcf	5,5	;volatile
  1283  15E6                     l2641:
  1284                           
  1285                           ;./Init.h: 54:     TRISA5 = 0;
  1286  15E6  1683               	bsf	3,5	;RP0=1, select bank1
  1287  15E7  1303               	bcf	3,6	;RP1=0, select bank1
  1288  15E8  1285               	bcf	5,5	;volatile
  1289  15E9                     l2643:
  1290                           
  1291                           ;./Init.h: 55:     TRISD = 0;
  1292  15E9  0188               	clrf	8	;volatile
  1293  15EA                     l2645:
  1294                           
  1295                           ;./Init.h: 56:     PORTD = 255;
  1296  15EA  30FF               	movlw	255
  1297  15EB  1283               	bcf	3,5	;RP0=0, select bank0
  1298  15EC  1303               	bcf	3,6	;RP1=0, select bank0
  1299  15ED  0088               	movwf	8	;volatile
  1300  15EE                     l179:
  1301  15EE  0008               	return
  1302  15EF                     __end_of_SevenSegInit:
  1303                           
  1304                           	psect	text5
  1305  1545                     __ptext5:	
  1306 ;; *************** function _OnOff_Int_Init *****************
  1307 ;; Defined at:
  1308 ;;		line 85 in file "./Init.h"
  1309 ;; Parameters:    Size  Location     Type
  1310 ;;		None
  1311 ;; Auto vars:     Size  Location     Type
  1312 ;;		None
  1313 ;; Return value:  Size  Location     Type
  1314 ;;                  1    wreg      void 
  1315 ;; Registers used:
  1316 ;;		wreg, status,2, status,0, btemp+1
  1317 ;; Tracked objects:
  1318 ;;		On entry : 0/0
  1319 ;;		On exit  : 0/0
  1320 ;;		Unchanged: 0/0
  1321 ;; Data sizes:     COMMON   BANK0   BANK1   BANK3   BANK2
  1322 ;;      Params:         0       0       0       0       0
  1323 ;;      Locals:         0       0       0       0       0
  1324 ;;      Temps:          0       0       0       0       0
  1325 ;;      Totals:         0       0       0       0       0
  1326 ;;Total ram usage:        0 bytes
  1327 ;; Hardware stack levels used:    1
  1328 ;; Hardware stack levels required when called:    4
  1329 ;; This function calls:
  1330 ;;		Nothing
  1331 ;; This function is called by:
  1332 ;;		_SysInit
  1333 ;; This function uses a non-reentrant model
  1334 ;;
  1335                           
  1336                           
  1337                           ;psect for function _OnOff_Int_Init
  1338  1545                     _OnOff_Int_Init:
  1339  1545                     l2669:	
  1340                           ;incstack = 0
  1341                           ; Regs used in _OnOff_Int_Init: [wreg+status,2+status,0+btemp+1]
  1342                           
  1343                           
  1344                           ;./Init.h: 86:     OPTION_REG = 0x00;
  1345  1545  1683               	bsf	3,5	;RP0=1, select bank1
  1346  1546  1303               	bcf	3,6	;RP1=0, select bank1
  1347  1547  0181               	clrf	1	;volatile
  1348  1548                     l2671:
  1349                           
  1350                           ;./Init.h: 87:     INTCON |= 0xd0;
  1351  1548  30D0               	movlw	208
  1352  1549  00FF               	movwf	btemp+1
  1353  154A  087F               	movf	btemp+1,w
  1354  154B  048B               	iorwf	11,f	;volatile
  1355  154C                     l194:
  1356  154C  0008               	return
  1357  154D                     __end_of_OnOff_Int_Init:
  1358                           
  1359                           	psect	text6
  1360  153B                     __ptext6:	
  1361 ;; *************** function _LEDInit *****************
  1362 ;; Defined at:
  1363 ;;		line 46 in file "./Init.h"
  1364 ;; Parameters:    Size  Location     Type
  1365 ;;		None
  1366 ;; Auto vars:     Size  Location     Type
  1367 ;;		None
  1368 ;; Return value:  Size  Location     Type
  1369 ;;                  1    wreg      void 
  1370 ;; Registers used:
  1371 ;;		None
  1372 ;; Tracked objects:
  1373 ;;		On entry : 0/0
  1374 ;;		On exit  : 0/0
  1375 ;;		Unchanged: 0/0
  1376 ;; Data sizes:     COMMON   BANK0   BANK1   BANK3   BANK2
  1377 ;;      Params:         0       0       0       0       0
  1378 ;;      Locals:         0       0       0       0       0
  1379 ;;      Temps:          0       0       0       0       0
  1380 ;;      Totals:         0       0       0       0       0
  1381 ;;Total ram usage:        0 bytes
  1382 ;; Hardware stack levels used:    1
  1383 ;; Hardware stack levels required when called:    4
  1384 ;; This function calls:
  1385 ;;		Nothing
  1386 ;; This function is called by:
  1387 ;;		_SysInit
  1388 ;; This function uses a non-reentrant model
  1389 ;;
  1390                           
  1391                           
  1392                           ;psect for function _LEDInit
  1393  153B                     _LEDInit:
  1394  153B                     l2631:	
  1395                           ;incstack = 0
  1396                           ; Regs used in _LEDInit: []
  1397                           
  1398                           
  1399                           ;./Init.h: 47:     TRISB1 = 0x00;
  1400  153B  1683               	bsf	3,5	;RP0=1, select bank1
  1401  153C  1303               	bcf	3,6	;RP1=0, select bank1
  1402  153D  1086               	bcf	6,1	;volatile
  1403  153E                     l176:
  1404  153E  0008               	return
  1405  153F                     __end_of_LEDInit:
  1406                           
  1407                           	psect	text7
  1408  1571                     __ptext7:	
  1409 ;; *************** function _ElementInit *****************
  1410 ;; Defined at:
  1411 ;;		line 62 in file "./Init.h"
  1412 ;; Parameters:    Size  Location     Type
  1413 ;;		None
  1414 ;; Auto vars:     Size  Location     Type
  1415 ;;		None
  1416 ;; Return value:  Size  Location     Type
  1417 ;;                  1    wreg      void 
  1418 ;; Registers used:
  1419 ;;		None
  1420 ;; Tracked objects:
  1421 ;;		On entry : 0/0
  1422 ;;		On exit  : 0/0
  1423 ;;		Unchanged: 0/0
  1424 ;; Data sizes:     COMMON   BANK0   BANK1   BANK3   BANK2
  1425 ;;      Params:         0       0       0       0       0
  1426 ;;      Locals:         0       0       0       0       0
  1427 ;;      Temps:          0       0       0       0       0
  1428 ;;      Totals:         0       0       0       0       0
  1429 ;;Total ram usage:        0 bytes
  1430 ;; Hardware stack levels used:    1
  1431 ;; Hardware stack levels required when called:    4
  1432 ;; This function calls:
  1433 ;;		Nothing
  1434 ;; This function is called by:
  1435 ;;		_SysInit
  1436 ;; This function uses a non-reentrant model
  1437 ;;
  1438                           
  1439                           
  1440                           ;psect for function _ElementInit
  1441  1571                     _ElementInit:
  1442  1571                     l2647:	
  1443                           ;incstack = 0
  1444                           ; Regs used in _ElementInit: []
  1445                           
  1446                           
  1447                           ;./Init.h: 63:     TRISC5 = 0x00;
  1448  1571  1683               	bsf	3,5	;RP0=1, select bank1
  1449  1572  1303               	bcf	3,6	;RP1=0, select bank1
  1450  1573  1287               	bcf	7,5	;volatile
  1451                           
  1452                           ;./Init.h: 64:     TRISC2 = 0x00;
  1453  1574  1107               	bcf	7,2	;volatile
  1454                           
  1455                           ;./Init.h: 65:     PORTCbits.RC5 = 0;
  1456  1575  1283               	bcf	3,5	;RP0=0, select bank0
  1457  1576  1303               	bcf	3,6	;RP1=0, select bank0
  1458  1577  1287               	bcf	7,5	;volatile
  1459                           
  1460                           ;./Init.h: 66:     PORTCbits.RC2 = 0;
  1461  1578  1107               	bcf	7,2	;volatile
  1462  1579                     l185:
  1463  1579  0008               	return
  1464  157A                     __end_of_ElementInit:
  1465                           
  1466                           	psect	text8
  1467  153F                     __ptext8:	
  1468 ;; *************** function _ButtonsInit *****************
  1469 ;; Defined at:
  1470 ;;		line 41 in file "./Init.h"
  1471 ;; Parameters:    Size  Location     Type
  1472 ;;		None
  1473 ;; Auto vars:     Size  Location     Type
  1474 ;;		None
  1475 ;; Return value:  Size  Location     Type
  1476 ;;                  1    wreg      void 
  1477 ;; Registers used:
  1478 ;;		None
  1479 ;; Tracked objects:
  1480 ;;		On entry : 0/0
  1481 ;;		On exit  : 0/0
  1482 ;;		Unchanged: 0/0
  1483 ;; Data sizes:     COMMON   BANK0   BANK1   BANK3   BANK2
  1484 ;;      Params:         0       0       0       0       0
  1485 ;;      Locals:         0       0       0       0       0
  1486 ;;      Temps:          0       0       0       0       0
  1487 ;;      Totals:         0       0       0       0       0
  1488 ;;Total ram usage:        0 bytes
  1489 ;; Hardware stack levels used:    1
  1490 ;; Hardware stack levels required when called:    4
  1491 ;; This function calls:
  1492 ;;		Nothing
  1493 ;; This function is called by:
  1494 ;;		_SysInit
  1495 ;; This function uses a non-reentrant model
  1496 ;;
  1497                           
  1498                           
  1499                           ;psect for function _ButtonsInit
  1500  153F                     _ButtonsInit:
  1501  153F                     l2629:	
  1502                           ;incstack = 0
  1503                           ; Regs used in _ButtonsInit: []
  1504                           
  1505                           
  1506                           ;./Init.h: 42:     TRISB0 = 0x01;
  1507  153F  1683               	bsf	3,5	;RP0=1, select bank1
  1508  1540  1303               	bcf	3,6	;RP1=0, select bank1
  1509  1541  1406               	bsf	6,0	;volatile
  1510                           
  1511                           ;./Init.h: 43:     TRISB4 = 0x01;
  1512  1542  1606               	bsf	6,4	;volatile
  1513                           
  1514                           ;./Init.h: 44:     TRISB5 = 0x01;
  1515  1543  1686               	bsf	6,5	;volatile
  1516  1544                     l173:
  1517  1544  0008               	return
  1518  1545                     __end_of_ButtonsInit:
  1519                           
  1520                           	psect	text9
  1521  0A6A                     __ptext9:	
  1522 ;; *************** function _SettingMode *****************
  1523 ;; Defined at:
  1524 ;;		line 116 in file "./Temperature.h"
  1525 ;; Parameters:    Size  Location     Type
  1526 ;;		None
  1527 ;; Auto vars:     Size  Location     Type
  1528 ;;  z               2   35[BANK1 ] int 
  1529 ;;  k               2   39[BANK1 ] int 
  1530 ;;  y               2   37[BANK1 ] int 
  1531 ;; Return value:  Size  Location     Type
  1532 ;;                  1    wreg      void 
  1533 ;; Registers used:
  1534 ;;		wreg, fsr0l, fsr0h, status,2, status,0, btemp+1, pclath, cstack
  1535 ;; Tracked objects:
  1536 ;;		On entry : 0/0
  1537 ;;		On exit  : 0/0
  1538 ;;		Unchanged: 0/0
  1539 ;; Data sizes:     COMMON   BANK0   BANK1   BANK3   BANK2
  1540 ;;      Params:         0       0       0       0       0
  1541 ;;      Locals:         0       0       6       0       0
  1542 ;;      Temps:          0       0       3       0       0
  1543 ;;      Totals:         0       0       9       0       0
  1544 ;;Total ram usage:        9 bytes
  1545 ;; Hardware stack levels used:    1
  1546 ;; Hardware stack levels required when called:    9
  1547 ;; This function calls:
  1548 ;;		_HeatingCoolingElement
  1549 ;;		_TempDisplay
  1550 ;;		_TempSet
  1551 ;; This function is called by:
  1552 ;;		_main
  1553 ;; This function uses a non-reentrant model
  1554 ;;
  1555                           
  1556                           
  1557                           ;psect for function _SettingMode
  1558  0A6A                     _SettingMode:
  1559  0A6A                     l2989:	
  1560                           ;incstack = 0
  1561 ;; hardware stack exceeded
  1562                           ; Regs used in _SettingMode: [wreg-fsr0h+status,2+status,0+btemp+1+pclath+cstack]
  1563                           
  1564                           
  1565                           ;./Temperature.h: 117:     GIE = 0;
  1566  0A6A  138B               	bcf	11,7	;volatile
  1567                           
  1568                           ;./Temperature.h: 118:     PORTCbits.RC5 = 0,
  1569  0A6B  1283               	bcf	3,5	;RP0=0, select bank0
  1570  0A6C  1303               	bcf	3,6	;RP1=0, select bank0
  1571  0A6D  1287               	bcf	7,5	;volatile
  1572  0A6E  1107               	bcf	7,2	;volatile
  1573  0A6F                     l2991:
  1574                           
  1575                           ;./Temperature.h: 120:     TempDisplay();
  1576  0A6F  120A  118A  26EC  120A  158A  	fcall	_TempDisplay
  1577  0A74                     l2993:
  1578                           
  1579                           ;./Temperature.h: 121:     _delay((unsigned long)((10)*(20000000/4000.0)));
  1580  0A74  3041               	movlw	65
  1581  0A75  1683               	bsf	3,5	;RP0=1, select bank1
  1582  0A76  1303               	bcf	3,6	;RP1=0, select bank1
  1583  0A77  00C1               	movwf	(??_SettingMode^(0+128)+1)
  1584  0A78  30ED               	movlw	237
  1585  0A79  00C0               	movwf	??_SettingMode^(0+128)
  1586  0A7A                     u4117:
  1587  0A7A  0BC0               	decfsz	??_SettingMode^(0+128),f
  1588  0A7B  2A7A               	goto	u4117
  1589  0A7C  0BC1               	decfsz	(??_SettingMode^(0+128)+1),f
  1590  0A7D  2A7A               	goto	u4117
  1591  0A7E  2A7F               	nop2
  1592  0A7F                     l2995:
  1593                           
  1594                           ;./Temperature.h: 122:     int y = 0;
  1595  0A7F  1683               	bsf	3,5	;RP0=1, select bank1
  1596  0A80  1303               	bcf	3,6	;RP1=0, select bank1
  1597  0A81  01C5               	clrf	SettingMode@y^(0+128)
  1598  0A82  01C6               	clrf	(SettingMode@y+1)^(0+128)
  1599                           
  1600                           ;./Temperature.h: 124:     while(y<5){
  1601  0A83  2ACD               	goto	l3021
  1602  0A84                     l2997:
  1603                           
  1604                           ;./Temperature.h: 125:         for(int k= 0;k<100;k++ ){
  1605  0A84  1683               	bsf	3,5	;RP0=1, select bank1
  1606  0A85  1303               	bcf	3,6	;RP1=0, select bank1
  1607  0A86  01C7               	clrf	SettingMode@k^(0+128)
  1608  0A87  01C8               	clrf	(SettingMode@k+1)^(0+128)
  1609  0A88                     l3003:
  1610                           
  1611                           ;./Temperature.h: 126:             TempDisplay();
  1612  0A88  120A  118A  26EC  120A  158A  	fcall	_TempDisplay
  1613  0A8D                     l3005:
  1614                           
  1615                           ;./Temperature.h: 127:             int z = TempSet();
  1616  0A8D  120A  158A  22E1  120A  158A  	fcall	_TempSet
  1617  0A92  1683               	bsf	3,5	;RP0=1, select bank1
  1618  0A93  1303               	bcf	3,6	;RP1=0, select bank1
  1619  0A94  0825               	movf	(?_TempSet+1)^(0+128),w
  1620  0A95  00C4               	movwf	(SettingMode@z+1)^(0+128)
  1621  0A96  0824               	movf	?_TempSet^(0+128),w
  1622  0A97  00C3               	movwf	SettingMode@z^(0+128)
  1623  0A98                     l3007:
  1624                           
  1625                           ;./Temperature.h: 128:             if(z)
  1626  0A98  0843               	movf	SettingMode@z^(0+128),w
  1627  0A99  0444               	iorwf	(SettingMode@z+1)^(0+128),w
  1628  0A9A  1903               	btfsc	3,2
  1629  0A9B  2A9D               	goto	u4001
  1630  0A9C  2A9E               	goto	u4000
  1631  0A9D                     u4001:
  1632  0A9D  2AA0               	goto	l3011
  1633  0A9E                     u4000:
  1634  0A9E                     l3009:
  1635                           
  1636                           ;./Temperature.h: 129:                 y=0;
  1637  0A9E  01C5               	clrf	SettingMode@y^(0+128)
  1638  0A9F  01C6               	clrf	(SettingMode@y+1)^(0+128)
  1639  0AA0                     l3011:
  1640                           
  1641                           ;./Temperature.h: 130:         }
  1642  0AA0  3001               	movlw	1
  1643  0AA1  07C7               	addwf	SettingMode@k^(0+128),f
  1644  0AA2  1803               	skipnc
  1645  0AA3  0AC8               	incf	(SettingMode@k+1)^(0+128),f
  1646  0AA4  3000               	movlw	0
  1647  0AA5  07C8               	addwf	(SettingMode@k+1)^(0+128),f
  1648  0AA6                     l3013:
  1649  0AA6  0848               	movf	(SettingMode@k+1)^(0+128),w
  1650  0AA7  3A80               	xorlw	128
  1651  0AA8  00FF               	movwf	btemp+1
  1652  0AA9  3080               	movlw	128
  1653  0AAA  027F               	subwf	btemp+1,w
  1654  0AAB  1D03               	skipz
  1655  0AAC  2AAF               	goto	u4015
  1656  0AAD  3064               	movlw	100
  1657  0AAE  0247               	subwf	SettingMode@k^(0+128),w
  1658  0AAF                     u4015:
  1659  0AAF  1C03               	skipc
  1660  0AB0  2AB2               	goto	u4011
  1661  0AB1  2AB3               	goto	u4010
  1662  0AB2                     u4011:
  1663  0AB2  2A88               	goto	l3003
  1664  0AB3                     u4010:
  1665  0AB3                     l3015:
  1666                           
  1667                           ;./Temperature.h: 131:         _delay((unsigned long)((100)*(20000000/4000.0)));
  1668  0AB3  3003               	movlw	3
  1669  0AB4  1683               	bsf	3,5	;RP0=1, select bank1
  1670  0AB5  1303               	bcf	3,6	;RP1=0, select bank1
  1671  0AB6  00C2               	movwf	(??_SettingMode^(0+128)+2)
  1672  0AB7  308A               	movlw	138
  1673  0AB8  00C1               	movwf	(??_SettingMode^(0+128)+1)
  1674  0AB9  3055               	movlw	85
  1675  0ABA  00C0               	movwf	??_SettingMode^(0+128)
  1676  0ABB                     u4127:
  1677  0ABB  0BC0               	decfsz	??_SettingMode^(0+128),f
  1678  0ABC  2ABB               	goto	u4127
  1679  0ABD  0BC1               	decfsz	(??_SettingMode^(0+128)+1),f
  1680  0ABE  2ABB               	goto	u4127
  1681  0ABF  0BC2               	decfsz	(??_SettingMode^(0+128)+2),f
  1682  0AC0  2ABB               	goto	u4127
  1683  0AC1                     l3017:
  1684                           
  1685                           ;./Temperature.h: 132:         RA4 = 0;
  1686  0AC1  1283               	bcf	3,5	;RP0=0, select bank0
  1687  0AC2  1303               	bcf	3,6	;RP1=0, select bank0
  1688  0AC3  1205               	bcf	5,4	;volatile
  1689  0AC4                     l3019:
  1690                           
  1691                           ;./Temperature.h: 133:         RA5 = 0;
  1692  0AC4  1285               	bcf	5,5	;volatile
  1693                           
  1694                           ;./Temperature.h: 134:         y++;
  1695  0AC5  3001               	movlw	1
  1696  0AC6  1683               	bsf	3,5	;RP0=1, select bank1
  1697  0AC7  1303               	bcf	3,6	;RP1=0, select bank1
  1698  0AC8  07C5               	addwf	SettingMode@y^(0+128),f
  1699  0AC9  1803               	skipnc
  1700  0ACA  0AC6               	incf	(SettingMode@y+1)^(0+128),f
  1701  0ACB  3000               	movlw	0
  1702  0ACC  07C6               	addwf	(SettingMode@y+1)^(0+128),f
  1703  0ACD                     l3021:
  1704                           
  1705                           ;./Temperature.h: 124:     while(y<5){
  1706  0ACD  0846               	movf	(SettingMode@y+1)^(0+128),w
  1707  0ACE  3A80               	xorlw	128
  1708  0ACF  00FF               	movwf	btemp+1
  1709  0AD0  3080               	movlw	128
  1710  0AD1  027F               	subwf	btemp+1,w
  1711  0AD2  1D03               	skipz
  1712  0AD3  2AD6               	goto	u4025
  1713  0AD4  3005               	movlw	5
  1714  0AD5  0245               	subwf	SettingMode@y^(0+128),w
  1715  0AD6                     u4025:
  1716  0AD6  1C03               	skipc
  1717  0AD7  2AD9               	goto	u4021
  1718  0AD8  2ADA               	goto	u4020
  1719  0AD9                     u4021:
  1720  0AD9  2A84               	goto	l2997
  1721  0ADA                     u4020:
  1722  0ADA                     l270:
  1723                           
  1724                           ;./Temperature.h: 136:     GIE = 1;
  1725  0ADA  178B               	bsf	11,7	;volatile
  1726  0ADB                     l3023:
  1727                           
  1728                           ;./Temperature.h: 137:      HeatingCoolingElement();
  1729  0ADB  120A  158A  2061  120A  158A  	fcall	_HeatingCoolingElement
  1730  0AE0                     l271:
  1731  0AE0  0008               	return
  1732  0AE1                     __end_of_SettingMode:
  1733                           
  1734                           	psect	text10
  1735  0AE1                     __ptext10:	
  1736 ;; *************** function _TempSet *****************
  1737 ;; Defined at:
  1738 ;;		line 64 in file "./Temperature.h"
  1739 ;; Parameters:    Size  Location     Type
  1740 ;;		None
  1741 ;; Auto vars:     Size  Location     Type
  1742 ;;		None
  1743 ;; Return value:  Size  Location     Type
  1744 ;;                  2    4[BANK1 ] int 
  1745 ;; Registers used:
  1746 ;;		wreg, status,2, status,0
  1747 ;; Tracked objects:
  1748 ;;		On entry : 0/0
  1749 ;;		On exit  : 0/0
  1750 ;;		Unchanged: 0/0
  1751 ;; Data sizes:     COMMON   BANK0   BANK1   BANK3   BANK2
  1752 ;;      Params:         0       0       2       0       0
  1753 ;;      Locals:         0       0       0       0       0
  1754 ;;      Temps:          0       0       2       0       0
  1755 ;;      Totals:         0       0       4       0       0
  1756 ;;Total ram usage:        4 bytes
  1757 ;; Hardware stack levels used:    1
  1758 ;; Hardware stack levels required when called:    4
  1759 ;; This function calls:
  1760 ;;		Nothing
  1761 ;; This function is called by:
  1762 ;;		_SettingMode
  1763 ;; This function uses a non-reentrant model
  1764 ;;
  1765                           
  1766                           
  1767                           ;psect for function _TempSet
  1768  0AE1                     _TempSet:
  1769  0AE1                     l2711:	
  1770                           ;incstack = 0
  1771                           ; Regs used in _TempSet: [wreg+status,2+status,0]
  1772                           
  1773                           
  1774                           ;./Temperature.h: 65:     if(PORTBbits.RB4 == 0){
  1775  0AE1  1283               	bcf	3,5	;RP0=0, select bank0
  1776  0AE2  1303               	bcf	3,6	;RP1=0, select bank0
  1777  0AE3  1A06               	btfsc	6,4	;volatile
  1778  0AE4  2AE6               	goto	u3441
  1779  0AE5  2AE7               	goto	u3440
  1780  0AE6                     u3441:
  1781  0AE6  2B24               	goto	l240
  1782  0AE7                     u3440:
  1783  0AE7                     l2713:
  1784                           
  1785                           ;./Temperature.h: 66:         _delay((unsigned long)((5)*(20000000/4000.0)));
  1786  0AE7  3021               	movlw	33
  1787  0AE8  1683               	bsf	3,5	;RP0=1, select bank1
  1788  0AE9  1303               	bcf	3,6	;RP1=0, select bank1
  1789  0AEA  00A7               	movwf	(??_TempSet^(0+128)+1)
  1790  0AEB  3075               	movlw	117
  1791  0AEC  00A6               	movwf	??_TempSet^(0+128)
  1792  0AED                     u4137:
  1793  0AED  0BA6               	decfsz	??_TempSet^(0+128),f
  1794  0AEE  2AED               	goto	u4137
  1795  0AEF  0BA7               	decfsz	(??_TempSet^(0+128)+1),f
  1796  0AF0  2AED               	goto	u4137
  1797  0AF1  2AF2               	nop2
  1798                           
  1799                           ;./Temperature.h: 67:         if(Temp < 75){
  1800  0AF2  3000               	movlw	0
  1801  0AF3  1683               	bsf	3,5	;RP0=1, select bank1
  1802  0AF4  1303               	bcf	3,6	;RP1=0, select bank1
  1803  0AF5  0268               	subwf	(_Temp+1)^(0+128),w
  1804  0AF6  304B               	movlw	75
  1805  0AF7  1903               	skipnz
  1806  0AF8  0267               	subwf	_Temp^(0+128),w
  1807  0AF9  1803               	skipnc
  1808  0AFA  2AFC               	goto	u3451
  1809  0AFB  2AFD               	goto	u3450
  1810  0AFC                     u3451:
  1811  0AFC  2B1D               	goto	l2721
  1812  0AFD                     u3450:
  1813  0AFD                     l2715:
  1814                           
  1815                           ;./Temperature.h: 68:             _delay((unsigned long)((5)*(20000000/4000.0)));
  1816  0AFD  3021               	movlw	33
  1817  0AFE  1683               	bsf	3,5	;RP0=1, select bank1
  1818  0AFF  1303               	bcf	3,6	;RP1=0, select bank1
  1819  0B00  00A7               	movwf	(??_TempSet^(0+128)+1)
  1820  0B01  3075               	movlw	117
  1821  0B02  00A6               	movwf	??_TempSet^(0+128)
  1822  0B03                     u4147:
  1823  0B03  0BA6               	decfsz	??_TempSet^(0+128),f
  1824  0B04  2B03               	goto	u4147
  1825  0B05  0BA7               	decfsz	(??_TempSet^(0+128)+1),f
  1826  0B06  2B03               	goto	u4147
  1827  0B07  2B08               	nop2
  1828  0B08                     l2717:
  1829                           
  1830                           ;./Temperature.h: 69:             Temp = Temp + 5;
  1831  0B08  1683               	bsf	3,5	;RP0=1, select bank1
  1832  0B09  1303               	bcf	3,6	;RP1=0, select bank1
  1833  0B0A  0867               	movf	_Temp^(0+128),w
  1834  0B0B  3E05               	addlw	5
  1835  0B0C  00E7               	movwf	_Temp^(0+128)
  1836  0B0D  0868               	movf	(_Temp+1)^(0+128),w
  1837  0B0E  1803               	skipnc
  1838  0B0F  3E01               	addlw	1
  1839  0B10  3E00               	addlw	0
  1840  0B11  00E8               	movwf	(_Temp+1)^(0+128)
  1841  0B12                     l2719:
  1842                           
  1843                           ;./Temperature.h: 70:             _delay((unsigned long)((5)*(20000000/4000.0)));
  1844  0B12  3021               	movlw	33
  1845  0B13  1683               	bsf	3,5	;RP0=1, select bank1
  1846  0B14  1303               	bcf	3,6	;RP1=0, select bank1
  1847  0B15  00A7               	movwf	(??_TempSet^(0+128)+1)
  1848  0B16  3075               	movlw	117
  1849  0B17  00A6               	movwf	??_TempSet^(0+128)
  1850  0B18                     u4157:
  1851  0B18  0BA6               	decfsz	??_TempSet^(0+128),f
  1852  0B19  2B18               	goto	u4157
  1853  0B1A  0BA7               	decfsz	(??_TempSet^(0+128)+1),f
  1854  0B1B  2B18               	goto	u4157
  1855  0B1C  2B1D               	nop2
  1856  0B1D                     l2721:
  1857                           
  1858                           ;./Temperature.h: 72:         return 1;
  1859  0B1D  3001               	movlw	1
  1860  0B1E  1683               	bsf	3,5	;RP0=1, select bank1
  1861  0B1F  1303               	bcf	3,6	;RP1=0, select bank1
  1862  0B20  00A4               	movwf	?_TempSet^(0+128)
  1863  0B21  3000               	movlw	0
  1864  0B22  00A5               	movwf	(?_TempSet^(0+128)+1)
  1865  0B23  2B58               	goto	l242
  1866  0B24                     l240:	
  1867                           ;./Temperature.h: 73:     }
  1868                           
  1869                           
  1870                           ;./Temperature.h: 74:     if(PORTBbits.RB5 == 0){
  1871  0B24  1A86               	btfsc	6,5	;volatile
  1872  0B25  2B27               	goto	u3461
  1873  0B26  2B28               	goto	u3460
  1874  0B27                     u3461:
  1875  0B27  2B54               	goto	l2737
  1876  0B28                     u3460:
  1877  0B28                     l2725:
  1878                           
  1879                           ;./Temperature.h: 75:         _delay((unsigned long)((5)*(20000000/4000.0)));
  1880  0B28  3021               	movlw	33
  1881  0B29  1683               	bsf	3,5	;RP0=1, select bank1
  1882  0B2A  1303               	bcf	3,6	;RP1=0, select bank1
  1883  0B2B  00A7               	movwf	(??_TempSet^(0+128)+1)
  1884  0B2C  3075               	movlw	117
  1885  0B2D  00A6               	movwf	??_TempSet^(0+128)
  1886  0B2E                     u4167:
  1887  0B2E  0BA6               	decfsz	??_TempSet^(0+128),f
  1888  0B2F  2B2E               	goto	u4167
  1889  0B30  0BA7               	decfsz	(??_TempSet^(0+128)+1),f
  1890  0B31  2B2E               	goto	u4167
  1891  0B32  2B33               	nop2
  1892                           
  1893                           ;./Temperature.h: 76:         if(Temp > 35){
  1894  0B33  3000               	movlw	0
  1895  0B34  1683               	bsf	3,5	;RP0=1, select bank1
  1896  0B35  1303               	bcf	3,6	;RP1=0, select bank1
  1897  0B36  0268               	subwf	(_Temp+1)^(0+128),w
  1898  0B37  3024               	movlw	36
  1899  0B38  1903               	skipnz
  1900  0B39  0267               	subwf	_Temp^(0+128),w
  1901  0B3A  1C03               	skipc
  1902  0B3B  2B3D               	goto	u3471
  1903  0B3C  2B3E               	goto	u3470
  1904  0B3D                     u3471:
  1905  0B3D  2B1D               	goto	l2721
  1906  0B3E                     u3470:
  1907  0B3E                     l2727:
  1908                           
  1909                           ;./Temperature.h: 77:             _delay((unsigned long)((5)*(20000000/4000.0)));
  1910  0B3E  3021               	movlw	33
  1911  0B3F  1683               	bsf	3,5	;RP0=1, select bank1
  1912  0B40  1303               	bcf	3,6	;RP1=0, select bank1
  1913  0B41  00A7               	movwf	(??_TempSet^(0+128)+1)
  1914  0B42  3075               	movlw	117
  1915  0B43  00A6               	movwf	??_TempSet^(0+128)
  1916  0B44                     u4177:
  1917  0B44  0BA6               	decfsz	??_TempSet^(0+128),f
  1918  0B45  2B44               	goto	u4177
  1919  0B46  0BA7               	decfsz	(??_TempSet^(0+128)+1),f
  1920  0B47  2B44               	goto	u4177
  1921  0B48  2B49               	nop2
  1922  0B49                     l2729:
  1923                           
  1924                           ;./Temperature.h: 78:             Temp = Temp - 5;
  1925  0B49  1683               	bsf	3,5	;RP0=1, select bank1
  1926  0B4A  1303               	bcf	3,6	;RP1=0, select bank1
  1927  0B4B  0867               	movf	_Temp^(0+128),w
  1928  0B4C  3EFB               	addlw	251
  1929  0B4D  00E7               	movwf	_Temp^(0+128)
  1930  0B4E  0868               	movf	(_Temp+1)^(0+128),w
  1931  0B4F  1803               	skipnc
  1932  0B50  3E01               	addlw	1
  1933  0B51  3EFF               	addlw	255
  1934  0B52  00E8               	movwf	(_Temp+1)^(0+128)
  1935  0B53  2B12               	goto	l2719
  1936  0B54                     l2737:
  1937                           
  1938                           ;./Temperature.h: 83:     return 0;
  1939  0B54  1683               	bsf	3,5	;RP0=1, select bank1
  1940  0B55  1303               	bcf	3,6	;RP1=0, select bank1
  1941  0B56  01A4               	clrf	?_TempSet^(0+128)
  1942  0B57  01A5               	clrf	(?_TempSet+1)^(0+128)
  1943  0B58                     l242:
  1944  0B58  0008               	return
  1945  0B59                     __end_of_TempSet:
  1946                           
  1947                           	psect	text11
  1948  06EC                     __ptext11:	
  1949 ;; *************** function _TempDisplay *****************
  1950 ;; Defined at:
  1951 ;;		line 31 in file "./Temperature.h"
  1952 ;; Parameters:    Size  Location     Type
  1953 ;;		None
  1954 ;; Auto vars:     Size  Location     Type
  1955 ;;  b               2   30[BANK1 ] unsigned int 
  1956 ;;  a               2   28[BANK1 ] unsigned int 
  1957 ;; Return value:  Size  Location     Type
  1958 ;;                  1    wreg      void 
  1959 ;; Registers used:
  1960 ;;		wreg, fsr0l, fsr0h, status,2, status,0, btemp+1, pclath, cstack
  1961 ;; Tracked objects:
  1962 ;;		On entry : 0/0
  1963 ;;		On exit  : 0/0
  1964 ;;		Unchanged: 0/0
  1965 ;; Data sizes:     COMMON   BANK0   BANK1   BANK3   BANK2
  1966 ;;      Params:         0       0       0       0       0
  1967 ;;      Locals:         0       0       4       0       0
  1968 ;;      Temps:          0       0       2       0       0
  1969 ;;      Totals:         0       0       6       0       0
  1970 ;;Total ram usage:        6 bytes
  1971 ;; Hardware stack levels used:    1
  1972 ;; Hardware stack levels required when called:    8
  1973 ;; This function calls:
  1974 ;;		_FetchTemp
  1975 ;;		_SaveTemp
  1976 ;;		___lwdiv
  1977 ;;		___lwmod
  1978 ;; This function is called by:
  1979 ;;		_SettingMode
  1980 ;; This function uses a non-reentrant model
  1981 ;;
  1982                           
  1983                           
  1984                           ;psect for function _TempDisplay
  1985  06EC                     _TempDisplay:
  1986  06EC                     l2685:	
  1987                           ;incstack = 0
  1988 ;; hardware stack exceeded
  1989                           ; Regs used in _TempDisplay: [wreg-fsr0h+status,2+status,0+btemp+1+pclath+cstack]
  1990                           
  1991                           
  1992                           ;./Temperature.h: 32:     unsigned int a,b;;./Temperature.h: 33:     if(s==0){
  1993  06EC  1683               	bsf	3,5	;RP0=1, select bank1
  1994  06ED  1303               	bcf	3,6	;RP1=0, select bank1
  1995  06EE  084F               	movf	_s^(0+128),w
  1996  06EF  0450               	iorwf	(_s+1)^(0+128),w
  1997  06F0  1D03               	btfss	3,2
  1998  06F1  2EF3               	goto	u3431
  1999  06F2  2EF4               	goto	u3430
  2000  06F3                     u3431:
  2001  06F3  2EFF               	goto	l2691
  2002  06F4                     u3430:
  2003  06F4                     l2687:
  2004                           
  2005                           ;./Temperature.h: 34:         SaveTemp();
  2006  06F4  160A  118A  263C  120A  118A  	fcall	_SaveTemp
  2007  06F9                     l2689:
  2008                           
  2009                           ;./Temperature.h: 35:         s = 1;
  2010  06F9  3001               	movlw	1
  2011  06FA  1683               	bsf	3,5	;RP0=1, select bank1
  2012  06FB  1303               	bcf	3,6	;RP1=0, select bank1
  2013  06FC  00CF               	movwf	_s^(0+128)
  2014  06FD  3000               	movlw	0
  2015  06FE  00D0               	movwf	(_s^(0+128)+1)
  2016  06FF                     l2691:
  2017                           
  2018                           ;./Temperature.h: 37:     FetchTemp();
  2019  06FF  160A  118A  25C5  120A  118A  	fcall	_FetchTemp
  2020  0704                     l2693:
  2021                           
  2022                           ;./Temperature.h: 38:     a = ((Temp/10)%10);
  2023  0704  300A               	movlw	10
  2024  0705  1683               	bsf	3,5	;RP0=1, select bank1
  2025  0706  1303               	bcf	3,6	;RP1=0, select bank1
  2026  0707  00AB               	movwf	___lwmod@divisor^(0+128)
  2027  0708  3000               	movlw	0
  2028  0709  00AC               	movwf	(___lwmod@divisor^(0+128)+1)
  2029  070A  300A               	movlw	10
  2030  070B  00A4               	movwf	___lwdiv@divisor^(0+128)
  2031  070C  3000               	movlw	0
  2032  070D  00A5               	movwf	(___lwdiv@divisor^(0+128)+1)
  2033  070E  0868               	movf	(_Temp+1)^(0+128),w
  2034  070F  00A7               	movwf	(___lwdiv@dividend+1)^(0+128)
  2035  0710  0867               	movf	_Temp^(0+128),w
  2036  0711  00A6               	movwf	___lwdiv@dividend^(0+128)
  2037  0712  160A  118A  2757  120A  118A  	fcall	___lwdiv
  2038  0717  1683               	bsf	3,5	;RP0=1, select bank1
  2039  0718  1303               	bcf	3,6	;RP1=0, select bank1
  2040  0719  0825               	movf	(?___lwdiv+1)^(0+128),w
  2041  071A  00AE               	movwf	(___lwmod@dividend+1)^(0+128)
  2042  071B  0824               	movf	?___lwdiv^(0+128),w
  2043  071C  00AD               	movwf	___lwmod@dividend^(0+128)
  2044  071D  160A  118A  271B  120A  118A  	fcall	___lwmod
  2045  0722  1683               	bsf	3,5	;RP0=1, select bank1
  2046  0723  1303               	bcf	3,6	;RP1=0, select bank1
  2047  0724  082C               	movf	(?___lwmod+1)^(0+128),w
  2048  0725  00BD               	movwf	(TempDisplay@a+1)^(0+128)
  2049  0726  082B               	movf	?___lwmod^(0+128),w
  2050  0727  00BC               	movwf	TempDisplay@a^(0+128)
  2051  0728                     l2695:
  2052                           
  2053                           ;./Temperature.h: 39:     b = (Temp%10);
  2054  0728  300A               	movlw	10
  2055  0729  00AB               	movwf	___lwmod@divisor^(0+128)
  2056  072A  3000               	movlw	0
  2057  072B  00AC               	movwf	(___lwmod@divisor^(0+128)+1)
  2058  072C  0868               	movf	(_Temp+1)^(0+128),w
  2059  072D  00AE               	movwf	(___lwmod@dividend+1)^(0+128)
  2060  072E  0867               	movf	_Temp^(0+128),w
  2061  072F  00AD               	movwf	___lwmod@dividend^(0+128)
  2062  0730  160A  118A  271B  120A  118A  	fcall	___lwmod
  2063  0735  1683               	bsf	3,5	;RP0=1, select bank1
  2064  0736  1303               	bcf	3,6	;RP1=0, select bank1
  2065  0737  082C               	movf	(?___lwmod+1)^(0+128),w
  2066  0738  00BF               	movwf	(TempDisplay@b+1)^(0+128)
  2067  0739  082B               	movf	?___lwmod^(0+128),w
  2068  073A  00BE               	movwf	TempDisplay@b^(0+128)
  2069  073B                     l2697:
  2070                           
  2071                           ;./Temperature.h: 41:     RA4 = 1;
  2072  073B  1283               	bcf	3,5	;RP0=0, select bank0
  2073  073C  1303               	bcf	3,6	;RP1=0, select bank0
  2074  073D  1605               	bsf	5,4	;volatile
  2075  073E                     l2699:
  2076                           
  2077                           ;./Temperature.h: 42:     PORTD = binary_pattern[a];
  2078  073E  1683               	bsf	3,5	;RP0=1, select bank1
  2079  073F  1303               	bcf	3,6	;RP1=0, select bank1
  2080  0740  083C               	movf	TempDisplay@a^(0+128),w
  2081  0741  3EDB               	addlw	(low (_binary_pattern| 0))& (0+255)
  2082  0742  0084               	movwf	4
  2083  0743  1383               	bcf	3,7	;select IRP bank1
  2084  0744  0800               	movf	0,w
  2085  0745  1283               	bcf	3,5	;RP0=0, select bank0
  2086  0746  1303               	bcf	3,6	;RP1=0, select bank0
  2087  0747  0088               	movwf	8	;volatile
  2088  0748                     l2701:
  2089                           
  2090                           ;./Temperature.h: 43:     _delay((unsigned long)((1)*(20000000/4000.0)));
  2091  0748  3007               	movlw	7
  2092  0749  1683               	bsf	3,5	;RP0=1, select bank1
  2093  074A  1303               	bcf	3,6	;RP1=0, select bank1
  2094  074B  00BB               	movwf	(??_TempDisplay^(0+128)+1)
  2095  074C  307C               	movlw	124
  2096  074D  00BA               	movwf	??_TempDisplay^(0+128)
  2097  074E                     u4187:
  2098  074E  0BBA               	decfsz	??_TempDisplay^(0+128),f
  2099  074F  2F4E               	goto	u4187
  2100  0750  0BBB               	decfsz	(??_TempDisplay^(0+128)+1),f
  2101  0751  2F4E               	goto	u4187
  2102  0752  0000               	nop
  2103  0753                     l2703:
  2104                           
  2105                           ;./Temperature.h: 44:     RA4 = 0;
  2106  0753  1283               	bcf	3,5	;RP0=0, select bank0
  2107  0754  1303               	bcf	3,6	;RP1=0, select bank0
  2108  0755  1205               	bcf	5,4	;volatile
  2109  0756                     l2705:
  2110                           
  2111                           ;./Temperature.h: 45:     RA5 = 1;
  2112  0756  1685               	bsf	5,5	;volatile
  2113                           
  2114                           ;./Temperature.h: 46:     PORTD = binary_pattern[b];
  2115  0757  1683               	bsf	3,5	;RP0=1, select bank1
  2116  0758  1303               	bcf	3,6	;RP1=0, select bank1
  2117  0759  083E               	movf	TempDisplay@b^(0+128),w
  2118  075A  3EDB               	addlw	(low (_binary_pattern| 0))& (0+255)
  2119  075B  0084               	movwf	4
  2120  075C  1383               	bcf	3,7	;select IRP bank1
  2121  075D  0800               	movf	0,w
  2122  075E  1283               	bcf	3,5	;RP0=0, select bank0
  2123  075F  1303               	bcf	3,6	;RP1=0, select bank0
  2124  0760  0088               	movwf	8	;volatile
  2125  0761                     l2707:
  2126                           
  2127                           ;./Temperature.h: 47:     _delay((unsigned long)((1)*(20000000/4000.0)));
  2128  0761  3007               	movlw	7
  2129  0762  1683               	bsf	3,5	;RP0=1, select bank1
  2130  0763  1303               	bcf	3,6	;RP1=0, select bank1
  2131  0764  00BB               	movwf	(??_TempDisplay^(0+128)+1)
  2132  0765  307C               	movlw	124
  2133  0766  00BA               	movwf	??_TempDisplay^(0+128)
  2134  0767                     u4197:
  2135  0767  0BBA               	decfsz	??_TempDisplay^(0+128),f
  2136  0768  2F67               	goto	u4197
  2137  0769  0BBB               	decfsz	(??_TempDisplay^(0+128)+1),f
  2138  076A  2F67               	goto	u4197
  2139  076B  0000               	nop
  2140  076C                     l2709:
  2141                           
  2142                           ;./Temperature.h: 48:     RA5 = 0;
  2143  076C  1283               	bcf	3,5	;RP0=0, select bank0
  2144  076D  1303               	bcf	3,6	;RP1=0, select bank0
  2145  076E  1285               	bcf	5,5	;volatile
  2146  076F                     l234:
  2147  076F  0008               	return
  2148  0770                     __end_of_TempDisplay:
  2149                           
  2150                           	psect	text12
  2151  163C                     __ptext12:	
  2152 ;; *************** function _SaveTemp *****************
  2153 ;; Defined at:
  2154 ;;		line 24 in file "./Temperature.h"
  2155 ;; Parameters:    Size  Location     Type
  2156 ;;		None
  2157 ;; Auto vars:     Size  Location     Type
  2158 ;;		None
  2159 ;; Return value:  Size  Location     Type
  2160 ;;                  1    wreg      void 
  2161 ;; Registers used:
  2162 ;;		wreg, fsr0l, fsr0h, status,2, status,0, btemp+1, pclath, cstack
  2163 ;; Tracked objects:
  2164 ;;		On entry : 0/0
  2165 ;;		On exit  : 0/0
  2166 ;;		Unchanged: 0/0
  2167 ;; Data sizes:     COMMON   BANK0   BANK1   BANK3   BANK2
  2168 ;;      Params:         0       0       0       0       0
  2169 ;;      Locals:         0       0       0       0       0
  2170 ;;      Temps:          0       0       0       0       0
  2171 ;;      Totals:         0       0       0       0       0
  2172 ;;Total ram usage:        0 bytes
  2173 ;; Hardware stack levels used:    1
  2174 ;; Hardware stack levels required when called:    7
  2175 ;; This function calls:
  2176 ;;		_EEPROM_Write
  2177 ;;		_I2C_Master_Init
  2178 ;; This function is called by:
  2179 ;;		_TempDisplay
  2180 ;; This function uses a non-reentrant model
  2181 ;;
  2182                           
  2183                           
  2184                           ;psect for function _SaveTemp
  2185  163C                     _SaveTemp:
  2186  163C                     l2115:	
  2187                           ;incstack = 0
  2188 ;; hardware stack exceeded
  2189                           ; Regs used in _SaveTemp: [wreg-fsr0h+status,2+status,0+btemp+1+pclath+cstack]
  2190                           
  2191                           
  2192                           ;./Temperature.h: 25:  I2C_Master_Init(100000);
  2193  163C  3000               	movlw	0
  2194  163D  1683               	bsf	3,5	;RP0=1, select bank1
  2195  163E  1303               	bcf	3,6	;RP1=0, select bank1
  2196  163F  00B5               	movwf	(I2C_Master_Init@baud+3)^(0+128)
  2197  1640  3001               	movlw	1
  2198  1641  00B4               	movwf	(I2C_Master_Init@baud+2)^(0+128)
  2199  1642  3086               	movlw	134
  2200  1643  00B3               	movwf	(I2C_Master_Init@baud+1)^(0+128)
  2201  1644  30A0               	movlw	160
  2202  1645  00B2               	movwf	I2C_Master_Init@baud^(0+128)
  2203  1646  160A  118A  26AA  160A  118A  	fcall	_I2C_Master_Init
  2204  164B                     l2117:
  2205                           
  2206                           ;./Temperature.h: 26:     EEPROM_Write(Address, Temp, 2);
  2207  164B  3020               	movlw	32
  2208  164C  1683               	bsf	3,5	;RP0=1, select bank1
  2209  164D  1303               	bcf	3,6	;RP1=0, select bank1
  2210  164E  00A5               	movwf	EEPROM_Write@add^(0+128)
  2211  164F  3000               	movlw	0
  2212  1650  00A6               	movwf	(EEPROM_Write@add^(0+128)+1)
  2213  1651  0867               	movf	_Temp^(0+128),w
  2214  1652  00A7               	movwf	EEPROM_Write@data^(0+128)
  2215  1653  0868               	movf	(_Temp+1)^(0+128),w
  2216  1654  00A8               	movwf	(EEPROM_Write@data+1)^(0+128)
  2217  1655  3002               	movlw	2
  2218  1656  00FF               	movwf	btemp+1
  2219  1657  087F               	movf	btemp+1,w
  2220  1658  00A9               	movwf	EEPROM_Write@len^(0+128)
  2221  1659  120A  158A  2008  160A  118A  	fcall	_EEPROM_Write
  2222  165E                     l227:
  2223  165E  0008               	return
  2224  165F                     __end_of_SaveTemp:
  2225                           
  2226                           	psect	text13
  2227  16AA                     __ptext13:	
  2228 ;; *************** function _I2C_Master_Init *****************
  2229 ;; Defined at:
  2230 ;;		line 23 in file "./I2C_EEPROM.h"
  2231 ;; Parameters:    Size  Location     Type
  2232 ;;  baud            4   18[BANK1 ] const unsigned long 
  2233 ;; Auto vars:     Size  Location     Type
  2234 ;;		None
  2235 ;; Return value:  Size  Location     Type
  2236 ;;                  1    wreg      void 
  2237 ;; Registers used:
  2238 ;;		wreg, status,2, status,0, btemp+1, pclath, cstack
  2239 ;; Tracked objects:
  2240 ;;		On entry : 0/0
  2241 ;;		On exit  : 0/0
  2242 ;;		Unchanged: 0/0
  2243 ;; Data sizes:     COMMON   BANK0   BANK1   BANK3   BANK2
  2244 ;;      Params:         0       0       4       0       0
  2245 ;;      Locals:         0       0       0       0       0
  2246 ;;      Temps:          0       0       4       0       0
  2247 ;;      Totals:         0       0       8       0       0
  2248 ;;Total ram usage:        8 bytes
  2249 ;; Hardware stack levels used:    1
  2250 ;; Hardware stack levels required when called:    5
  2251 ;; This function calls:
  2252 ;;		___lldiv
  2253 ;; This function is called by:
  2254 ;;		_SaveTemp
  2255 ;; This function uses a non-reentrant model
  2256 ;;
  2257                           
  2258                           
  2259                           ;psect for function _I2C_Master_Init
  2260  16AA                     _I2C_Master_Init:
  2261  16AA                     l2067:	
  2262                           ;incstack = 0
  2263 ;; hardware stack exceeded
  2264                           ; Regs used in _I2C_Master_Init: [wreg+status,2+status,0+btemp+1+pclath+cstack]
  2265                           
  2266                           
  2267                           ;./I2C_EEPROM.h: 24:  SSPCON = 0b00101000;
  2268  16AA  3028               	movlw	40
  2269  16AB  1283               	bcf	3,5	;RP0=0, select bank0
  2270  16AC  1303               	bcf	3,6	;RP1=0, select bank0
  2271  16AD  0094               	movwf	20	;volatile
  2272  16AE                     l2069:
  2273                           
  2274                           ;./I2C_EEPROM.h: 25:  SSPCON2 = 0;
  2275  16AE  1683               	bsf	3,5	;RP0=1, select bank1
  2276  16AF  1303               	bcf	3,6	;RP1=0, select bank1
  2277  16B0  0191               	clrf	17	;volatile
  2278  16B1                     l2071:
  2279                           
  2280                           ;./I2C_EEPROM.h: 26:  SSPADD = (20000000 / (4 * baud)) - 1;
  2281  16B1  0832               	movf	I2C_Master_Init@baud^(0+128),w
  2282  16B2  00B6               	movwf	??_I2C_Master_Init^(0+128)
  2283  16B3  0833               	movf	(I2C_Master_Init@baud+1)^(0+128),w
  2284  16B4  00B7               	movwf	(??_I2C_Master_Init^(0+128)+1)
  2285  16B5  0834               	movf	(I2C_Master_Init@baud+2)^(0+128),w
  2286  16B6  00B8               	movwf	(??_I2C_Master_Init^(0+128)+2)
  2287  16B7  0835               	movf	(I2C_Master_Init@baud+3)^(0+128),w
  2288  16B8  00B9               	movwf	(??_I2C_Master_Init^(0+128)+3)
  2289  16B9  3002               	movlw	2
  2290  16BA                     u2175:
  2291  16BA  1003               	clrc
  2292  16BB  0DB6               	rlf	??_I2C_Master_Init^(0+128),f
  2293  16BC  0DB7               	rlf	(??_I2C_Master_Init^(0+128)+1),f
  2294  16BD  0DB8               	rlf	(??_I2C_Master_Init^(0+128)+2),f
  2295  16BE  0DB9               	rlf	(??_I2C_Master_Init^(0+128)+3),f
  2296  16BF                     u2170:
  2297  16BF  3EFF               	addlw	-1
  2298  16C0  1D03               	skipz
  2299  16C1  2EBA               	goto	u2175
  2300  16C2  0839               	movf	(??_I2C_Master_Init+3)^(0+128),w
  2301  16C3  00A7               	movwf	(___lldiv@divisor+3)^(0+128)
  2302  16C4  0838               	movf	(??_I2C_Master_Init+2)^(0+128),w
  2303  16C5  00A6               	movwf	(___lldiv@divisor+2)^(0+128)
  2304  16C6  0837               	movf	(??_I2C_Master_Init+1)^(0+128),w
  2305  16C7  00A5               	movwf	(___lldiv@divisor+1)^(0+128)
  2306  16C8  0836               	movf	??_I2C_Master_Init^(0+128),w
  2307  16C9  00A4               	movwf	___lldiv@divisor^(0+128)
  2308  16CA  3001               	movlw	1
  2309  16CB  00AB               	movwf	(___lldiv@dividend+3)^(0+128)
  2310  16CC  3031               	movlw	49
  2311  16CD  00AA               	movwf	(___lldiv@dividend+2)^(0+128)
  2312  16CE  302D               	movlw	45
  2313  16CF  00A9               	movwf	(___lldiv@dividend+1)^(0+128)
  2314  16D0  3000               	movlw	0
  2315  16D1  00A8               	movwf	___lldiv@dividend^(0+128)
  2316  16D2  120A  158A  212C  160A  118A  	fcall	___lldiv
  2317  16D7  1683               	bsf	3,5	;RP0=1, select bank1
  2318  16D8  1303               	bcf	3,6	;RP1=0, select bank1
  2319  16D9  0824               	movf	?___lldiv^(0+128),w
  2320  16DA  3EFF               	addlw	255
  2321  16DB  0093               	movwf	19	;volatile
  2322  16DC                     l2073:
  2323                           
  2324                           ;./I2C_EEPROM.h: 27:  SSPSTAT = 0;
  2325  16DC  0194               	clrf	20	;volatile
  2326  16DD                     l2075:
  2327                           
  2328                           ;./I2C_EEPROM.h: 28:  TRISC3 = 1;
  2329  16DD  1587               	bsf	7,3	;volatile
  2330  16DE                     l2077:
  2331                           
  2332                           ;./I2C_EEPROM.h: 29:  TRISC4 = 1;
  2333  16DE  1607               	bsf	7,4	;volatile
  2334  16DF                     l117:
  2335  16DF  0008               	return
  2336  16E0                     __end_of_I2C_Master_Init:
  2337                           
  2338                           	psect	text14
  2339  092C                     __ptext14:	
  2340 ;; *************** function ___lldiv *****************
  2341 ;; Defined at:
  2342 ;;		line 5 in file "C:\Program Files\Microchip\xc8\v2.20\pic\sources\c90\common\__lldiv.c"
  2343 ;; Parameters:    Size  Location     Type
  2344 ;;  divisor         4    4[BANK1 ] unsigned long 
  2345 ;;  dividend        4    8[BANK1 ] unsigned long 
  2346 ;; Auto vars:     Size  Location     Type
  2347 ;;  quotient        4   13[BANK1 ] unsigned long 
  2348 ;;  counter         1   17[BANK1 ] unsigned char 
  2349 ;; Return value:  Size  Location     Type
  2350 ;;                  4    4[BANK1 ] unsigned long 
  2351 ;; Registers used:
  2352 ;;		wreg, status,2, status,0, btemp+1
  2353 ;; Tracked objects:
  2354 ;;		On entry : 0/0
  2355 ;;		On exit  : 0/0
  2356 ;;		Unchanged: 0/0
  2357 ;; Data sizes:     COMMON   BANK0   BANK1   BANK3   BANK2
  2358 ;;      Params:         0       0       8       0       0
  2359 ;;      Locals:         0       0       5       0       0
  2360 ;;      Temps:          0       0       1       0       0
  2361 ;;      Totals:         0       0      14       0       0
  2362 ;;Total ram usage:       14 bytes
  2363 ;; Hardware stack levels used:    1
  2364 ;; Hardware stack levels required when called:    4
  2365 ;; This function calls:
  2366 ;;		Nothing
  2367 ;; This function is called by:
  2368 ;;		_I2C_Master_Init
  2369 ;; This function uses a non-reentrant model
  2370 ;;
  2371                           
  2372                           
  2373                           ;psect for function ___lldiv
  2374  092C                     ___lldiv:
  2375  092C                     l2041:	
  2376                           ;incstack = 0
  2377 ;; hardware stack exceeded
  2378                           ; Regs used in ___lldiv: [wreg+status,2+status,0+btemp+1]
  2379                           
  2380  092C  3000               	movlw	0
  2381  092D  1683               	bsf	3,5	;RP0=1, select bank1
  2382  092E  1303               	bcf	3,6	;RP1=0, select bank1
  2383  092F  00B0               	movwf	(___lldiv@quotient+3)^(0+128)
  2384  0930  3000               	movlw	0
  2385  0931  00AF               	movwf	(___lldiv@quotient+2)^(0+128)
  2386  0932  3000               	movlw	0
  2387  0933  00AE               	movwf	(___lldiv@quotient+1)^(0+128)
  2388  0934  3000               	movlw	0
  2389  0935  00AD               	movwf	___lldiv@quotient^(0+128)
  2390  0936  0827               	movf	(___lldiv@divisor+3)^(0+128),w
  2391  0937  0426               	iorwf	(___lldiv@divisor+2)^(0+128),w
  2392  0938  0425               	iorwf	(___lldiv@divisor+1)^(0+128),w
  2393  0939  0424               	iorwf	___lldiv@divisor^(0+128),w
  2394  093A  1903               	skipnz
  2395  093B  293D               	goto	u2101
  2396  093C  293E               	goto	u2100
  2397  093D                     u2101:
  2398  093D  298B               	goto	l2063
  2399  093E                     u2100:
  2400  093E                     l2043:
  2401  093E  01B1               	clrf	___lldiv@counter^(0+128)
  2402  093F  0AB1               	incf	___lldiv@counter^(0+128),f
  2403  0940  294E               	goto	l2049
  2404  0941                     l2045:
  2405  0941  3001               	movlw	1
  2406  0942  00AC               	movwf	??___lldiv^(0+128)
  2407  0943                     u2115:
  2408  0943  1003               	clrc
  2409  0944  0DA4               	rlf	___lldiv@divisor^(0+128),f
  2410  0945  0DA5               	rlf	(___lldiv@divisor+1)^(0+128),f
  2411  0946  0DA6               	rlf	(___lldiv@divisor+2)^(0+128),f
  2412  0947  0DA7               	rlf	(___lldiv@divisor+3)^(0+128),f
  2413  0948  0BAC               	decfsz	??___lldiv^(0+128),f
  2414  0949  2943               	goto	u2115
  2415  094A                     l2047:
  2416  094A  3001               	movlw	1
  2417  094B  00FF               	movwf	btemp+1
  2418  094C  087F               	movf	btemp+1,w
  2419  094D  07B1               	addwf	___lldiv@counter^(0+128),f
  2420  094E                     l2049:
  2421  094E  1FA7               	btfss	(___lldiv@divisor+3)^(0+128),7
  2422  094F  2951               	goto	u2121
  2423  0950  2952               	goto	u2120
  2424  0951                     u2121:
  2425  0951  2941               	goto	l2045
  2426  0952                     u2120:
  2427  0952                     l2051:
  2428  0952  3001               	movlw	1
  2429  0953  00AC               	movwf	??___lldiv^(0+128)
  2430  0954                     u2135:
  2431  0954  1003               	clrc
  2432  0955  0DAD               	rlf	___lldiv@quotient^(0+128),f
  2433  0956  0DAE               	rlf	(___lldiv@quotient+1)^(0+128),f
  2434  0957  0DAF               	rlf	(___lldiv@quotient+2)^(0+128),f
  2435  0958  0DB0               	rlf	(___lldiv@quotient+3)^(0+128),f
  2436  0959  0BAC               	decfsz	??___lldiv^(0+128),f
  2437  095A  2954               	goto	u2135
  2438  095B                     l2053:
  2439  095B  0827               	movf	(___lldiv@divisor+3)^(0+128),w
  2440  095C  022B               	subwf	(___lldiv@dividend+3)^(0+128),w
  2441  095D  1D03               	skipz
  2442  095E  2969               	goto	u2145
  2443  095F  0826               	movf	(___lldiv@divisor+2)^(0+128),w
  2444  0960  022A               	subwf	(___lldiv@dividend+2)^(0+128),w
  2445  0961  1D03               	skipz
  2446  0962  2969               	goto	u2145
  2447  0963  0825               	movf	(___lldiv@divisor+1)^(0+128),w
  2448  0964  0229               	subwf	(___lldiv@dividend+1)^(0+128),w
  2449  0965  1D03               	skipz
  2450  0966  2969               	goto	u2145
  2451  0967  0824               	movf	___lldiv@divisor^(0+128),w
  2452  0968  0228               	subwf	___lldiv@dividend^(0+128),w
  2453  0969                     u2145:
  2454  0969  1C03               	skipc
  2455  096A  296C               	goto	u2141
  2456  096B  296D               	goto	u2140
  2457  096C                     u2141:
  2458  096C  297C               	goto	l2059
  2459  096D                     u2140:
  2460  096D                     l2055:
  2461  096D  0824               	movf	___lldiv@divisor^(0+128),w
  2462  096E  02A8               	subwf	___lldiv@dividend^(0+128),f
  2463  096F  0825               	movf	(___lldiv@divisor+1)^(0+128),w
  2464  0970  1C03               	skipc
  2465  0971  0F25               	incfsz	(___lldiv@divisor+1)^(0+128),w
  2466  0972  02A9               	subwf	(___lldiv@dividend+1)^(0+128),f
  2467  0973  0826               	movf	(___lldiv@divisor+2)^(0+128),w
  2468  0974  1C03               	skipc
  2469  0975  0F26               	incfsz	(___lldiv@divisor+2)^(0+128),w
  2470  0976  02AA               	subwf	(___lldiv@dividend+2)^(0+128),f
  2471  0977  0827               	movf	(___lldiv@divisor+3)^(0+128),w
  2472  0978  1C03               	skipc
  2473  0979  0F27               	incfsz	(___lldiv@divisor+3)^(0+128),w
  2474  097A  02AB               	subwf	(___lldiv@dividend+3)^(0+128),f
  2475  097B                     l2057:
  2476  097B  142D               	bsf	___lldiv@quotient^(0+128),0
  2477  097C                     l2059:
  2478  097C  3001               	movlw	1
  2479  097D                     u2155:
  2480  097D  1003               	clrc
  2481  097E  0CA7               	rrf	(___lldiv@divisor+3)^(0+128),f
  2482  097F  0CA6               	rrf	(___lldiv@divisor+2)^(0+128),f
  2483  0980  0CA5               	rrf	(___lldiv@divisor+1)^(0+128),f
  2484  0981  0CA4               	rrf	___lldiv@divisor^(0+128),f
  2485  0982  3EFF               	addlw	-1
  2486  0983  1D03               	skipz
  2487  0984  297D               	goto	u2155
  2488  0985                     l2061:
  2489  0985  3001               	movlw	1
  2490  0986  02B1               	subwf	___lldiv@counter^(0+128),f
  2491  0987  1D03               	btfss	3,2
  2492  0988  298A               	goto	u2161
  2493  0989  298B               	goto	u2160
  2494  098A                     u2161:
  2495  098A  2952               	goto	l2051
  2496  098B                     u2160:
  2497  098B                     l2063:
  2498  098B  0830               	movf	(___lldiv@quotient+3)^(0+128),w
  2499  098C  00A7               	movwf	(?___lldiv+3)^(0+128)
  2500  098D  082F               	movf	(___lldiv@quotient+2)^(0+128),w
  2501  098E  00A6               	movwf	(?___lldiv+2)^(0+128)
  2502  098F  082E               	movf	(___lldiv@quotient+1)^(0+128),w
  2503  0990  00A5               	movwf	(?___lldiv+1)^(0+128)
  2504  0991  082D               	movf	___lldiv@quotient^(0+128),w
  2505  0992  00A4               	movwf	?___lldiv^(0+128)
  2506  0993                     l433:
  2507  0993  0008               	return
  2508  0994                     __end_of___lldiv:
  2509                           
  2510                           	psect	text15
  2511  0808                     __ptext15:	
  2512 ;; *************** function _EEPROM_Write *****************
  2513 ;; Defined at:
  2514 ;;		line 72 in file "./I2C_EEPROM.h"
  2515 ;; Parameters:    Size  Location     Type
  2516 ;;  add             2    5[BANK1 ] unsigned int 
  2517 ;;  data            2    7[BANK1 ] PTR unsigned char 
  2518 ;;		 -> RAM(512), 
  2519 ;;  len             1    9[BANK1 ] unsigned char 
  2520 ;; Auto vars:     Size  Location     Type
  2521 ;;  i               2   12[BANK1 ] unsigned int 
  2522 ;; Return value:  Size  Location     Type
  2523 ;;                  1    wreg      void 
  2524 ;; Registers used:
  2525 ;;		wreg, fsr0l, fsr0h, status,2, status,0, pclath, cstack
  2526 ;; Tracked objects:
  2527 ;;		On entry : 0/0
  2528 ;;		On exit  : 0/0
  2529 ;;		Unchanged: 0/0
  2530 ;; Data sizes:     COMMON   BANK0   BANK1   BANK3   BANK2
  2531 ;;      Params:         0       0       5       0       0
  2532 ;;      Locals:         0       0       2       0       0
  2533 ;;      Temps:          0       0       2       0       0
  2534 ;;      Totals:         0       0       9       0       0
  2535 ;;Total ram usage:        9 bytes
  2536 ;; Hardware stack levels used:    1
  2537 ;; Hardware stack levels required when called:    6
  2538 ;; This function calls:
  2539 ;;		_I2C_Master_RepeatedStart
  2540 ;;		_I2C_Master_Start
  2541 ;;		_I2C_Master_Stop
  2542 ;;		_I2C_Master_Write
  2543 ;; This function is called by:
  2544 ;;		_SaveTemp
  2545 ;; This function uses a non-reentrant model
  2546 ;;
  2547                           
  2548                           
  2549                           ;psect for function _EEPROM_Write
  2550  0808                     _EEPROM_Write:
  2551  0808                     l2079:	
  2552                           ;incstack = 0
  2553 ;; hardware stack exceeded
  2554                           ; Regs used in _EEPROM_Write: [wreg-fsr0h+status,2+status,0+pclath+cstack]
  2555                           
  2556                           
  2557                           ;./I2C_EEPROM.h: 73:  I2C_Master_Start();
  2558  0808  160A  118A  255F  120A  158A  	fcall	_I2C_Master_Start
  2559                           
  2560                           ;./I2C_EEPROM.h: 75:  while (I2C_Master_Write(0xA0))
  2561  080D  2813               	goto	l153
  2562  080E                     l2081:
  2563                           
  2564                           ;./I2C_EEPROM.h: 76:   I2C_Master_RepeatedStart();
  2565  080E  160A  118A  2556  120A  158A  	fcall	_I2C_Master_RepeatedStart
  2566  0813                     l153:
  2567                           
  2568                           ;./I2C_EEPROM.h: 75:  while (I2C_Master_Write(0xA0))
  2569  0813  30A0               	movlw	160
  2570  0814  160A  118A  2606  120A  158A  	fcall	_I2C_Master_Write
  2571  0819  3A00               	xorlw	0
  2572  081A  1D03               	skipz
  2573  081B  281D               	goto	u2181
  2574  081C  281E               	goto	u2180
  2575  081D                     u2181:
  2576  081D  280E               	goto	l2081
  2577  081E                     u2180:
  2578  081E                     l2083:
  2579                           
  2580                           ;./I2C_EEPROM.h: 77:  I2C_Master_Write(add >> 8);
  2581  081E  1683               	bsf	3,5	;RP0=1, select bank1
  2582  081F  1303               	bcf	3,6	;RP1=0, select bank1
  2583  0820  0826               	movf	(EEPROM_Write@add+1)^(0+128),w
  2584  0821  160A  118A  2606  120A  158A  	fcall	_I2C_Master_Write
  2585                           
  2586                           ;./I2C_EEPROM.h: 78:  I2C_Master_Write((unsigned char)add);
  2587  0826  1683               	bsf	3,5	;RP0=1, select bank1
  2588  0827  1303               	bcf	3,6	;RP1=0, select bank1
  2589  0828  0825               	movf	EEPROM_Write@add^(0+128),w
  2590  0829  160A  118A  2606  120A  158A  	fcall	_I2C_Master_Write
  2591  082E                     l2085:
  2592                           
  2593                           ;./I2C_EEPROM.h: 79:  for (unsigned int i = 0; i < len; i++)
  2594  082E  1683               	bsf	3,5	;RP0=1, select bank1
  2595  082F  1303               	bcf	3,6	;RP1=0, select bank1
  2596  0830  01AC               	clrf	EEPROM_Write@i^(0+128)
  2597  0831  01AD               	clrf	(EEPROM_Write@i+1)^(0+128)
  2598  0832  284E               	goto	l2091
  2599  0833                     l2087:
  2600                           
  2601                           ;./I2C_EEPROM.h: 80:   I2C_Master_Write(data[i]);
  2602  0833  082C               	movf	EEPROM_Write@i^(0+128),w
  2603  0834  0727               	addwf	EEPROM_Write@data^(0+128),w
  2604  0835  00AA               	movwf	??_EEPROM_Write^(0+128)
  2605  0836  082D               	movf	(EEPROM_Write@i+1)^(0+128),w
  2606  0837  1803               	skipnc
  2607  0838  0A2D               	incf	(EEPROM_Write@i+1)^(0+128),w
  2608  0839  0728               	addwf	(EEPROM_Write@data+1)^(0+128),w
  2609  083A  00AB               	movwf	(??_EEPROM_Write+1)^(0+128)
  2610  083B  082A               	movf	??_EEPROM_Write^(0+128),w
  2611  083C  0084               	movwf	4
  2612  083D  1783               	bsf	3,7
  2613  083E  1C2B               	btfss	(??_EEPROM_Write+1)^(0+128),0
  2614  083F  1383               	bcf	3,7
  2615  0840  0800               	movf	0,w
  2616  0841  160A  118A  2606  120A  158A  	fcall	_I2C_Master_Write
  2617  0846                     l2089:
  2618  0846  3001               	movlw	1
  2619  0847  1683               	bsf	3,5	;RP0=1, select bank1
  2620  0848  1303               	bcf	3,6	;RP1=0, select bank1
  2621  0849  07AC               	addwf	EEPROM_Write@i^(0+128),f
  2622  084A  1803               	skipnc
  2623  084B  0AAD               	incf	(EEPROM_Write@i+1)^(0+128),f
  2624  084C  3000               	movlw	0
  2625  084D  07AD               	addwf	(EEPROM_Write@i+1)^(0+128),f
  2626  084E                     l2091:
  2627  084E  0829               	movf	EEPROM_Write@len^(0+128),w
  2628  084F  00AA               	movwf	??_EEPROM_Write^(0+128)
  2629  0850  01AB               	clrf	(??_EEPROM_Write^(0+128)+1)
  2630  0851  082B               	movf	(??_EEPROM_Write+1)^(0+128),w
  2631  0852  022D               	subwf	(EEPROM_Write@i+1)^(0+128),w
  2632  0853  1D03               	skipz
  2633  0854  2857               	goto	u2195
  2634  0855  082A               	movf	??_EEPROM_Write^(0+128),w
  2635  0856  022C               	subwf	EEPROM_Write@i^(0+128),w
  2636  0857                     u2195:
  2637  0857  1C03               	skipc
  2638  0858  285A               	goto	u2191
  2639  0859  285B               	goto	u2190
  2640  085A                     u2191:
  2641  085A  2833               	goto	l2087
  2642  085B                     u2190:
  2643  085B                     l2093:
  2644                           
  2645                           ;./I2C_EEPROM.h: 81:  I2C_Master_Stop();
  2646  085B  160A  118A  2568  120A  158A  	fcall	_I2C_Master_Stop
  2647  0860                     l159:
  2648  0860  0008               	return
  2649  0861                     __end_of_EEPROM_Write:
  2650                           
  2651                           	psect	text16
  2652  15C5                     __ptext16:	
  2653 ;; *************** function _FetchTemp *****************
  2654 ;; Defined at:
  2655 ;;		line 28 in file "./Temperature.h"
  2656 ;; Parameters:    Size  Location     Type
  2657 ;;		None
  2658 ;; Auto vars:     Size  Location     Type
  2659 ;;		None
  2660 ;; Return value:  Size  Location     Type
  2661 ;;                  1    wreg      void 
  2662 ;; Registers used:
  2663 ;;		wreg, fsr0l, fsr0h, status,2, status,0, btemp+1, pclath, cstack
  2664 ;; Tracked objects:
  2665 ;;		On entry : 0/0
  2666 ;;		On exit  : 0/0
  2667 ;;		Unchanged: 0/0
  2668 ;; Data sizes:     COMMON   BANK0   BANK1   BANK3   BANK2
  2669 ;;      Params:         0       0       0       0       0
  2670 ;;      Locals:         0       0       0       0       0
  2671 ;;      Temps:          0       0       0       0       0
  2672 ;;      Totals:         0       0       0       0       0
  2673 ;;Total ram usage:        0 bytes
  2674 ;; Hardware stack levels used:    1
  2675 ;; Hardware stack levels required when called:    7
  2676 ;; This function calls:
  2677 ;;		_EEPROM_Read
  2678 ;; This function is called by:
  2679 ;;		_TempDisplay
  2680 ;; This function uses a non-reentrant model
  2681 ;;
  2682                           
  2683                           
  2684                           ;psect for function _FetchTemp
  2685  15C5                     _FetchTemp:
  2686  15C5                     l2119:	
  2687                           ;incstack = 0
  2688 ;; hardware stack exceeded
  2689                           ; Regs used in _FetchTemp: [wreg-fsr0h+status,2+status,0+btemp+1+pclath+cstack]
  2690                           
  2691                           
  2692                           ;./Temperature.h: 29:     EEPROM_Read(Address, Temp, 2);
  2693  15C5  3020               	movlw	32
  2694  15C6  1683               	bsf	3,5	;RP0=1, select bank1
  2695  15C7  1303               	bcf	3,6	;RP1=0, select bank1
  2696  15C8  00A5               	movwf	EEPROM_Read@add^(0+128)
  2697  15C9  3000               	movlw	0
  2698  15CA  00A6               	movwf	(EEPROM_Read@add^(0+128)+1)
  2699  15CB  0867               	movf	_Temp^(0+128),w
  2700  15CC  00A7               	movwf	EEPROM_Read@data^(0+128)
  2701  15CD  0868               	movf	(_Temp+1)^(0+128),w
  2702  15CE  00A8               	movwf	(EEPROM_Read@data+1)^(0+128)
  2703  15CF  3002               	movlw	2
  2704  15D0  00A9               	movwf	EEPROM_Read@len^(0+128)
  2705  15D1  3000               	movlw	0
  2706  15D2  00AA               	movwf	(EEPROM_Read@len^(0+128)+1)
  2707  15D3  120A  158A  2194  160A  118A  	fcall	_EEPROM_Read
  2708  15D8                     l230:
  2709  15D8  0008               	return
  2710  15D9                     __end_of_FetchTemp:
  2711                           
  2712                           	psect	text17
  2713  0994                     __ptext17:	
  2714 ;; *************** function _EEPROM_Read *****************
  2715 ;; Defined at:
  2716 ;;		line 83 in file "./I2C_EEPROM.h"
  2717 ;; Parameters:    Size  Location     Type
  2718 ;;  add             2    5[BANK1 ] unsigned int 
  2719 ;;  data            2    7[BANK1 ] PTR unsigned char 
  2720 ;;		 -> RAM(512), 
  2721 ;;  len             2    9[BANK1 ] unsigned int 
  2722 ;; Auto vars:     Size  Location     Type
  2723 ;;  i               2   13[BANK1 ] unsigned int 
  2724 ;; Return value:  Size  Location     Type
  2725 ;;                  1    wreg      void 
  2726 ;; Registers used:
  2727 ;;		wreg, fsr0l, fsr0h, status,2, status,0, btemp+1, pclath, cstack
  2728 ;; Tracked objects:
  2729 ;;		On entry : 0/0
  2730 ;;		On exit  : 0/0
  2731 ;;		Unchanged: 0/0
  2732 ;; Data sizes:     COMMON   BANK0   BANK1   BANK3   BANK2
  2733 ;;      Params:         0       0       6       0       0
  2734 ;;      Locals:         0       0       2       0       0
  2735 ;;      Temps:          0       0       2       0       0
  2736 ;;      Totals:         0       0      10       0       0
  2737 ;;Total ram usage:       10 bytes
  2738 ;; Hardware stack levels used:    1
  2739 ;; Hardware stack levels required when called:    6
  2740 ;; This function calls:
  2741 ;;		_I2C_ACK
  2742 ;;		_I2C_Master_RepeatedStart
  2743 ;;		_I2C_Master_Start
  2744 ;;		_I2C_Master_Stop
  2745 ;;		_I2C_Master_Write
  2746 ;;		_I2C_Read_Byte
  2747 ;; This function is called by:
  2748 ;;		_FetchTemp
  2749 ;; This function uses a non-reentrant model
  2750 ;;
  2751                           
  2752                           
  2753                           ;psect for function _EEPROM_Read
  2754  0994                     _EEPROM_Read:
  2755  0994                     l2095:	
  2756                           ;incstack = 0
  2757 ;; hardware stack exceeded
  2758                           ; Regs used in _EEPROM_Read: [wreg-fsr0h+status,2+status,0+btemp+1+pclath+cstack]
  2759                           
  2760                           
  2761                           ;./I2C_EEPROM.h: 84:  I2C_Master_Start();
  2762  0994  160A  118A  255F  120A  158A  	fcall	_I2C_Master_Start
  2763                           
  2764                           ;./I2C_EEPROM.h: 86:  while (I2C_Master_Write(0xA0))
  2765  0999  299F               	goto	l162
  2766  099A                     l2097:
  2767                           
  2768                           ;./I2C_EEPROM.h: 87:   I2C_Master_RepeatedStart();
  2769  099A  160A  118A  2556  120A  158A  	fcall	_I2C_Master_RepeatedStart
  2770  099F                     l162:
  2771                           
  2772                           ;./I2C_EEPROM.h: 86:  while (I2C_Master_Write(0xA0))
  2773  099F  30A0               	movlw	160
  2774  09A0  160A  118A  2606  120A  158A  	fcall	_I2C_Master_Write
  2775  09A5  3A00               	xorlw	0
  2776  09A6  1D03               	skipz
  2777  09A7  29A9               	goto	u2201
  2778  09A8  29AA               	goto	u2200
  2779  09A9                     u2201:
  2780  09A9  299A               	goto	l2097
  2781  09AA                     u2200:
  2782  09AA                     l2099:
  2783                           
  2784                           ;./I2C_EEPROM.h: 88:  I2C_Master_Write(add >> 8);
  2785  09AA  1683               	bsf	3,5	;RP0=1, select bank1
  2786  09AB  1303               	bcf	3,6	;RP1=0, select bank1
  2787  09AC  0826               	movf	(EEPROM_Read@add+1)^(0+128),w
  2788  09AD  160A  118A  2606  120A  158A  	fcall	_I2C_Master_Write
  2789                           
  2790                           ;./I2C_EEPROM.h: 89:  I2C_Master_Write((unsigned char)add);
  2791  09B2  1683               	bsf	3,5	;RP0=1, select bank1
  2792  09B3  1303               	bcf	3,6	;RP1=0, select bank1
  2793  09B4  0825               	movf	EEPROM_Read@add^(0+128),w
  2794  09B5  160A  118A  2606  120A  158A  	fcall	_I2C_Master_Write
  2795                           
  2796                           ;./I2C_EEPROM.h: 90:  I2C_Master_RepeatedStart();
  2797  09BA  160A  118A  2556  120A  158A  	fcall	_I2C_Master_RepeatedStart
  2798                           
  2799                           ;./I2C_EEPROM.h: 91:  I2C_Master_Write(0xA1);
  2800  09BF  30A1               	movlw	161
  2801  09C0  160A  118A  2606  120A  158A  	fcall	_I2C_Master_Write
  2802  09C5                     l2101:
  2803                           
  2804                           ;./I2C_EEPROM.h: 92:  for (unsigned int i = 0; i < len; i++)
  2805  09C5  1683               	bsf	3,5	;RP0=1, select bank1
  2806  09C6  1303               	bcf	3,6	;RP1=0, select bank1
  2807  09C7  01AD               	clrf	EEPROM_Read@i^(0+128)
  2808  09C8  01AE               	clrf	(EEPROM_Read@i+1)^(0+128)
  2809  09C9  29EE               	goto	l2109
  2810  09CA                     l2103:
  2811                           
  2812                           ;./I2C_EEPROM.h: 93:  {;./I2C_EEPROM.h: 94:   data[i] = I2C_Read_Byte();
  2813  09CA  160A  118A  25EF  120A  158A  	fcall	_I2C_Read_Byte
  2814  09CF  00FF               	movwf	btemp+1
  2815  09D0  1683               	bsf	3,5	;RP0=1, select bank1
  2816  09D1  1303               	bcf	3,6	;RP1=0, select bank1
  2817  09D2  082D               	movf	EEPROM_Read@i^(0+128),w
  2818  09D3  0727               	addwf	EEPROM_Read@data^(0+128),w
  2819  09D4  00AB               	movwf	??_EEPROM_Read^(0+128)
  2820  09D5  082E               	movf	(EEPROM_Read@i+1)^(0+128),w
  2821  09D6  1803               	skipnc
  2822  09D7  0A2E               	incf	(EEPROM_Read@i+1)^(0+128),w
  2823  09D8  0728               	addwf	(EEPROM_Read@data+1)^(0+128),w
  2824  09D9  00AC               	movwf	(??_EEPROM_Read+1)^(0+128)
  2825  09DA  082B               	movf	??_EEPROM_Read^(0+128),w
  2826  09DB  0084               	movwf	4
  2827  09DC  1783               	bsf	3,7
  2828  09DD  1C2C               	btfss	(??_EEPROM_Read+1)^(0+128),0
  2829  09DE  1383               	bcf	3,7
  2830  09DF  087F               	movf	btemp+1,w
  2831  09E0  0080               	movwf	0
  2832  09E1                     l2105:
  2833                           
  2834                           ;./I2C_EEPROM.h: 95:   I2C_ACK();
  2835  09E1  160A  118A  257A  120A  158A  	fcall	_I2C_ACK
  2836  09E6                     l2107:
  2837                           
  2838                           ;./I2C_EEPROM.h: 96:  }
  2839  09E6  3001               	movlw	1
  2840  09E7  1683               	bsf	3,5	;RP0=1, select bank1
  2841  09E8  1303               	bcf	3,6	;RP1=0, select bank1
  2842  09E9  07AD               	addwf	EEPROM_Read@i^(0+128),f
  2843  09EA  1803               	skipnc
  2844  09EB  0AAE               	incf	(EEPROM_Read@i+1)^(0+128),f
  2845  09EC  3000               	movlw	0
  2846  09ED  07AE               	addwf	(EEPROM_Read@i+1)^(0+128),f
  2847  09EE                     l2109:
  2848  09EE  082A               	movf	(EEPROM_Read@len+1)^(0+128),w
  2849  09EF  022E               	subwf	(EEPROM_Read@i+1)^(0+128),w
  2850  09F0  1D03               	skipz
  2851  09F1  29F4               	goto	u2215
  2852  09F2  0829               	movf	EEPROM_Read@len^(0+128),w
  2853  09F3  022D               	subwf	EEPROM_Read@i^(0+128),w
  2854  09F4                     u2215:
  2855  09F4  1C03               	skipc
  2856  09F5  29F7               	goto	u2211
  2857  09F6  29F8               	goto	u2210
  2858  09F7                     u2211:
  2859  09F7  29CA               	goto	l2103
  2860  09F8                     u2210:
  2861  09F8                     l2111:
  2862                           
  2863                           ;./I2C_EEPROM.h: 97:  I2C_Master_Stop();
  2864  09F8  160A  118A  2568  120A  158A  	fcall	_I2C_Master_Stop
  2865  09FD                     l168:
  2866  09FD  0008               	return
  2867  09FE                     __end_of_EEPROM_Read:
  2868                           
  2869                           	psect	text18
  2870  15EF                     __ptext18:	
  2871 ;; *************** function _I2C_Read_Byte *****************
  2872 ;; Defined at:
  2873 ;;		line 53 in file "./I2C_EEPROM.h"
  2874 ;; Parameters:    Size  Location     Type
  2875 ;;		None
  2876 ;; Auto vars:     Size  Location     Type
  2877 ;;		None
  2878 ;; Return value:  Size  Location     Type
  2879 ;;                  1    wreg      unsigned char 
  2880 ;; Registers used:
  2881 ;;		wreg, status,2, status,0, pclath, cstack
  2882 ;; Tracked objects:
  2883 ;;		On entry : 0/0
  2884 ;;		On exit  : 0/0
  2885 ;;		Unchanged: 0/0
  2886 ;; Data sizes:     COMMON   BANK0   BANK1   BANK3   BANK2
  2887 ;;      Params:         0       0       0       0       0
  2888 ;;      Locals:         0       0       0       0       0
  2889 ;;      Temps:          0       0       0       0       0
  2890 ;;      Totals:         0       0       0       0       0
  2891 ;;Total ram usage:        0 bytes
  2892 ;; Hardware stack levels used:    1
  2893 ;; Hardware stack levels required when called:    5
  2894 ;; This function calls:
  2895 ;;		_I2C_Master_Wait
  2896 ;; This function is called by:
  2897 ;;		_EEPROM_Read
  2898 ;; This function uses a non-reentrant model
  2899 ;;
  2900                           
  2901                           
  2902                           ;psect for function _I2C_Read_Byte
  2903  15EF                     _I2C_Read_Byte:
  2904  15EF                     l2025:	
  2905                           ;incstack = 0
  2906 ;; hardware stack exceeded
  2907                           ; Regs used in _I2C_Read_Byte: [wreg+status,2+status,0+pclath+cstack]
  2908                           
  2909                           
  2910                           ;./I2C_EEPROM.h: 55:  I2C_Master_Wait();
  2911  15EF  160A  118A  2586  160A  118A  	fcall	_I2C_Master_Wait
  2912  15F4                     l2027:
  2913                           
  2914                           ;./I2C_EEPROM.h: 56:  RCEN = 1;
  2915  15F4  1683               	bsf	3,5	;RP0=1, select bank1
  2916  15F5  1303               	bcf	3,6	;RP1=0, select bank1
  2917  15F6  1591               	bsf	17,3	;volatile
  2918  15F7                     l141:	
  2919                           ;./I2C_EEPROM.h: 57:  while (!SSPIF);
  2920                           
  2921  15F7  1283               	bcf	3,5	;RP0=0, select bank0
  2922  15F8  1D8C               	btfss	12,3	;volatile
  2923  15F9  2DFB               	goto	u2091
  2924  15FA  2DFC               	goto	u2090
  2925  15FB                     u2091:
  2926  15FB  2DF7               	goto	l141
  2927  15FC                     u2090:
  2928  15FC                     l143:
  2929                           
  2930                           ;./I2C_EEPROM.h: 58:  SSPIF = 0;
  2931  15FC  118C               	bcf	12,3	;volatile
  2932  15FD                     l2029:
  2933                           
  2934                           ;./I2C_EEPROM.h: 59:  I2C_Master_Wait();
  2935  15FD  160A  118A  2586  160A  118A  	fcall	_I2C_Master_Wait
  2936  1602                     l2031:
  2937                           
  2938                           ;./I2C_EEPROM.h: 60:  return SSPBUF;
  2939  1602  1283               	bcf	3,5	;RP0=0, select bank0
  2940  1603  1303               	bcf	3,6	;RP1=0, select bank0
  2941  1604  0813               	movf	19,w	;volatile
  2942  1605                     l144:
  2943  1605  0008               	return
  2944  1606                     __end_of_I2C_Read_Byte:
  2945                           
  2946                           	psect	text19
  2947  1606                     __ptext19:	
  2948 ;; *************** function _I2C_Master_Write *****************
  2949 ;; Defined at:
  2950 ;;		line 46 in file "./I2C_EEPROM.h"
  2951 ;; Parameters:    Size  Location     Type
  2952 ;;  data            1    wreg     unsigned char 
  2953 ;; Auto vars:     Size  Location     Type
  2954 ;;  data            1    4[BANK1 ] unsigned char 
  2955 ;; Return value:  Size  Location     Type
  2956 ;;                  1    wreg      unsigned char 
  2957 ;; Registers used:
  2958 ;;		wreg, status,2, status,0, pclath, cstack
  2959 ;; Tracked objects:
  2960 ;;		On entry : 0/0
  2961 ;;		On exit  : 0/0
  2962 ;;		Unchanged: 0/0
  2963 ;; Data sizes:     COMMON   BANK0   BANK1   BANK3   BANK2
  2964 ;;      Params:         0       0       0       0       0
  2965 ;;      Locals:         0       0       1       0       0
  2966 ;;      Temps:          0       0       0       0       0
  2967 ;;      Totals:         0       0       1       0       0
  2968 ;;Total ram usage:        1 bytes
  2969 ;; Hardware stack levels used:    1
  2970 ;; Hardware stack levels required when called:    5
  2971 ;; This function calls:
  2972 ;;		_I2C_Master_Wait
  2973 ;; This function is called by:
  2974 ;;		_EEPROM_Write
  2975 ;;		_EEPROM_Read
  2976 ;; This function uses a non-reentrant model
  2977 ;;
  2978                           
  2979                           
  2980                           ;psect for function _I2C_Master_Write
  2981  1606                     _I2C_Master_Write:
  2982                           
  2983                           ;incstack = 0
  2984 ;; hardware stack exceeded
  2985                           ; Regs used in _I2C_Master_Write: [wreg+status,2+status,0+pclath+cstack]
  2986                           ;I2C_Master_Write@data stored from wreg
  2987  1606  1683               	bsf	3,5	;RP0=1, select bank1
  2988  1607  1303               	bcf	3,6	;RP1=0, select bank1
  2989  1608  00A4               	movwf	I2C_Master_Write@data^(0+128)
  2990  1609                     l2017:
  2991                           
  2992                           ;./I2C_EEPROM.h: 47:  I2C_Master_Wait();
  2993  1609  160A  118A  2586  160A  118A  	fcall	_I2C_Master_Wait
  2994  160E                     l2019:
  2995                           
  2996                           ;./I2C_EEPROM.h: 48:  SSPBUF = data;
  2997  160E  1683               	bsf	3,5	;RP0=1, select bank1
  2998  160F  1303               	bcf	3,6	;RP1=0, select bank1
  2999  1610  0824               	movf	I2C_Master_Write@data^(0+128),w
  3000  1611  1283               	bcf	3,5	;RP0=0, select bank0
  3001  1612  1303               	bcf	3,6	;RP1=0, select bank0
  3002  1613  0093               	movwf	19	;volatile
  3003  1614                     l135:	
  3004                           ;./I2C_EEPROM.h: 49:  while (!SSPIF);
  3005                           
  3006  1614  1D8C               	btfss	12,3	;volatile
  3007  1615  2E17               	goto	u2081
  3008  1616  2E18               	goto	u2080
  3009  1617                     u2081:
  3010  1617  2E14               	goto	l135
  3011  1618                     u2080:
  3012  1618                     l137:
  3013                           
  3014                           ;./I2C_EEPROM.h: 50:  SSPIF = 0;
  3015  1618  118C               	bcf	12,3	;volatile
  3016  1619                     l2021:
  3017                           
  3018                           ;./I2C_EEPROM.h: 51:  return ACKSTAT;
  3019  1619  3000               	movlw	0
  3020  161A  1683               	bsf	3,5	;RP0=1, select bank1
  3021  161B  1303               	bcf	3,6	;RP1=0, select bank1
  3022  161C  1B11               	btfsc	17,6	;volatile
  3023  161D  3001               	movlw	1
  3024  161E                     l138:
  3025  161E  0008               	return
  3026  161F                     __end_of_I2C_Master_Write:
  3027                           
  3028                           	psect	text20
  3029  1568                     __ptext20:	
  3030 ;; *************** function _I2C_Master_Stop *****************
  3031 ;; Defined at:
  3032 ;;		line 42 in file "./I2C_EEPROM.h"
  3033 ;; Parameters:    Size  Location     Type
  3034 ;;		None
  3035 ;; Auto vars:     Size  Location     Type
  3036 ;;		None
  3037 ;; Return value:  Size  Location     Type
  3038 ;;                  1    wreg      void 
  3039 ;; Registers used:
  3040 ;;		wreg, status,2, status,0, pclath, cstack
  3041 ;; Tracked objects:
  3042 ;;		On entry : 0/0
  3043 ;;		On exit  : 0/0
  3044 ;;		Unchanged: 0/0
  3045 ;; Data sizes:     COMMON   BANK0   BANK1   BANK3   BANK2
  3046 ;;      Params:         0       0       0       0       0
  3047 ;;      Locals:         0       0       0       0       0
  3048 ;;      Temps:          0       0       0       0       0
  3049 ;;      Totals:         0       0       0       0       0
  3050 ;;Total ram usage:        0 bytes
  3051 ;; Hardware stack levels used:    1
  3052 ;; Hardware stack levels required when called:    5
  3053 ;; This function calls:
  3054 ;;		_I2C_Master_Wait
  3055 ;; This function is called by:
  3056 ;;		_EEPROM_Write
  3057 ;;		_EEPROM_Read
  3058 ;; This function uses a non-reentrant model
  3059 ;;
  3060                           
  3061                           
  3062                           ;psect for function _I2C_Master_Stop
  3063  1568                     _I2C_Master_Stop:
  3064  1568                     l2013:	
  3065                           ;incstack = 0
  3066 ;; hardware stack exceeded
  3067                           ; Regs used in _I2C_Master_Stop: [wreg+status,2+status,0+pclath+cstack]
  3068                           
  3069                           
  3070                           ;./I2C_EEPROM.h: 43:  I2C_Master_Wait();
  3071  1568  160A  118A  2586  160A  118A  	fcall	_I2C_Master_Wait
  3072  156D                     l2015:
  3073                           
  3074                           ;./I2C_EEPROM.h: 44:  PEN = 1;
  3075  156D  1683               	bsf	3,5	;RP0=1, select bank1
  3076  156E  1303               	bcf	3,6	;RP1=0, select bank1
  3077  156F  1511               	bsf	17,2	;volatile
  3078  1570                     l132:
  3079  1570  0008               	return
  3080  1571                     __end_of_I2C_Master_Stop:
  3081                           
  3082                           	psect	text21
  3083  155F                     __ptext21:	
  3084 ;; *************** function _I2C_Master_Start *****************
  3085 ;; Defined at:
  3086 ;;		line 34 in file "./I2C_EEPROM.h"
  3087 ;; Parameters:    Size  Location     Type
  3088 ;;		None
  3089 ;; Auto vars:     Size  Location     Type
  3090 ;;		None
  3091 ;; Return value:  Size  Location     Type
  3092 ;;                  1    wreg      void 
  3093 ;; Registers used:
  3094 ;;		wreg, status,2, status,0, pclath, cstack
  3095 ;; Tracked objects:
  3096 ;;		On entry : 0/0
  3097 ;;		On exit  : 0/0
  3098 ;;		Unchanged: 0/0
  3099 ;; Data sizes:     COMMON   BANK0   BANK1   BANK3   BANK2
  3100 ;;      Params:         0       0       0       0       0
  3101 ;;      Locals:         0       0       0       0       0
  3102 ;;      Temps:          0       0       0       0       0
  3103 ;;      Totals:         0       0       0       0       0
  3104 ;;Total ram usage:        0 bytes
  3105 ;; Hardware stack levels used:    1
  3106 ;; Hardware stack levels required when called:    5
  3107 ;; This function calls:
  3108 ;;		_I2C_Master_Wait
  3109 ;; This function is called by:
  3110 ;;		_EEPROM_Write
  3111 ;;		_EEPROM_Read
  3112 ;; This function uses a non-reentrant model
  3113 ;;
  3114                           
  3115                           
  3116                           ;psect for function _I2C_Master_Start
  3117  155F                     _I2C_Master_Start:
  3118  155F                     l2005:	
  3119                           ;incstack = 0
  3120 ;; hardware stack exceeded
  3121                           ; Regs used in _I2C_Master_Start: [wreg+status,2+status,0+pclath+cstack]
  3122                           
  3123                           
  3124                           ;./I2C_EEPROM.h: 35:  I2C_Master_Wait();
  3125  155F  160A  118A  2586  160A  118A  	fcall	_I2C_Master_Wait
  3126  1564                     l2007:
  3127                           
  3128                           ;./I2C_EEPROM.h: 36:  SEN = 1;
  3129  1564  1683               	bsf	3,5	;RP0=1, select bank1
  3130  1565  1303               	bcf	3,6	;RP1=0, select bank1
  3131  1566  1411               	bsf	17,0	;volatile
  3132  1567                     l126:
  3133  1567  0008               	return
  3134  1568                     __end_of_I2C_Master_Start:
  3135                           
  3136                           	psect	text22
  3137  1556                     __ptext22:	
  3138 ;; *************** function _I2C_Master_RepeatedStart *****************
  3139 ;; Defined at:
  3140 ;;		line 38 in file "./I2C_EEPROM.h"
  3141 ;; Parameters:    Size  Location     Type
  3142 ;;		None
  3143 ;; Auto vars:     Size  Location     Type
  3144 ;;		None
  3145 ;; Return value:  Size  Location     Type
  3146 ;;                  1    wreg      void 
  3147 ;; Registers used:
  3148 ;;		wreg, status,2, status,0, pclath, cstack
  3149 ;; Tracked objects:
  3150 ;;		On entry : 0/0
  3151 ;;		On exit  : 0/0
  3152 ;;		Unchanged: 0/0
  3153 ;; Data sizes:     COMMON   BANK0   BANK1   BANK3   BANK2
  3154 ;;      Params:         0       0       0       0       0
  3155 ;;      Locals:         0       0       0       0       0
  3156 ;;      Temps:          0       0       0       0       0
  3157 ;;      Totals:         0       0       0       0       0
  3158 ;;Total ram usage:        0 bytes
  3159 ;; Hardware stack levels used:    1
  3160 ;; Hardware stack levels required when called:    5
  3161 ;; This function calls:
  3162 ;;		_I2C_Master_Wait
  3163 ;; This function is called by:
  3164 ;;		_EEPROM_Write
  3165 ;;		_EEPROM_Read
  3166 ;; This function uses a non-reentrant model
  3167 ;;
  3168                           
  3169                           
  3170                           ;psect for function _I2C_Master_RepeatedStart
  3171  1556                     _I2C_Master_RepeatedStart:
  3172  1556                     l2009:	
  3173                           ;incstack = 0
  3174 ;; hardware stack exceeded
  3175                           ; Regs used in _I2C_Master_RepeatedStart: [wreg+status,2+status,0+pclath+cstack]
  3176                           
  3177                           
  3178                           ;./I2C_EEPROM.h: 39:  I2C_Master_Wait();
  3179  1556  160A  118A  2586  160A  118A  	fcall	_I2C_Master_Wait
  3180  155B                     l2011:
  3181                           
  3182                           ;./I2C_EEPROM.h: 40:  RSEN = 1;
  3183  155B  1683               	bsf	3,5	;RP0=1, select bank1
  3184  155C  1303               	bcf	3,6	;RP1=0, select bank1
  3185  155D  1491               	bsf	17,1	;volatile
  3186  155E                     l129:
  3187  155E  0008               	return
  3188  155F                     __end_of_I2C_Master_RepeatedStart:
  3189                           
  3190                           	psect	text23
  3191  157A                     __ptext23:	
  3192 ;; *************** function _I2C_ACK *****************
  3193 ;; Defined at:
  3194 ;;		line 62 in file "./I2C_EEPROM.h"
  3195 ;; Parameters:    Size  Location     Type
  3196 ;;		None
  3197 ;; Auto vars:     Size  Location     Type
  3198 ;;		None
  3199 ;; Return value:  Size  Location     Type
  3200 ;;                  1    wreg      void 
  3201 ;; Registers used:
  3202 ;;		wreg, status,2, status,0, pclath, cstack
  3203 ;; Tracked objects:
  3204 ;;		On entry : 0/0
  3205 ;;		On exit  : 0/0
  3206 ;;		Unchanged: 0/0
  3207 ;; Data sizes:     COMMON   BANK0   BANK1   BANK3   BANK2
  3208 ;;      Params:         0       0       0       0       0
  3209 ;;      Locals:         0       0       0       0       0
  3210 ;;      Temps:          0       0       0       0       0
  3211 ;;      Totals:         0       0       0       0       0
  3212 ;;Total ram usage:        0 bytes
  3213 ;; Hardware stack levels used:    1
  3214 ;; Hardware stack levels required when called:    5
  3215 ;; This function calls:
  3216 ;;		_I2C_Master_Wait
  3217 ;; This function is called by:
  3218 ;;		_EEPROM_Read
  3219 ;; This function uses a non-reentrant model
  3220 ;;
  3221                           
  3222                           
  3223                           ;psect for function _I2C_ACK
  3224  157A                     _I2C_ACK:
  3225  157A                     l2035:	
  3226                           ;incstack = 0
  3227 ;; hardware stack exceeded
  3228                           ; Regs used in _I2C_ACK: [wreg+status,2+status,0+pclath+cstack]
  3229                           
  3230                           
  3231                           ;./I2C_EEPROM.h: 63:  ACKDT = 0;
  3232  157A  1683               	bsf	3,5	;RP0=1, select bank1
  3233  157B  1303               	bcf	3,6	;RP1=0, select bank1
  3234  157C  1291               	bcf	17,5	;volatile
  3235  157D                     l2037:
  3236                           
  3237                           ;./I2C_EEPROM.h: 64:  I2C_Master_Wait();
  3238  157D  160A  118A  2586  160A  118A  	fcall	_I2C_Master_Wait
  3239  1582                     l2039:
  3240                           
  3241                           ;./I2C_EEPROM.h: 65:  ACKEN = 1;
  3242  1582  1683               	bsf	3,5	;RP0=1, select bank1
  3243  1583  1303               	bcf	3,6	;RP1=0, select bank1
  3244  1584  1611               	bsf	17,4	;volatile
  3245  1585                     l147:
  3246  1585  0008               	return
  3247  1586                     __end_of_I2C_ACK:
  3248                           
  3249                           	psect	text24
  3250  1586                     __ptext24:	
  3251 ;; *************** function _I2C_Master_Wait *****************
  3252 ;; Defined at:
  3253 ;;		line 31 in file "./I2C_EEPROM.h"
  3254 ;; Parameters:    Size  Location     Type
  3255 ;;		None
  3256 ;; Auto vars:     Size  Location     Type
  3257 ;;		None
  3258 ;; Return value:  Size  Location     Type
  3259 ;;                  1    wreg      void 
  3260 ;; Registers used:
  3261 ;;		wreg, status,2
  3262 ;; Tracked objects:
  3263 ;;		On entry : 0/0
  3264 ;;		On exit  : 0/0
  3265 ;;		Unchanged: 0/0
  3266 ;; Data sizes:     COMMON   BANK0   BANK1   BANK3   BANK2
  3267 ;;      Params:         0       0       0       0       0
  3268 ;;      Locals:         0       0       0       0       0
  3269 ;;      Temps:          0       0       0       0       0
  3270 ;;      Totals:         0       0       0       0       0
  3271 ;;Total ram usage:        0 bytes
  3272 ;; Hardware stack levels used:    1
  3273 ;; Hardware stack levels required when called:    4
  3274 ;; This function calls:
  3275 ;;		Nothing
  3276 ;; This function is called by:
  3277 ;;		_I2C_Master_Start
  3278 ;;		_I2C_Master_RepeatedStart
  3279 ;;		_I2C_Master_Stop
  3280 ;;		_I2C_Master_Write
  3281 ;;		_I2C_Read_Byte
  3282 ;;		_I2C_ACK
  3283 ;;		_I2C_NACK
  3284 ;; This function uses a non-reentrant model
  3285 ;;
  3286                           
  3287                           
  3288                           ;psect for function _I2C_Master_Wait
  3289  1586                     _I2C_Master_Wait:
  3290  1586                     l2001:	
  3291                           ;incstack = 0
  3292 ;; hardware stack exceeded
  3293                           ; Regs used in _I2C_Master_Wait: [wreg+status,2]
  3294                           
  3295  1586                     l120:	
  3296                           ;./I2C_EEPROM.h: 32:  while ((SSPSTAT & 0x04) || (SSPCON2 & 0x1F));
  3297                           
  3298  1586  1683               	bsf	3,5	;RP0=1, select bank1
  3299  1587  1303               	bcf	3,6	;RP1=0, select bank1
  3300  1588  1914               	btfsc	20,2	;volatile
  3301  1589  2D8B               	goto	u2061
  3302  158A  2D8C               	goto	u2060
  3303  158B                     u2061:
  3304  158B  2D86               	goto	l120
  3305  158C                     u2060:
  3306  158C                     l2003:
  3307  158C  0811               	movf	17,w	;volatile
  3308  158D  391F               	andlw	31
  3309  158E  1D03               	btfss	3,2
  3310  158F  2D91               	goto	u2071
  3311  1590  2D92               	goto	u2070
  3312  1591                     u2071:
  3313  1591  2D86               	goto	l120
  3314  1592                     u2070:
  3315  1592                     l123:
  3316  1592  0008               	return
  3317  1593                     __end_of_I2C_Master_Wait:
  3318                           
  3319                           	psect	text25
  3320  0861                     __ptext25:	
  3321 ;; *************** function _HeatingCoolingElement *****************
  3322 ;; Defined at:
  3323 ;;		line 139 in file "./Temperature.h"
  3324 ;; Parameters:    Size  Location     Type
  3325 ;;		None
  3326 ;; Auto vars:     Size  Location     Type
  3327 ;;		None
  3328 ;; Return value:  Size  Location     Type
  3329 ;;                  1    wreg      void 
  3330 ;; Registers used:
  3331 ;;		wreg, status,2, status,0
  3332 ;; Tracked objects:
  3333 ;;		On entry : 0/0
  3334 ;;		On exit  : 0/0
  3335 ;;		Unchanged: 0/0
  3336 ;; Data sizes:     COMMON   BANK0   BANK1   BANK3   BANK2
  3337 ;;      Params:         0       0       0       0       0
  3338 ;;      Locals:         0       0       0       0       0
  3339 ;;      Temps:          0       0       2       0       0
  3340 ;;      Totals:         0       0       2       0       0
  3341 ;;Total ram usage:        2 bytes
  3342 ;; Hardware stack levels used:    1
  3343 ;; Hardware stack levels required when called:    4
  3344 ;; This function calls:
  3345 ;;		Nothing
  3346 ;; This function is called by:
  3347 ;;		_SettingMode
  3348 ;; This function uses a non-reentrant model
  3349 ;;
  3350                           
  3351                           
  3352                           ;psect for function _HeatingCoolingElement
  3353  0861                     _HeatingCoolingElement:
  3354  0861                     l2801:	
  3355                           ;incstack = 0
  3356                           ; Regs used in _HeatingCoolingElement: [wreg+status,2+status,0]
  3357                           
  3358                           
  3359                           ;./Temperature.h: 141:     if ((Temp - averageTemp) >= 5){
  3360  0861  1683               	bsf	3,5	;RP0=1, select bank1
  3361  0862  1303               	bcf	3,6	;RP1=0, select bank1
  3362  0863  0855               	movf	_averageTemp^(0+128),w
  3363  0864  0267               	subwf	_Temp^(0+128),w
  3364  0865  00A4               	movwf	??_HeatingCoolingElement^(0+128)
  3365  0866  0856               	movf	(_averageTemp+1)^(0+128),w
  3366  0867  1C03               	skipc
  3367  0868  0A56               	incf	(_averageTemp+1)^(0+128),w
  3368  0869  0268               	subwf	(_Temp+1)^(0+128),w
  3369  086A  00A5               	movwf	(??_HeatingCoolingElement+1)^(0+128)
  3370  086B  3000               	movlw	0
  3371  086C  0225               	subwf	(??_HeatingCoolingElement+1)^(0+128),w
  3372  086D  3005               	movlw	5
  3373  086E  1903               	skipnz
  3374  086F  0224               	subwf	??_HeatingCoolingElement^(0+128),w
  3375  0870  1C03               	skipc
  3376  0871  2873               	goto	u3591
  3377  0872  2874               	goto	u3590
  3378  0873                     u3591:
  3379  0873  287A               	goto	l2805
  3380  0874                     u3590:
  3381  0874                     l2803:
  3382                           
  3383                           ;./Temperature.h: 142:         PORTCbits.RC5 = 1;
  3384  0874  1283               	bcf	3,5	;RP0=0, select bank0
  3385  0875  1303               	bcf	3,6	;RP1=0, select bank0
  3386  0876  1687               	bsf	7,5	;volatile
  3387                           
  3388                           ;./Temperature.h: 143:         PORTCbits.RC2 = 0;
  3389  0877  1107               	bcf	7,2	;volatile
  3390                           
  3391                           ;./Temperature.h: 144:         TMR2ON =1;
  3392  0878  1512               	bsf	18,2	;volatile
  3393                           
  3394                           ;./Temperature.h: 145:     }
  3395  0879  28BA               	goto	l2813
  3396  087A                     l2805:
  3397  087A  0867               	movf	_Temp^(0+128),w
  3398  087B  0255               	subwf	_averageTemp^(0+128),w
  3399  087C  00A4               	movwf	??_HeatingCoolingElement^(0+128)
  3400  087D  0868               	movf	(_Temp+1)^(0+128),w
  3401  087E  1C03               	skipc
  3402  087F  0A68               	incf	(_Temp+1)^(0+128),w
  3403  0880  0256               	subwf	(_averageTemp+1)^(0+128),w
  3404  0881  00A5               	movwf	(??_HeatingCoolingElement+1)^(0+128)
  3405  0882  3000               	movlw	0
  3406  0883  0225               	subwf	(??_HeatingCoolingElement+1)^(0+128),w
  3407  0884  3005               	movlw	5
  3408  0885  1903               	skipnz
  3409  0886  0224               	subwf	??_HeatingCoolingElement^(0+128),w
  3410  0887  1C03               	skipc
  3411  0888  288A               	goto	u3601
  3412  0889  288B               	goto	u3600
  3413  088A                     u3601:
  3414  088A  2892               	goto	l2809
  3415  088B                     u3600:
  3416  088B                     l2807:
  3417                           
  3418                           ;./Temperature.h: 147:         PORTCbits.RC5 = 0,
  3419  088B  1283               	bcf	3,5	;RP0=0, select bank0
  3420  088C  1303               	bcf	3,6	;RP1=0, select bank0
  3421  088D  1287               	bcf	7,5	;volatile
  3422  088E  1507               	bsf	7,2	;volatile
  3423                           
  3424                           ;./Temperature.h: 149:         TMR2ON =0;
  3425  088F  1112               	bcf	18,2	;volatile
  3426                           
  3427                           ;./Temperature.h: 150:         PORTBbits.RB1 = 1;
  3428  0890  1486               	bsf	6,1	;volatile
  3429                           
  3430                           ;./Temperature.h: 151:     }
  3431  0891  28BA               	goto	l2813
  3432  0892                     l2809:
  3433  0892  0867               	movf	_Temp^(0+128),w
  3434  0893  0255               	subwf	_averageTemp^(0+128),w
  3435  0894  00A4               	movwf	??_HeatingCoolingElement^(0+128)
  3436  0895  0868               	movf	(_Temp+1)^(0+128),w
  3437  0896  1C03               	skipc
  3438  0897  0A68               	incf	(_Temp+1)^(0+128),w
  3439  0898  0256               	subwf	(_averageTemp+1)^(0+128),w
  3440  0899  00A5               	movwf	(??_HeatingCoolingElement+1)^(0+128)
  3441  089A  3000               	movlw	0
  3442  089B  0225               	subwf	(??_HeatingCoolingElement+1)^(0+128),w
  3443  089C  3006               	movlw	6
  3444  089D  1903               	skipnz
  3445  089E  0224               	subwf	??_HeatingCoolingElement^(0+128),w
  3446  089F  1C03               	skipc
  3447  08A0  28A2               	goto	u3611
  3448  08A1  28A3               	goto	u3610
  3449  08A2                     u3611:
  3450  08A2  28B4               	goto	l280
  3451  08A3                     u3610:
  3452  08A3                     l2811:
  3453  08A3  0855               	movf	_averageTemp^(0+128),w
  3454  08A4  0267               	subwf	_Temp^(0+128),w
  3455  08A5  00A4               	movwf	??_HeatingCoolingElement^(0+128)
  3456  08A6  0856               	movf	(_averageTemp+1)^(0+128),w
  3457  08A7  1C03               	skipc
  3458  08A8  0A56               	incf	(_averageTemp+1)^(0+128),w
  3459  08A9  0268               	subwf	(_Temp+1)^(0+128),w
  3460  08AA  00A5               	movwf	(??_HeatingCoolingElement+1)^(0+128)
  3461  08AB  3000               	movlw	0
  3462  08AC  0225               	subwf	(??_HeatingCoolingElement+1)^(0+128),w
  3463  08AD  3005               	movlw	5
  3464  08AE  1903               	skipnz
  3465  08AF  0224               	subwf	??_HeatingCoolingElement^(0+128),w
  3466  08B0  1C03               	skipc
  3467  08B1  28B3               	goto	u3621
  3468  08B2  28B4               	goto	u3620
  3469  08B3                     u3621:
  3470  08B3  28BA               	goto	l2813
  3471  08B4                     u3620:
  3472  08B4                     l280:
  3473                           
  3474                           ;./Temperature.h: 153:         PORTCbits.RC5 = 0,
  3475  08B4  1283               	bcf	3,5	;RP0=0, select bank0
  3476  08B5  1303               	bcf	3,6	;RP1=0, select bank0
  3477  08B6  1287               	bcf	7,5	;volatile
  3478  08B7  1107               	bcf	7,2	;volatile
  3479                           
  3480                           ;./Temperature.h: 155:         TMR2ON =0;
  3481  08B8  1112               	bcf	18,2	;volatile
  3482                           
  3483                           ;./Temperature.h: 156:         PORTBbits.RB1 = 0;
  3484  08B9  1086               	bcf	6,1	;volatile
  3485  08BA                     l2813:
  3486                           
  3487                           ;./Temperature.h: 158:     _delay((unsigned long)((10)*(20000000/4000.0)));
  3488  08BA  3041               	movlw	65
  3489  08BB  1683               	bsf	3,5	;RP0=1, select bank1
  3490  08BC  1303               	bcf	3,6	;RP1=0, select bank1
  3491  08BD  00A5               	movwf	(??_HeatingCoolingElement^(0+128)+1)
  3492  08BE  30ED               	movlw	237
  3493  08BF  00A4               	movwf	??_HeatingCoolingElement^(0+128)
  3494  08C0                     u4207:
  3495  08C0  0BA4               	decfsz	??_HeatingCoolingElement^(0+128),f
  3496  08C1  28C0               	goto	u4207
  3497  08C2  0BA5               	decfsz	(??_HeatingCoolingElement^(0+128)+1),f
  3498  08C3  28C0               	goto	u4207
  3499  08C4  28C5               	nop2
  3500  08C5                     l281:
  3501  08C5  0008               	return
  3502  08C6                     __end_of_HeatingCoolingElement:
  3503                           
  3504                           	psect	text26
  3505  09FE                     __ptext26:	
  3506 ;; *************** function _CurrentTempDisplay *****************
  3507 ;; Defined at:
  3508 ;;		line 50 in file "./Temperature.h"
  3509 ;; Parameters:    Size  Location     Type
  3510 ;;		None
  3511 ;; Auto vars:     Size  Location     Type
  3512 ;;  b               2   20[BANK1 ] unsigned int 
  3513 ;;  a               2   18[BANK1 ] unsigned int 
  3514 ;; Return value:  Size  Location     Type
  3515 ;;                  1    wreg      void 
  3516 ;; Registers used:
  3517 ;;		wreg, fsr0l, fsr0h, status,2, status,0, btemp+1, pclath, cstack
  3518 ;; Tracked objects:
  3519 ;;		On entry : 0/0
  3520 ;;		On exit  : 0/0
  3521 ;;		Unchanged: 0/0
  3522 ;; Data sizes:     COMMON   BANK0   BANK1   BANK3   BANK2
  3523 ;;      Params:         0       0       0       0       0
  3524 ;;      Locals:         0       0       4       0       0
  3525 ;;      Temps:          0       0       2       0       0
  3526 ;;      Totals:         0       0       6       0       0
  3527 ;;Total ram usage:        6 bytes
  3528 ;; Hardware stack levels used:    1
  3529 ;; Hardware stack levels required when called:    5
  3530 ;; This function calls:
  3531 ;;		___lwdiv
  3532 ;;		___lwmod
  3533 ;; This function is called by:
  3534 ;;		_main
  3535 ;; This function uses a non-reentrant model
  3536 ;;
  3537                           
  3538                           
  3539                           ;psect for function _CurrentTempDisplay
  3540  09FE                     _CurrentTempDisplay:
  3541  09FE                     l2965:	
  3542                           ;incstack = 0
  3543                           ; Regs used in _CurrentTempDisplay: [wreg-fsr0h+status,2+status,0+btemp+1+pclath+cstack]
  3544                           
  3545                           
  3546                           ;./Temperature.h: 51:     unsigned int a,b;;./Temperature.h: 52:     a = ((currentTemp/1
      +                          0)%10);
  3547  09FE  300A               	movlw	10
  3548  09FF  1683               	bsf	3,5	;RP0=1, select bank1
  3549  0A00  1303               	bcf	3,6	;RP1=0, select bank1
  3550  0A01  00AB               	movwf	___lwmod@divisor^(0+128)
  3551  0A02  3000               	movlw	0
  3552  0A03  00AC               	movwf	(___lwmod@divisor^(0+128)+1)
  3553  0A04  300A               	movlw	10
  3554  0A05  00A4               	movwf	___lwdiv@divisor^(0+128)
  3555  0A06  3000               	movlw	0
  3556  0A07  00A5               	movwf	(___lwdiv@divisor^(0+128)+1)
  3557  0A08  0858               	movf	(_currentTemp+1)^(0+128),w
  3558  0A09  00A7               	movwf	(___lwdiv@dividend+1)^(0+128)
  3559  0A0A  0857               	movf	_currentTemp^(0+128),w
  3560  0A0B  00A6               	movwf	___lwdiv@dividend^(0+128)
  3561  0A0C  160A  118A  2757  120A  158A  	fcall	___lwdiv
  3562  0A11  1683               	bsf	3,5	;RP0=1, select bank1
  3563  0A12  1303               	bcf	3,6	;RP1=0, select bank1
  3564  0A13  0825               	movf	(?___lwdiv+1)^(0+128),w
  3565  0A14  00AE               	movwf	(___lwmod@dividend+1)^(0+128)
  3566  0A15  0824               	movf	?___lwdiv^(0+128),w
  3567  0A16  00AD               	movwf	___lwmod@dividend^(0+128)
  3568  0A17  160A  118A  271B  120A  158A  	fcall	___lwmod
  3569  0A1C  1683               	bsf	3,5	;RP0=1, select bank1
  3570  0A1D  1303               	bcf	3,6	;RP1=0, select bank1
  3571  0A1E  082C               	movf	(?___lwmod+1)^(0+128),w
  3572  0A1F  00B3               	movwf	(CurrentTempDisplay@a+1)^(0+128)
  3573  0A20  082B               	movf	?___lwmod^(0+128),w
  3574  0A21  00B2               	movwf	CurrentTempDisplay@a^(0+128)
  3575                           
  3576                           ;./Temperature.h: 53:     b = (currentTemp%10);
  3577  0A22  300A               	movlw	10
  3578  0A23  00AB               	movwf	___lwmod@divisor^(0+128)
  3579  0A24  3000               	movlw	0
  3580  0A25  00AC               	movwf	(___lwmod@divisor^(0+128)+1)
  3581  0A26  0858               	movf	(_currentTemp+1)^(0+128),w
  3582  0A27  00AE               	movwf	(___lwmod@dividend+1)^(0+128)
  3583  0A28  0857               	movf	_currentTemp^(0+128),w
  3584  0A29  00AD               	movwf	___lwmod@dividend^(0+128)
  3585  0A2A  160A  118A  271B  120A  158A  	fcall	___lwmod
  3586  0A2F  1683               	bsf	3,5	;RP0=1, select bank1
  3587  0A30  1303               	bcf	3,6	;RP1=0, select bank1
  3588  0A31  082C               	movf	(?___lwmod+1)^(0+128),w
  3589  0A32  00B5               	movwf	(CurrentTempDisplay@b+1)^(0+128)
  3590  0A33  082B               	movf	?___lwmod^(0+128),w
  3591  0A34  00B4               	movwf	CurrentTempDisplay@b^(0+128)
  3592  0A35                     l2967:
  3593                           
  3594                           ;./Temperature.h: 55:     RA4 = 1;
  3595  0A35  1283               	bcf	3,5	;RP0=0, select bank0
  3596  0A36  1303               	bcf	3,6	;RP1=0, select bank0
  3597  0A37  1605               	bsf	5,4	;volatile
  3598  0A38                     l2969:
  3599                           
  3600                           ;./Temperature.h: 56:     PORTD = binary_pattern[a];
  3601  0A38  1683               	bsf	3,5	;RP0=1, select bank1
  3602  0A39  1303               	bcf	3,6	;RP1=0, select bank1
  3603  0A3A  0832               	movf	CurrentTempDisplay@a^(0+128),w
  3604  0A3B  3EDB               	addlw	(low (_binary_pattern| 0))& (0+255)
  3605  0A3C  0084               	movwf	4
  3606  0A3D  1383               	bcf	3,7	;select IRP bank1
  3607  0A3E  0800               	movf	0,w
  3608  0A3F  1283               	bcf	3,5	;RP0=0, select bank0
  3609  0A40  1303               	bcf	3,6	;RP1=0, select bank0
  3610  0A41  0088               	movwf	8	;volatile
  3611  0A42                     l2971:
  3612                           
  3613                           ;./Temperature.h: 57:     _delay((unsigned long)((1)*(20000000/4000.0)));
  3614  0A42  3007               	movlw	7
  3615  0A43  1683               	bsf	3,5	;RP0=1, select bank1
  3616  0A44  1303               	bcf	3,6	;RP1=0, select bank1
  3617  0A45  00B1               	movwf	(??_CurrentTempDisplay^(0+128)+1)
  3618  0A46  307C               	movlw	124
  3619  0A47  00B0               	movwf	??_CurrentTempDisplay^(0+128)
  3620  0A48                     u4217:
  3621  0A48  0BB0               	decfsz	??_CurrentTempDisplay^(0+128),f
  3622  0A49  2A48               	goto	u4217
  3623  0A4A  0BB1               	decfsz	(??_CurrentTempDisplay^(0+128)+1),f
  3624  0A4B  2A48               	goto	u4217
  3625  0A4C  0000               	nop
  3626  0A4D                     l2973:
  3627                           
  3628                           ;./Temperature.h: 58:     RA4 = 0;
  3629  0A4D  1283               	bcf	3,5	;RP0=0, select bank0
  3630  0A4E  1303               	bcf	3,6	;RP1=0, select bank0
  3631  0A4F  1205               	bcf	5,4	;volatile
  3632  0A50                     l2975:
  3633                           
  3634                           ;./Temperature.h: 59:     RA5 = 1;
  3635  0A50  1685               	bsf	5,5	;volatile
  3636  0A51                     l2977:
  3637                           
  3638                           ;./Temperature.h: 60:     PORTD = binary_pattern[b];
  3639  0A51  1683               	bsf	3,5	;RP0=1, select bank1
  3640  0A52  1303               	bcf	3,6	;RP1=0, select bank1
  3641  0A53  0834               	movf	CurrentTempDisplay@b^(0+128),w
  3642  0A54  3EDB               	addlw	(low (_binary_pattern| 0))& (0+255)
  3643  0A55  0084               	movwf	4
  3644  0A56  1383               	bcf	3,7	;select IRP bank1
  3645  0A57  0800               	movf	0,w
  3646  0A58  1283               	bcf	3,5	;RP0=0, select bank0
  3647  0A59  1303               	bcf	3,6	;RP1=0, select bank0
  3648  0A5A  0088               	movwf	8	;volatile
  3649  0A5B                     l2979:
  3650                           
  3651                           ;./Temperature.h: 61:     _delay((unsigned long)((1)*(20000000/4000.0)));
  3652  0A5B  3007               	movlw	7
  3653  0A5C  1683               	bsf	3,5	;RP0=1, select bank1
  3654  0A5D  1303               	bcf	3,6	;RP1=0, select bank1
  3655  0A5E  00B1               	movwf	(??_CurrentTempDisplay^(0+128)+1)
  3656  0A5F  307C               	movlw	124
  3657  0A60  00B0               	movwf	??_CurrentTempDisplay^(0+128)
  3658  0A61                     u4227:
  3659  0A61  0BB0               	decfsz	??_CurrentTempDisplay^(0+128),f
  3660  0A62  2A61               	goto	u4227
  3661  0A63  0BB1               	decfsz	(??_CurrentTempDisplay^(0+128)+1),f
  3662  0A64  2A61               	goto	u4227
  3663  0A65  0000               	nop
  3664  0A66                     l2981:
  3665                           
  3666                           ;./Temperature.h: 62:     RA5 = 0;
  3667  0A66  1283               	bcf	3,5	;RP0=0, select bank0
  3668  0A67  1303               	bcf	3,6	;RP1=0, select bank0
  3669  0A68  1285               	bcf	5,5	;volatile
  3670  0A69                     l237:
  3671  0A69  0008               	return
  3672  0A6A                     __end_of_CurrentTempDisplay:
  3673                           
  3674                           	psect	text27
  3675  171B                     __ptext27:	
  3676 ;; *************** function ___lwmod *****************
  3677 ;; Defined at:
  3678 ;;		line 5 in file "C:\Program Files\Microchip\xc8\v2.20\pic\sources\c90\common\lwmod.c"
  3679 ;; Parameters:    Size  Location     Type
  3680 ;;  divisor         2   11[BANK1 ] unsigned int 
  3681 ;;  dividend        2   13[BANK1 ] unsigned int 
  3682 ;; Auto vars:     Size  Location     Type
  3683 ;;  counter         1   15[BANK1 ] unsigned char 
  3684 ;; Return value:  Size  Location     Type
  3685 ;;                  2   11[BANK1 ] unsigned int 
  3686 ;; Registers used:
  3687 ;;		wreg, status,2, status,0, btemp+1
  3688 ;; Tracked objects:
  3689 ;;		On entry : 0/0
  3690 ;;		On exit  : 0/0
  3691 ;;		Unchanged: 0/0
  3692 ;; Data sizes:     COMMON   BANK0   BANK1   BANK3   BANK2
  3693 ;;      Params:         0       0       4       0       0
  3694 ;;      Locals:         0       0       1       0       0
  3695 ;;      Temps:          0       0       0       0       0
  3696 ;;      Totals:         0       0       5       0       0
  3697 ;;Total ram usage:        5 bytes
  3698 ;; Hardware stack levels used:    1
  3699 ;; Hardware stack levels required when called:    4
  3700 ;; This function calls:
  3701 ;;		Nothing
  3702 ;; This function is called by:
  3703 ;;		_TempDisplay
  3704 ;;		_CurrentTempDisplay
  3705 ;; This function uses a non-reentrant model
  3706 ;;
  3707                           
  3708                           
  3709                           ;psect for function ___lwmod
  3710  171B                     ___lwmod:
  3711  171B                     l2185:	
  3712                           ;incstack = 0
  3713                           ; Regs used in ___lwmod: [wreg+status,2+status,0+btemp+1]
  3714                           
  3715  171B  1683               	bsf	3,5	;RP0=1, select bank1
  3716  171C  1303               	bcf	3,6	;RP1=0, select bank1
  3717  171D  082B               	movf	___lwmod@divisor^(0+128),w
  3718  171E  042C               	iorwf	(___lwmod@divisor+1)^(0+128),w
  3719  171F  1903               	btfsc	3,2
  3720  1720  2F22               	goto	u2391
  3721  1721  2F23               	goto	u2390
  3722  1722                     u2391:
  3723  1722  2F52               	goto	l2203
  3724  1723                     u2390:
  3725  1723                     l2187:
  3726  1723  01AF               	clrf	___lwmod@counter^(0+128)
  3727  1724  0AAF               	incf	___lwmod@counter^(0+128),f
  3728  1725  2F31               	goto	l2193
  3729  1726                     l2189:
  3730  1726  3001               	movlw	1
  3731  1727                     u2405:
  3732  1727  1003               	clrc
  3733  1728  0DAB               	rlf	___lwmod@divisor^(0+128),f
  3734  1729  0DAC               	rlf	(___lwmod@divisor+1)^(0+128),f
  3735  172A  3EFF               	addlw	-1
  3736  172B  1D03               	skipz
  3737  172C  2F27               	goto	u2405
  3738  172D                     l2191:
  3739  172D  3001               	movlw	1
  3740  172E  00FF               	movwf	btemp+1
  3741  172F  087F               	movf	btemp+1,w
  3742  1730  07AF               	addwf	___lwmod@counter^(0+128),f
  3743  1731                     l2193:
  3744  1731  1FAC               	btfss	(___lwmod@divisor+1)^(0+128),7
  3745  1732  2F34               	goto	u2411
  3746  1733  2F35               	goto	u2410
  3747  1734                     u2411:
  3748  1734  2F26               	goto	l2189
  3749  1735                     u2410:
  3750  1735                     l2195:
  3751  1735  082C               	movf	(___lwmod@divisor+1)^(0+128),w
  3752  1736  022E               	subwf	(___lwmod@dividend+1)^(0+128),w
  3753  1737  1D03               	skipz
  3754  1738  2F3B               	goto	u2425
  3755  1739  082B               	movf	___lwmod@divisor^(0+128),w
  3756  173A  022D               	subwf	___lwmod@dividend^(0+128),w
  3757  173B                     u2425:
  3758  173B  1C03               	skipc
  3759  173C  2F3E               	goto	u2421
  3760  173D  2F3F               	goto	u2420
  3761  173E                     u2421:
  3762  173E  2F45               	goto	l2199
  3763  173F                     u2420:
  3764  173F                     l2197:
  3765  173F  082B               	movf	___lwmod@divisor^(0+128),w
  3766  1740  02AD               	subwf	___lwmod@dividend^(0+128),f
  3767  1741  082C               	movf	(___lwmod@divisor+1)^(0+128),w
  3768  1742  1C03               	skipc
  3769  1743  03AE               	decf	(___lwmod@dividend+1)^(0+128),f
  3770  1744  02AE               	subwf	(___lwmod@dividend+1)^(0+128),f
  3771  1745                     l2199:
  3772  1745  3001               	movlw	1
  3773  1746                     u2435:
  3774  1746  1003               	clrc
  3775  1747  0CAC               	rrf	(___lwmod@divisor+1)^(0+128),f
  3776  1748  0CAB               	rrf	___lwmod@divisor^(0+128),f
  3777  1749  3EFF               	addlw	-1
  3778  174A  1D03               	skipz
  3779  174B  2F46               	goto	u2435
  3780  174C                     l2201:
  3781  174C  3001               	movlw	1
  3782  174D  02AF               	subwf	___lwmod@counter^(0+128),f
  3783  174E  1D03               	btfss	3,2
  3784  174F  2F51               	goto	u2441
  3785  1750  2F52               	goto	u2440
  3786  1751                     u2441:
  3787  1751  2F35               	goto	l2195
  3788  1752                     u2440:
  3789  1752                     l2203:
  3790  1752  082E               	movf	(___lwmod@dividend+1)^(0+128),w
  3791  1753  00AC               	movwf	(?___lwmod+1)^(0+128)
  3792  1754  082D               	movf	___lwmod@dividend^(0+128),w
  3793  1755  00AB               	movwf	?___lwmod^(0+128)
  3794  1756                     l679:
  3795  1756  0008               	return
  3796  1757                     __end_of___lwmod:
  3797                           
  3798                           	psect	text28
  3799  1757                     __ptext28:	
  3800 ;; *************** function ___lwdiv *****************
  3801 ;; Defined at:
  3802 ;;		line 5 in file "C:\Program Files\Microchip\xc8\v2.20\pic\sources\c90\common\lwdiv.c"
  3803 ;; Parameters:    Size  Location     Type
  3804 ;;  divisor         2    4[BANK1 ] unsigned int 
  3805 ;;  dividend        2    6[BANK1 ] unsigned int 
  3806 ;; Auto vars:     Size  Location     Type
  3807 ;;  quotient        2    8[BANK1 ] unsigned int 
  3808 ;;  counter         1   10[BANK1 ] unsigned char 
  3809 ;; Return value:  Size  Location     Type
  3810 ;;                  2    4[BANK1 ] unsigned int 
  3811 ;; Registers used:
  3812 ;;		wreg, status,2, status,0, btemp+1
  3813 ;; Tracked objects:
  3814 ;;		On entry : 0/0
  3815 ;;		On exit  : 0/0
  3816 ;;		Unchanged: 0/0
  3817 ;; Data sizes:     COMMON   BANK0   BANK1   BANK3   BANK2
  3818 ;;      Params:         0       0       4       0       0
  3819 ;;      Locals:         0       0       3       0       0
  3820 ;;      Temps:          0       0       0       0       0
  3821 ;;      Totals:         0       0       7       0       0
  3822 ;;Total ram usage:        7 bytes
  3823 ;; Hardware stack levels used:    1
  3824 ;; Hardware stack levels required when called:    4
  3825 ;; This function calls:
  3826 ;;		Nothing
  3827 ;; This function is called by:
  3828 ;;		_TempDisplay
  3829 ;;		_CurrentTempDisplay
  3830 ;; This function uses a non-reentrant model
  3831 ;;
  3832                           
  3833                           
  3834                           ;psect for function ___lwdiv
  3835  1757                     ___lwdiv:
  3836  1757                     l2159:	
  3837                           ;incstack = 0
  3838                           ; Regs used in ___lwdiv: [wreg+status,2+status,0+btemp+1]
  3839                           
  3840  1757  1683               	bsf	3,5	;RP0=1, select bank1
  3841  1758  1303               	bcf	3,6	;RP1=0, select bank1
  3842  1759  01A8               	clrf	___lwdiv@quotient^(0+128)
  3843  175A  01A9               	clrf	(___lwdiv@quotient+1)^(0+128)
  3844  175B                     l2161:
  3845  175B  0824               	movf	___lwdiv@divisor^(0+128),w
  3846  175C  0425               	iorwf	(___lwdiv@divisor+1)^(0+128),w
  3847  175D  1903               	btfsc	3,2
  3848  175E  2F60               	goto	u2321
  3849  175F  2F61               	goto	u2320
  3850  1760                     u2321:
  3851  1760  2F98               	goto	l2181
  3852  1761                     u2320:
  3853  1761                     l2163:
  3854  1761  01AA               	clrf	___lwdiv@counter^(0+128)
  3855  1762  0AAA               	incf	___lwdiv@counter^(0+128),f
  3856  1763  2F6F               	goto	l2169
  3857  1764                     l2165:
  3858  1764  3001               	movlw	1
  3859  1765                     u2335:
  3860  1765  1003               	clrc
  3861  1766  0DA4               	rlf	___lwdiv@divisor^(0+128),f
  3862  1767  0DA5               	rlf	(___lwdiv@divisor+1)^(0+128),f
  3863  1768  3EFF               	addlw	-1
  3864  1769  1D03               	skipz
  3865  176A  2F65               	goto	u2335
  3866  176B                     l2167:
  3867  176B  3001               	movlw	1
  3868  176C  00FF               	movwf	btemp+1
  3869  176D  087F               	movf	btemp+1,w
  3870  176E  07AA               	addwf	___lwdiv@counter^(0+128),f
  3871  176F                     l2169:
  3872  176F  1FA5               	btfss	(___lwdiv@divisor+1)^(0+128),7
  3873  1770  2F72               	goto	u2341
  3874  1771  2F73               	goto	u2340
  3875  1772                     u2341:
  3876  1772  2F64               	goto	l2165
  3877  1773                     u2340:
  3878  1773                     l2171:
  3879  1773  3001               	movlw	1
  3880  1774                     u2355:
  3881  1774  1003               	clrc
  3882  1775  0DA8               	rlf	___lwdiv@quotient^(0+128),f
  3883  1776  0DA9               	rlf	(___lwdiv@quotient+1)^(0+128),f
  3884  1777  3EFF               	addlw	-1
  3885  1778  1D03               	skipz
  3886  1779  2F74               	goto	u2355
  3887  177A  0825               	movf	(___lwdiv@divisor+1)^(0+128),w
  3888  177B  0227               	subwf	(___lwdiv@dividend+1)^(0+128),w
  3889  177C  1D03               	skipz
  3890  177D  2F80               	goto	u2365
  3891  177E  0824               	movf	___lwdiv@divisor^(0+128),w
  3892  177F  0226               	subwf	___lwdiv@dividend^(0+128),w
  3893  1780                     u2365:
  3894  1780  1C03               	skipc
  3895  1781  2F83               	goto	u2361
  3896  1782  2F84               	goto	u2360
  3897  1783                     u2361:
  3898  1783  2F8B               	goto	l2177
  3899  1784                     u2360:
  3900  1784                     l2173:
  3901  1784  0824               	movf	___lwdiv@divisor^(0+128),w
  3902  1785  02A6               	subwf	___lwdiv@dividend^(0+128),f
  3903  1786  0825               	movf	(___lwdiv@divisor+1)^(0+128),w
  3904  1787  1C03               	skipc
  3905  1788  03A7               	decf	(___lwdiv@dividend+1)^(0+128),f
  3906  1789  02A7               	subwf	(___lwdiv@dividend+1)^(0+128),f
  3907  178A                     l2175:
  3908  178A  1428               	bsf	___lwdiv@quotient^(0+128),0
  3909  178B                     l2177:
  3910  178B  3001               	movlw	1
  3911  178C                     u2375:
  3912  178C  1003               	clrc
  3913  178D  0CA5               	rrf	(___lwdiv@divisor+1)^(0+128),f
  3914  178E  0CA4               	rrf	___lwdiv@divisor^(0+128),f
  3915  178F  3EFF               	addlw	-1
  3916  1790  1D03               	skipz
  3917  1791  2F8C               	goto	u2375
  3918  1792                     l2179:
  3919  1792  3001               	movlw	1
  3920  1793  02AA               	subwf	___lwdiv@counter^(0+128),f
  3921  1794  1D03               	btfss	3,2
  3922  1795  2F97               	goto	u2381
  3923  1796  2F98               	goto	u2380
  3924  1797                     u2381:
  3925  1797  2F73               	goto	l2171
  3926  1798                     u2380:
  3927  1798                     l2181:
  3928  1798  0829               	movf	(___lwdiv@quotient+1)^(0+128),w
  3929  1799  00A5               	movwf	(?___lwdiv+1)^(0+128)
  3930  179A  0828               	movf	___lwdiv@quotient^(0+128),w
  3931  179B  00A4               	movwf	?___lwdiv^(0+128)
  3932  179C                     l669:
  3933  179C  0008               	return
  3934  179D                     __end_of___lwdiv:
  3935                           
  3936                           	psect	text29
  3937  0770                     __ptext29:	
  3938 ;; *************** function _ISR *****************
  3939 ;; Defined at:
  3940 ;;		line 12 in file "./ISRs.h"
  3941 ;; Parameters:    Size  Location     Type
  3942 ;;		None
  3943 ;; Auto vars:     Size  Location     Type
  3944 ;;		None
  3945 ;; Return value:  Size  Location     Type
  3946 ;;                  1    wreg      void 
  3947 ;; Registers used:
  3948 ;;		wreg, fsr0l, fsr0h, status,2, status,0, btemp+1, pclath, cstack
  3949 ;; Tracked objects:
  3950 ;;		On entry : 0/0
  3951 ;;		On exit  : 0/0
  3952 ;;		Unchanged: 0/0
  3953 ;; Data sizes:     COMMON   BANK0   BANK1   BANK3   BANK2
  3954 ;;      Params:         0       0       0       0       0
  3955 ;;      Locals:         0       0       0       0       0
  3956 ;;      Temps:          0       0       4       0       0
  3957 ;;      Totals:         0       0       4       0       0
  3958 ;;Total ram usage:        4 bytes
  3959 ;; Hardware stack levels used:    1
  3960 ;; Hardware stack levels required when called:    3
  3961 ;; This function calls:
  3962 ;;		_TempSensor
  3963 ;; This function is called by:
  3964 ;;		Interrupt level 1
  3965 ;; This function uses a non-reentrant model
  3966 ;;
  3967                           
  3968                           
  3969                           ;psect for function _ISR
  3970  0770                     _ISR:
  3971  0770                     i1l3031:
  3972                           
  3973                           ;./ISRs.h: 14:     if(TMR1IF==1){
  3974  0770  1283               	bcf	3,5	;RP0=0, select bank0
  3975  0771  1303               	bcf	3,6	;RP1=0, select bank0
  3976  0772  1C0C               	btfss	12,0	;volatile
  3977  0773  2F75               	goto	u403_21
  3978  0774  2F76               	goto	u403_20
  3979  0775                     u403_21:
  3980  0775  2F83               	goto	i1l3043
  3981  0776                     u403_20:
  3982  0776                     i1l3033:
  3983                           
  3984                           ;./ISRs.h: 15:         TempSensor();
  3985  0776  120A  158A  20C6  120A  118A  	fcall	_TempSensor
  3986  077B                     i1l3035:
  3987                           
  3988                           ;./ISRs.h: 16:         TMR1H=0x0B;
  3989  077B  300B               	movlw	11
  3990  077C  1283               	bcf	3,5	;RP0=0, select bank0
  3991  077D  1303               	bcf	3,6	;RP1=0, select bank0
  3992  077E  008F               	movwf	15	;volatile
  3993  077F                     i1l3037:
  3994                           
  3995                           ;./ISRs.h: 17:         TMR1L=0xDC;
  3996  077F  30DC               	movlw	220
  3997  0780  008E               	movwf	14	;volatile
  3998  0781                     i1l3039:
  3999                           
  4000                           ;./ISRs.h: 18:         TMR1IF=0;
  4001  0781  100C               	bcf	12,0	;volatile
  4002  0782                     i1l3041:
  4003                           
  4004                           ;./ISRs.h: 19:         GIE = 1;
  4005  0782  178B               	bsf	11,7	;volatile
  4006  0783                     i1l3043:
  4007                           
  4008                           ;./ISRs.h: 23:     if(TMR2IF==1){
  4009  0783  1C8C               	btfss	12,1	;volatile
  4010  0784  2F86               	goto	u404_21
  4011  0785  2F87               	goto	u404_20
  4012  0786                     u404_21:
  4013  0786  2FB1               	goto	i1l3061
  4014  0787                     u404_20:
  4015  0787                     i1l3045:
  4016                           
  4017                           ;./ISRs.h: 24:         TMR2 = 101;
  4018  0787  3065               	movlw	101
  4019  0788  0091               	movwf	17	;volatile
  4020  0789                     i1l3047:
  4021                           
  4022                           ;./ISRs.h: 25:         if(count>=200){
  4023  0789  1683               	bsf	3,5	;RP0=1, select bank1
  4024  078A  1303               	bcf	3,6	;RP1=0, select bank1
  4025  078B  084C               	movf	(_count+1)^(0+128),w
  4026  078C  3A80               	xorlw	128
  4027  078D  00FF               	movwf	btemp+1
  4028  078E  3080               	movlw	128
  4029  078F  027F               	subwf	btemp+1,w
  4030  0790  1D03               	skipz
  4031  0791  2F94               	goto	u405_25
  4032  0792  30C8               	movlw	200
  4033  0793  024B               	subwf	_count^(0+128),w
  4034  0794                     u405_25:
  4035  0794  1C03               	skipc
  4036  0795  2F97               	goto	u405_21
  4037  0796  2F98               	goto	u405_20
  4038  0797                     u405_21:
  4039  0797  2FA6               	goto	i1l3055
  4040  0798                     u405_20:
  4041  0798                     i1l3049:
  4042                           
  4043                           ;./ISRs.h: 26:             count=0;
  4044  0798  1683               	bsf	3,5	;RP0=1, select bank1
  4045  0799  1303               	bcf	3,6	;RP1=0, select bank1
  4046  079A  01CB               	clrf	_count^(0+128)
  4047  079B  01CC               	clrf	(_count+1)^(0+128)
  4048  079C                     i1l3051:
  4049                           
  4050                           ;./ISRs.h: 27:             value=~value;
  4051  079C  09CD               	comf	_value^(0+128),f
  4052  079D  09CE               	comf	(_value+1)^(0+128),f
  4053  079E                     i1l3053:
  4054                           
  4055                           ;./ISRs.h: 28:             PORTBbits.RB1 = value;
  4056  079E  0C4D               	rrf	_value^(0+128),w
  4057  079F  1283               	bcf	3,5	;RP0=0, select bank0
  4058  07A0  1303               	bcf	3,6	;RP1=0, select bank0
  4059  07A1  1C03               	skipc
  4060  07A2  1086               	bcf	6,1	;volatile
  4061  07A3  1803               	skipnc
  4062  07A4  1486               	bsf	6,1	;volatile
  4063                           
  4064                           ;./ISRs.h: 29:         }
  4065  07A5  2FAE               	goto	i1l3057
  4066  07A6                     i1l3055:
  4067                           
  4068                           ;./ISRs.h: 31:             count++;
  4069  07A6  3001               	movlw	1
  4070  07A7  1683               	bsf	3,5	;RP0=1, select bank1
  4071  07A8  1303               	bcf	3,6	;RP1=0, select bank1
  4072  07A9  07CB               	addwf	_count^(0+128),f
  4073  07AA  1803               	skipnc
  4074  07AB  0ACC               	incf	(_count+1)^(0+128),f
  4075  07AC  3000               	movlw	0
  4076  07AD  07CC               	addwf	(_count+1)^(0+128),f
  4077  07AE                     i1l3057:
  4078                           
  4079                           ;./ISRs.h: 33:         TMR2IF=0;
  4080  07AE  1283               	bcf	3,5	;RP0=0, select bank0
  4081  07AF  108C               	bcf	12,1	;volatile
  4082  07B0                     i1l3059:
  4083                           
  4084                           ;./ISRs.h: 34:         GIE = 1;
  4085  07B0  178B               	bsf	11,7	;volatile
  4086  07B1                     i1l3061:
  4087                           
  4088                           ;./ISRs.h: 38:     if(INTF==1){
  4089  07B1  1C8B               	btfss	11,1	;volatile
  4090  07B2  2FB4               	goto	u406_21
  4091  07B3  2FB5               	goto	u406_20
  4092  07B4                     u406_21:
  4093  07B4  2FDF               	goto	i1l300
  4094  07B5                     u406_20:
  4095  07B5                     i1l3063:
  4096                           
  4097                           ;./ISRs.h: 39:         Flag = ~Flag;
  4098  07B5  1683               	bsf	3,5	;RP0=1, select bank1
  4099  07B6  1303               	bcf	3,6	;RP1=0, select bank1
  4100  07B7  09C9               	comf	_Flag^(0+128),f
  4101  07B8  09CA               	comf	(_Flag+1)^(0+128),f
  4102  07B9                     i1l3065:
  4103                           
  4104                           ;./ISRs.h: 40:         if(Flag){
  4105  07B9  0849               	movf	_Flag^(0+128),w
  4106  07BA  044A               	iorwf	(_Flag+1)^(0+128),w
  4107  07BB  1903               	btfsc	3,2
  4108  07BC  2FBE               	goto	u407_21
  4109  07BD  2FBF               	goto	u407_20
  4110  07BE                     u407_21:
  4111  07BE  2FCB               	goto	i1l3075
  4112  07BF                     u407_20:
  4113  07BF                     i1l3067:
  4114                           
  4115                           ;./ISRs.h: 41:             TMR1ON=0;
  4116  07BF  1283               	bcf	3,5	;RP0=0, select bank0
  4117  07C0  1303               	bcf	3,6	;RP1=0, select bank0
  4118  07C1  1010               	bcf	16,0	;volatile
  4119                           
  4120                           ;./ISRs.h: 42:             TMR2ON =0;
  4121  07C2  1112               	bcf	18,2	;volatile
  4122  07C3                     i1l3069:
  4123                           
  4124                           ;./ISRs.h: 43:             PORTA=0;
  4125  07C3  0185               	clrf	5	;volatile
  4126                           
  4127                           ;./ISRs.h: 44:             PORTB=0;
  4128  07C4  0186               	clrf	6	;volatile
  4129                           
  4130                           ;./ISRs.h: 45:             PORTC=0;
  4131  07C5  0187               	clrf	7	;volatile
  4132                           
  4133                           ;./ISRs.h: 46:             PORTD=0;
  4134  07C6  0188               	clrf	8	;volatile
  4135  07C7                     i1l3071:
  4136                           
  4137                           ;./ISRs.h: 47:             INTF=0;
  4138  07C7  108B               	bcf	11,1	;volatile
  4139  07C8                     i1l3073:
  4140                           
  4141                           ;./ISRs.h: 48:             GIE = 1;
  4142  07C8  178B               	bsf	11,7	;volatile
  4143  07C9  0063               	sleep	;# 
  4144                           
  4145                           ;./ISRs.h: 50:         }
  4146  07CA  2FDD               	goto	i1l3081
  4147  07CB                     i1l3075:
  4148  07CB  0849               	movf	_Flag^(0+128),w
  4149  07CC  044A               	iorwf	(_Flag+1)^(0+128),w
  4150  07CD  1D03               	btfss	3,2
  4151  07CE  2FD0               	goto	u408_21
  4152  07CF  2FD1               	goto	u408_20
  4153  07D0                     u408_21:
  4154  07D0  2FDD               	goto	i1l3081
  4155  07D1                     u408_20:
  4156  07D1                     i1l3077:
  4157                           
  4158                           ;./ISRs.h: 52:             TMR1ON=1;
  4159  07D1  1283               	bcf	3,5	;RP0=0, select bank0
  4160  07D2  1303               	bcf	3,6	;RP1=0, select bank0
  4161  07D3  1410               	bsf	16,0	;volatile
  4162                           
  4163                           ;./ISRs.h: 53:             TMR2ON =1;
  4164  07D4  1512               	bsf	18,2	;volatile
  4165  07D5                     i1l3079:
  4166                           
  4167                           ;./ISRs.h: 54:             PORTA=1;
  4168  07D5  3001               	movlw	1
  4169  07D6  0085               	movwf	5	;volatile
  4170                           
  4171                           ;./ISRs.h: 55:             PORTB=1;
  4172  07D7  3001               	movlw	1
  4173  07D8  0086               	movwf	6	;volatile
  4174                           
  4175                           ;./ISRs.h: 56:             PORTC=1;
  4176  07D9  3001               	movlw	1
  4177  07DA  0087               	movwf	7	;volatile
  4178                           
  4179                           ;./ISRs.h: 57:             PORTD=1;
  4180  07DB  3001               	movlw	1
  4181  07DC  0088               	movwf	8	;volatile
  4182  07DD                     i1l3081:
  4183                           
  4184                           ;./ISRs.h: 59:         INTF=0;
  4185  07DD  108B               	bcf	11,1	;volatile
  4186  07DE                     i1l3083:
  4187                           
  4188                           ;./ISRs.h: 60:         GIE = 1;
  4189  07DE  178B               	bsf	11,7	;volatile
  4190  07DF                     i1l300:
  4191  07DF  1683               	bsf	3,5	;RP0=1, select bank1
  4192  07E0  1303               	bcf	3,6	;RP1=0, select bank1
  4193  07E1  0823               	movf	(??_ISR+3)^(0+128),w
  4194  07E2  1283               	bcf	3,5	;RP0=0, select bank0
  4195  07E3  1303               	bcf	3,6	;RP1=0, select bank0
  4196  07E4  00FF               	movwf	btemp+1
  4197  07E5  1683               	bsf	3,5	;RP0=1, select bank1
  4198  07E6  1303               	bcf	3,6	;RP1=0, select bank1
  4199  07E7  0822               	movf	(??_ISR+2)^(0+128),w
  4200  07E8  008A               	movwf	10
  4201  07E9  0821               	movf	(??_ISR+1)^(0+128),w
  4202  07EA  0084               	movwf	4
  4203  07EB  0E20               	swapf	??_ISR^(0+128),w
  4204  07EC  0083               	movwf	3
  4205  07ED  0EFE               	swapf	btemp,f
  4206  07EE  0E7E               	swapf	btemp,w
  4207  07EF  0009               	retfie
  4208  07F0                     __end_of_ISR:
  4209                           
  4210                           	psect	intentry
  4211  0004                     __pintentry:	
  4212                           ;incstack = 0
  4213 ;; hardware stack exceeded
  4214                           ; Regs used in _ISR: [wreg-fsr0h+status,2+status,0+btemp+1+pclath+cstack]
  4215                           
  4216  0004                     interrupt_function:
  4217  007E                     saved_w	set	btemp
  4218  0004  00FE               	movwf	btemp
  4219  0005  0E03               	swapf	3,w
  4220  0006  1683               	bsf	3,5	;RP0=1, select bank1
  4221  0007  1303               	bcf	3,6	;RP1=0, select bank1
  4222  0008  00A0               	movwf	??_ISR^(0+128)
  4223  0009  0804               	movf	4,w
  4224  000A  00A1               	movwf	(??_ISR+1)^(0+128)
  4225  000B  080A               	movf	10,w
  4226  000C  00A2               	movwf	(??_ISR+2)^(0+128)
  4227  000D  1283               	bcf	3,5	;RP0=0, select bank0
  4228  000E  1303               	bcf	3,6	;RP1=0, select bank0
  4229  000F  087F               	movf	btemp+1,w
  4230  0010  1683               	bsf	3,5	;RP0=1, select bank1
  4231  0011  1303               	bcf	3,6	;RP1=0, select bank1
  4232  0012  00A3               	movwf	(??_ISR+3)^(0+128)
  4233  0013  120A  118A  2F70   	ljmp	_ISR
  4234                           
  4235                           	psect	text30
  4236  08C6                     __ptext30:	
  4237 ;; *************** function _TempSensor *****************
  4238 ;; Defined at:
  4239 ;;		line 111 in file "./Temperature.h"
  4240 ;; Parameters:    Size  Location     Type
  4241 ;;		None
  4242 ;; Auto vars:     Size  Location     Type
  4243 ;;		None
  4244 ;; Return value:  Size  Location     Type
  4245 ;;                  1    wreg      void 
  4246 ;; Registers used:
  4247 ;;		wreg, fsr0l, fsr0h, status,2, status,0, btemp+1, pclath, cstack
  4248 ;; Tracked objects:
  4249 ;;		On entry : 0/0
  4250 ;;		On exit  : 0/0
  4251 ;;		Unchanged: 0/0
  4252 ;; Data sizes:     COMMON   BANK0   BANK1   BANK3   BANK2
  4253 ;;      Params:         0       0       0       0       0
  4254 ;;      Locals:         0       0       0       0       0
  4255 ;;      Temps:          0       0       0       0       0
  4256 ;;      Totals:         0       0       0       0       0
  4257 ;;Total ram usage:        0 bytes
  4258 ;; Hardware stack levels used:    1
  4259 ;; Hardware stack levels required when called:    2
  4260 ;; This function calls:
  4261 ;;		_ADC_Read
  4262 ;;		_AverageTemp
  4263 ;;		___fldiv
  4264 ;;		___flmul
  4265 ;;		___fltol
  4266 ;;		___xxtofl
  4267 ;; This function is called by:
  4268 ;;		_ISR
  4269 ;; This function uses a non-reentrant model
  4270 ;;
  4271                           
  4272                           
  4273                           ;psect for function _TempSensor
  4274  08C6                     _TempSensor:
  4275  08C6                     i1l2983:	
  4276                           ;incstack = 0
  4277 ;; hardware stack exceeded
  4278                           ; Regs used in _TempSensor: [wreg-fsr0h+status,2+status,0+btemp+1+pclath+cstack]
  4279                           
  4280                           
  4281                           ;./Temperature.h: 112:     ADCResult = ADC_Read();
  4282  08C6  160A  118A  26E0  120A  158A  	fcall	_ADC_Read
  4283  08CB  0871               	movf	?_ADC_Read+1,w
  4284  08CC  1683               	bsf	3,5	;RP0=1, select bank1
  4285  08CD  1303               	bcf	3,6	;RP1=0, select bank1
  4286  08CE  00DA               	movwf	(_ADCResult+1)^(0+128)
  4287  08CF  0870               	movf	?_ADC_Read,w
  4288  08D0  00D9               	movwf	_ADCResult^(0+128)
  4289  08D1                     i1l2985:
  4290                           
  4291                           ;./Temperature.h: 113:     currentTemp = (ADCResult*5.0) / 10.24;
  4292  08D1  0859               	movf	_ADCResult^(0+128),w
  4293  08D2  00F0               	movwf	___xxtofl@val
  4294  08D3  085A               	movf	(_ADCResult+1)^(0+128),w
  4295  08D4  00F1               	movwf	___xxtofl@val+1
  4296  08D5  01F2               	clrf	___xxtofl@val+2
  4297  08D6  01F3               	clrf	___xxtofl@val+3
  4298  08D7  3000               	movlw	0
  4299  08D8  120A  118A  2632  120A  158A  	fcall	___xxtofl
  4300  08DD  0873               	movf	?___xxtofl+3,w
  4301  08DE  1283               	bcf	3,5	;RP0=0, select bank0
  4302  08DF  1303               	bcf	3,6	;RP1=0, select bank0
  4303  08E0  00A7               	movwf	___flmul@a+3
  4304  08E1  0872               	movf	?___xxtofl+2,w
  4305  08E2  00A6               	movwf	___flmul@a+2
  4306  08E3  0871               	movf	?___xxtofl+1,w
  4307  08E4  00A5               	movwf	___flmul@a+1
  4308  08E5  0870               	movf	?___xxtofl,w
  4309  08E6  00A4               	movwf	___flmul@a
  4310  08E7  3040               	movlw	64
  4311  08E8  00A3               	movwf	___flmul@b+3
  4312  08E9  30A0               	movlw	160
  4313  08EA  00A2               	movwf	___flmul@b+2
  4314  08EB  3000               	movlw	0
  4315  08EC  00A1               	movwf	___flmul@b+1
  4316  08ED  3000               	movlw	0
  4317  08EE  00A0               	movwf	___flmul@b
  4318  08EF  120A  118A  203D  120A  158A  	fcall	___flmul
  4319  08F4  1283               	bcf	3,5	;RP0=0, select bank0
  4320  08F5  1303               	bcf	3,6	;RP1=0, select bank0
  4321  08F6  0823               	movf	?___flmul+3,w
  4322  08F7  00C1               	movwf	___fldiv@b+3
  4323  08F8  0822               	movf	?___flmul+2,w
  4324  08F9  00C0               	movwf	___fldiv@b+2
  4325  08FA  0821               	movf	?___flmul+1,w
  4326  08FB  00BF               	movwf	___fldiv@b+1
  4327  08FC  0820               	movf	?___flmul,w
  4328  08FD  00BE               	movwf	___fldiv@b
  4329  08FE  3041               	movlw	65
  4330  08FF  00BD               	movwf	___fldiv@a+3
  4331  0900  3023               	movlw	35
  4332  0901  00BC               	movwf	___fldiv@a+2
  4333  0902  30D7               	movlw	215
  4334  0903  00BB               	movwf	___fldiv@a+1
  4335  0904  300A               	movlw	10
  4336  0905  00BA               	movwf	___fldiv@a
  4337  0906  120A  158A  23D5  120A  158A  	fcall	___fldiv
  4338  090B  1283               	bcf	3,5	;RP0=0, select bank0
  4339  090C  1303               	bcf	3,6	;RP1=0, select bank0
  4340  090D  083D               	movf	?___fldiv+3,w
  4341  090E  00D7               	movwf	___fltol@f1+3
  4342  090F  083C               	movf	?___fldiv+2,w
  4343  0910  00D6               	movwf	___fltol@f1+2
  4344  0911  083B               	movf	?___fldiv+1,w
  4345  0912  00D5               	movwf	___fltol@f1+1
  4346  0913  083A               	movf	?___fldiv,w
  4347  0914  00D4               	movwf	___fltol@f1
  4348  0915  120A  158A  2359  120A  158A  	fcall	___fltol
  4349  091A  1283               	bcf	3,5	;RP0=0, select bank0
  4350  091B  1303               	bcf	3,6	;RP1=0, select bank0
  4351  091C  0855               	movf	?___fltol+1,w
  4352  091D  1683               	bsf	3,5	;RP0=1, select bank1
  4353  091E  1303               	bcf	3,6	;RP1=0, select bank1
  4354  091F  00D8               	movwf	(_currentTemp+1)^(0+128)
  4355  0920  1283               	bcf	3,5	;RP0=0, select bank0
  4356  0921  1303               	bcf	3,6	;RP1=0, select bank0
  4357  0922  0854               	movf	?___fltol,w
  4358  0923  1683               	bsf	3,5	;RP0=1, select bank1
  4359  0924  1303               	bcf	3,6	;RP1=0, select bank1
  4360  0925  00D7               	movwf	_currentTemp^(0+128)
  4361  0926                     i1l2987:
  4362                           
  4363                           ;./Temperature.h: 114:     AverageTemp();
  4364  0926  120A  158A  25B2  120A  158A  	fcall	_AverageTemp
  4365  092B                     i1l262:
  4366  092B  0008               	return
  4367  092C                     __end_of_TempSensor:
  4368                           
  4369                           	psect	text31
  4370  003D                     __ptext31:	
  4371 ;; *************** function ___flmul *****************
  4372 ;; Defined at:
  4373 ;;		line 8 in file "C:\Program Files\Microchip\xc8\v2.20\pic\sources\c90\common\sprcmul.c"
  4374 ;; Parameters:    Size  Location     Type
  4375 ;;  b               4    0[BANK0 ] void 
  4376 ;;  a               4    4[BANK0 ] void 
  4377 ;; Auto vars:     Size  Location     Type
  4378 ;;  prod            4   20[BANK0 ] struct .
  4379 ;;  grs             4   14[BANK0 ] unsigned long 
  4380 ;;  temp            2   24[BANK0 ] struct .
  4381 ;;  bexp            1   19[BANK0 ] unsigned char 
  4382 ;;  aexp            1   18[BANK0 ] unsigned char 
  4383 ;;  sign            1   13[BANK0 ] unsigned char 
  4384 ;; Return value:  Size  Location     Type
  4385 ;;                  4    0[BANK0 ] unsigned char 
  4386 ;; Registers used:
  4387 ;;		wreg, status,2, status,0, btemp+1, pclath, cstack
  4388 ;; Tracked objects:
  4389 ;;		On entry : 0/0
  4390 ;;		On exit  : 0/0
  4391 ;;		Unchanged: 0/0
  4392 ;; Data sizes:     COMMON   BANK0   BANK1   BANK3   BANK2
  4393 ;;      Params:         0       8       0       0       0
  4394 ;;      Locals:         0      13       0       0       0
  4395 ;;      Temps:          0       5       0       0       0
  4396 ;;      Totals:         0      26       0       0       0
  4397 ;;Total ram usage:       26 bytes
  4398 ;; Hardware stack levels used:    1
  4399 ;; Hardware stack levels required when called:    1
  4400 ;; This function calls:
  4401 ;;		__Umul8_16
  4402 ;; This function is called by:
  4403 ;;		_TempSensor
  4404 ;; This function uses a non-reentrant model
  4405 ;;
  4406                           
  4407                           
  4408                           ;psect for function ___flmul
  4409  003D                     ___flmul:
  4410  003D                     i1l2815:	
  4411                           ;incstack = 0
  4412 ;; hardware stack exceeded
  4413                           ; Regs used in ___flmul: [wreg+status,2+status,0+btemp+1+pclath+cstack]
  4414                           
  4415  003D  1283               	bcf	3,5	;RP0=0, select bank0
  4416  003E  1303               	bcf	3,6	;RP1=0, select bank0
  4417  003F  0823               	movf	___flmul@b+3,w
  4418  0040  3980               	andlw	128
  4419  0041  00FF               	movwf	btemp+1
  4420  0042  087F               	movf	btemp+1,w
  4421  0043  00AD               	movwf	___flmul@sign
  4422  0044                     i1l2817:
  4423  0044  0823               	movf	___flmul@b+3,w
  4424  0045  00A8               	movwf	??___flmul
  4425  0046  0728               	addwf	??___flmul,w
  4426  0047  00FF               	movwf	btemp+1
  4427  0048  087F               	movf	btemp+1,w
  4428  0049  00B3               	movwf	___flmul@bexp
  4429  004A                     i1l2819:
  4430  004A  1FA2               	btfss	___flmul@b+2,7
  4431  004B  284D               	goto	u363_21
  4432  004C  284E               	goto	u363_20
  4433  004D                     u363_21:
  4434  004D  284F               	goto	i1l2823
  4435  004E                     u363_20:
  4436  004E                     i1l2821:
  4437  004E  1433               	bsf	___flmul@bexp,0
  4438  004F                     i1l2823:
  4439  004F  0833               	movf	___flmul@bexp,w
  4440  0050  1903               	btfsc	3,2
  4441  0051  2853               	goto	u364_21
  4442  0052  2854               	goto	u364_20
  4443  0053                     u364_21:
  4444  0053  2863               	goto	i1l2831
  4445  0054                     u364_20:
  4446  0054                     i1l2825:
  4447  0054  0A33               	incf	___flmul@bexp,w
  4448  0055  1D03               	btfss	3,2
  4449  0056  2858               	goto	u365_21
  4450  0057  2859               	goto	u365_20
  4451  0058                     u365_21:
  4452  0058  2861               	goto	i1l2829
  4453  0059                     u365_20:
  4454  0059                     i1l2827:
  4455  0059  3000               	movlw	0
  4456  005A  00A3               	movwf	___flmul@b+3
  4457  005B  3000               	movlw	0
  4458  005C  00A2               	movwf	___flmul@b+2
  4459  005D  3000               	movlw	0
  4460  005E  00A1               	movwf	___flmul@b+1
  4461  005F  3000               	movlw	0
  4462  0060  00A0               	movwf	___flmul@b
  4463  0061                     i1l2829:
  4464  0061  17A2               	bsf	___flmul@b+2,7
  4465  0062  286B               	goto	i1l2833
  4466  0063                     i1l2831:
  4467  0063  3000               	movlw	0
  4468  0064  00A3               	movwf	___flmul@b+3
  4469  0065  3000               	movlw	0
  4470  0066  00A2               	movwf	___flmul@b+2
  4471  0067  3000               	movlw	0
  4472  0068  00A1               	movwf	___flmul@b+1
  4473  0069  3000               	movlw	0
  4474  006A  00A0               	movwf	___flmul@b
  4475  006B                     i1l2833:
  4476  006B  0827               	movf	___flmul@a+3,w
  4477  006C  3980               	andlw	128
  4478  006D  00FF               	movwf	btemp+1
  4479  006E  087F               	movf	btemp+1,w
  4480  006F  06AD               	xorwf	___flmul@sign,f
  4481  0070                     i1l2835:
  4482  0070  0827               	movf	___flmul@a+3,w
  4483  0071  00A8               	movwf	??___flmul
  4484  0072  0728               	addwf	??___flmul,w
  4485  0073  00FF               	movwf	btemp+1
  4486  0074  087F               	movf	btemp+1,w
  4487  0075  00B2               	movwf	___flmul@aexp
  4488  0076                     i1l2837:
  4489  0076  1FA6               	btfss	___flmul@a+2,7
  4490  0077  2879               	goto	u366_21
  4491  0078  287A               	goto	u366_20
  4492  0079                     u366_21:
  4493  0079  287B               	goto	i1l2841
  4494  007A                     u366_20:
  4495  007A                     i1l2839:
  4496  007A  1432               	bsf	___flmul@aexp,0
  4497  007B                     i1l2841:
  4498  007B  0832               	movf	___flmul@aexp,w
  4499  007C  1903               	btfsc	3,2
  4500  007D  287F               	goto	u367_21
  4501  007E  2880               	goto	u367_20
  4502  007F                     u367_21:
  4503  007F  288F               	goto	i1l2849
  4504  0080                     u367_20:
  4505  0080                     i1l2843:
  4506  0080  0A32               	incf	___flmul@aexp,w
  4507  0081  1D03               	btfss	3,2
  4508  0082  2884               	goto	u368_21
  4509  0083  2885               	goto	u368_20
  4510  0084                     u368_21:
  4511  0084  288D               	goto	i1l2847
  4512  0085                     u368_20:
  4513  0085                     i1l2845:
  4514  0085  3000               	movlw	0
  4515  0086  00A7               	movwf	___flmul@a+3
  4516  0087  3000               	movlw	0
  4517  0088  00A6               	movwf	___flmul@a+2
  4518  0089  3000               	movlw	0
  4519  008A  00A5               	movwf	___flmul@a+1
  4520  008B  3000               	movlw	0
  4521  008C  00A4               	movwf	___flmul@a
  4522  008D                     i1l2847:
  4523  008D  17A6               	bsf	___flmul@a+2,7
  4524  008E  2897               	goto	i1l2851
  4525  008F                     i1l2849:
  4526  008F  3000               	movlw	0
  4527  0090  00A7               	movwf	___flmul@a+3
  4528  0091  3000               	movlw	0
  4529  0092  00A6               	movwf	___flmul@a+2
  4530  0093  3000               	movlw	0
  4531  0094  00A5               	movwf	___flmul@a+1
  4532  0095  3000               	movlw	0
  4533  0096  00A4               	movwf	___flmul@a
  4534  0097                     i1l2851:
  4535  0097  0832               	movf	___flmul@aexp,w
  4536  0098  1903               	btfsc	3,2
  4537  0099  289B               	goto	u369_21
  4538  009A  289C               	goto	u369_20
  4539  009B                     u369_21:
  4540  009B  28A1               	goto	i1l2855
  4541  009C                     u369_20:
  4542  009C                     i1l2853:
  4543  009C  0833               	movf	___flmul@bexp,w
  4544  009D  1D03               	btfss	3,2
  4545  009E  28A0               	goto	u370_21
  4546  009F  28A1               	goto	u370_20
  4547  00A0                     u370_21:
  4548  00A0  28AA               	goto	i1l2859
  4549  00A1                     u370_20:
  4550  00A1                     i1l2855:
  4551  00A1  3000               	movlw	0
  4552  00A2  00A3               	movwf	?___flmul+3
  4553  00A3  3000               	movlw	0
  4554  00A4  00A2               	movwf	?___flmul+2
  4555  00A5  3000               	movlw	0
  4556  00A6  00A1               	movwf	?___flmul+1
  4557  00A7  3000               	movlw	0
  4558  00A8  00A0               	movwf	?___flmul
  4559  00A9  2B9D               	goto	i1l786
  4560  00AA                     i1l2859:
  4561  00AA  0820               	movf	___flmul@b,w
  4562  00AB  00FF               	movwf	btemp+1
  4563  00AC  087F               	movf	btemp+1,w
  4564  00AD  00F0               	movwf	__Umul8_16@multiplicand
  4565  00AE  0826               	movf	___flmul@a+2,w
  4566  00AF  160A  118A  2683  120A  118A  	fcall	__Umul8_16
  4567  00B4  0871               	movf	?__Umul8_16+1,w
  4568  00B5  1283               	bcf	3,5	;RP0=0, select bank0
  4569  00B6  1303               	bcf	3,6	;RP1=0, select bank0
  4570  00B7  00B9               	movwf	___flmul@temp+1
  4571  00B8  0870               	movf	?__Umul8_16,w
  4572  00B9  00B8               	movwf	___flmul@temp
  4573  00BA                     i1l2861:
  4574  00BA  0838               	movf	___flmul@temp,w
  4575  00BB  00A8               	movwf	??___flmul
  4576  00BC  01A9               	clrf	??___flmul+1
  4577  00BD  01AA               	clrf	??___flmul+2
  4578  00BE  01AB               	clrf	??___flmul+3
  4579  00BF  082B               	movf	??___flmul+3,w
  4580  00C0  00B1               	movwf	___flmul@grs+3
  4581  00C1  082A               	movf	??___flmul+2,w
  4582  00C2  00B0               	movwf	___flmul@grs+2
  4583  00C3  0829               	movf	??___flmul+1,w
  4584  00C4  00AF               	movwf	___flmul@grs+1
  4585  00C5  0828               	movf	??___flmul,w
  4586  00C6  00AE               	movwf	___flmul@grs
  4587  00C7                     i1l2863:
  4588  00C7  0839               	movf	___flmul@temp+1,w
  4589  00C8  00A8               	movwf	??___flmul
  4590  00C9  01A9               	clrf	??___flmul+1
  4591  00CA  01AA               	clrf	??___flmul+2
  4592  00CB  01AB               	clrf	??___flmul+3
  4593  00CC  082B               	movf	??___flmul+3,w
  4594  00CD  00B7               	movwf	___flmul@prod+3
  4595  00CE  082A               	movf	??___flmul+2,w
  4596  00CF  00B6               	movwf	___flmul@prod+2
  4597  00D0  0829               	movf	??___flmul+1,w
  4598  00D1  00B5               	movwf	___flmul@prod+1
  4599  00D2  0828               	movf	??___flmul,w
  4600  00D3  00B4               	movwf	___flmul@prod
  4601  00D4  0821               	movf	___flmul@b+1,w
  4602  00D5  00FF               	movwf	btemp+1
  4603  00D6  087F               	movf	btemp+1,w
  4604  00D7  00F0               	movwf	__Umul8_16@multiplicand
  4605  00D8  0825               	movf	___flmul@a+1,w
  4606  00D9  160A  118A  2683  120A  118A  	fcall	__Umul8_16
  4607  00DE  0871               	movf	?__Umul8_16+1,w
  4608  00DF  1283               	bcf	3,5	;RP0=0, select bank0
  4609  00E0  1303               	bcf	3,6	;RP1=0, select bank0
  4610  00E1  00B9               	movwf	___flmul@temp+1
  4611  00E2  0870               	movf	?__Umul8_16,w
  4612  00E3  00B8               	movwf	___flmul@temp
  4613  00E4                     i1l2865:
  4614  00E4  0838               	movf	___flmul@temp,w
  4615  00E5  00A8               	movwf	??___flmul
  4616  00E6  01A9               	clrf	??___flmul+1
  4617  00E7  01AA               	clrf	??___flmul+2
  4618  00E8  01AB               	clrf	??___flmul+3
  4619  00E9  0828               	movf	??___flmul,w
  4620  00EA  07AE               	addwf	___flmul@grs,f
  4621  00EB  0829               	movf	??___flmul+1,w
  4622  00EC  1103               	clrz
  4623  00ED  1803               	skipnc
  4624  00EE  3E01               	addlw	1
  4625  00EF  1903               	skipnz
  4626  00F0  28F2               	goto	u371_21
  4627  00F1  07AF               	addwf	___flmul@grs+1,f
  4628  00F2                     u371_21:
  4629  00F2  082A               	movf	??___flmul+2,w
  4630  00F3  1103               	clrz
  4631  00F4  1803               	skipnc
  4632  00F5  3E01               	addlw	1
  4633  00F6  1903               	skipnz
  4634  00F7  28F9               	goto	u371_22
  4635  00F8  07B0               	addwf	___flmul@grs+2,f
  4636  00F9                     u371_22:
  4637  00F9  082B               	movf	??___flmul+3,w
  4638  00FA  1103               	clrz
  4639  00FB  1803               	skipnc
  4640  00FC  3E01               	addlw	1
  4641  00FD  1903               	skipnz
  4642  00FE  2900               	goto	u371_23
  4643  00FF  07B1               	addwf	___flmul@grs+3,f
  4644  0100                     u371_23:
  4645  0100                     i1l2867:
  4646  0100  0839               	movf	___flmul@temp+1,w
  4647  0101  00A8               	movwf	??___flmul
  4648  0102  01A9               	clrf	??___flmul+1
  4649  0103  01AA               	clrf	??___flmul+2
  4650  0104  01AB               	clrf	??___flmul+3
  4651  0105  0828               	movf	??___flmul,w
  4652  0106  07B4               	addwf	___flmul@prod,f
  4653  0107  0829               	movf	??___flmul+1,w
  4654  0108  1103               	clrz
  4655  0109  1803               	skipnc
  4656  010A  3E01               	addlw	1
  4657  010B  1903               	skipnz
  4658  010C  290E               	goto	u372_21
  4659  010D  07B5               	addwf	___flmul@prod+1,f
  4660  010E                     u372_21:
  4661  010E  082A               	movf	??___flmul+2,w
  4662  010F  1103               	clrz
  4663  0110  1803               	skipnc
  4664  0111  3E01               	addlw	1
  4665  0112  1903               	skipnz
  4666  0113  2915               	goto	u372_22
  4667  0114  07B6               	addwf	___flmul@prod+2,f
  4668  0115                     u372_22:
  4669  0115  082B               	movf	??___flmul+3,w
  4670  0116  1103               	clrz
  4671  0117  1803               	skipnc
  4672  0118  3E01               	addlw	1
  4673  0119  1903               	skipnz
  4674  011A  291C               	goto	u372_23
  4675  011B  07B7               	addwf	___flmul@prod+3,f
  4676  011C                     u372_23:
  4677  011C  0822               	movf	___flmul@b+2,w
  4678  011D  00FF               	movwf	btemp+1
  4679  011E  087F               	movf	btemp+1,w
  4680  011F  00F0               	movwf	__Umul8_16@multiplicand
  4681  0120  0824               	movf	___flmul@a,w
  4682  0121  160A  118A  2683  120A  118A  	fcall	__Umul8_16
  4683  0126  0871               	movf	?__Umul8_16+1,w
  4684  0127  1283               	bcf	3,5	;RP0=0, select bank0
  4685  0128  1303               	bcf	3,6	;RP1=0, select bank0
  4686  0129  00B9               	movwf	___flmul@temp+1
  4687  012A  0870               	movf	?__Umul8_16,w
  4688  012B  00B8               	movwf	___flmul@temp
  4689  012C                     i1l2869:
  4690  012C  0838               	movf	___flmul@temp,w
  4691  012D  00A8               	movwf	??___flmul
  4692  012E  01A9               	clrf	??___flmul+1
  4693  012F  01AA               	clrf	??___flmul+2
  4694  0130  01AB               	clrf	??___flmul+3
  4695  0131  0828               	movf	??___flmul,w
  4696  0132  07AE               	addwf	___flmul@grs,f
  4697  0133  0829               	movf	??___flmul+1,w
  4698  0134  1103               	clrz
  4699  0135  1803               	skipnc
  4700  0136  3E01               	addlw	1
  4701  0137  1903               	skipnz
  4702  0138  293A               	goto	u373_21
  4703  0139  07AF               	addwf	___flmul@grs+1,f
  4704  013A                     u373_21:
  4705  013A  082A               	movf	??___flmul+2,w
  4706  013B  1103               	clrz
  4707  013C  1803               	skipnc
  4708  013D  3E01               	addlw	1
  4709  013E  1903               	skipnz
  4710  013F  2941               	goto	u373_22
  4711  0140  07B0               	addwf	___flmul@grs+2,f
  4712  0141                     u373_22:
  4713  0141  082B               	movf	??___flmul+3,w
  4714  0142  1103               	clrz
  4715  0143  1803               	skipnc
  4716  0144  3E01               	addlw	1
  4717  0145  1903               	skipnz
  4718  0146  2948               	goto	u373_23
  4719  0147  07B1               	addwf	___flmul@grs+3,f
  4720  0148                     u373_23:
  4721  0148                     i1l2871:
  4722  0148  0839               	movf	___flmul@temp+1,w
  4723  0149  00A8               	movwf	??___flmul
  4724  014A  01A9               	clrf	??___flmul+1
  4725  014B  01AA               	clrf	??___flmul+2
  4726  014C  01AB               	clrf	??___flmul+3
  4727  014D  0828               	movf	??___flmul,w
  4728  014E  07B4               	addwf	___flmul@prod,f
  4729  014F  0829               	movf	??___flmul+1,w
  4730  0150  1103               	clrz
  4731  0151  1803               	skipnc
  4732  0152  3E01               	addlw	1
  4733  0153  1903               	skipnz
  4734  0154  2956               	goto	u374_21
  4735  0155  07B5               	addwf	___flmul@prod+1,f
  4736  0156                     u374_21:
  4737  0156  082A               	movf	??___flmul+2,w
  4738  0157  1103               	clrz
  4739  0158  1803               	skipnc
  4740  0159  3E01               	addlw	1
  4741  015A  1903               	skipnz
  4742  015B  295D               	goto	u374_22
  4743  015C  07B6               	addwf	___flmul@prod+2,f
  4744  015D                     u374_22:
  4745  015D  082B               	movf	??___flmul+3,w
  4746  015E  1103               	clrz
  4747  015F  1803               	skipnc
  4748  0160  3E01               	addlw	1
  4749  0161  1903               	skipnz
  4750  0162  2964               	goto	u374_23
  4751  0163  07B7               	addwf	___flmul@prod+3,f
  4752  0164                     u374_23:
  4753  0164                     i1l2873:
  4754  0164  3008               	movlw	8
  4755  0165  00A8               	movwf	??___flmul
  4756  0166                     u375_25:
  4757  0166  1003               	clrc
  4758  0167  0DAE               	rlf	___flmul@grs,f
  4759  0168  0DAF               	rlf	___flmul@grs+1,f
  4760  0169  0DB0               	rlf	___flmul@grs+2,f
  4761  016A  0DB1               	rlf	___flmul@grs+3,f
  4762  016B  0BA8               	decfsz	??___flmul,f
  4763  016C  2966               	goto	u375_25
  4764  016D                     i1l2875:
  4765  016D  0821               	movf	___flmul@b+1,w
  4766  016E  00FF               	movwf	btemp+1
  4767  016F  087F               	movf	btemp+1,w
  4768  0170  00F0               	movwf	__Umul8_16@multiplicand
  4769  0171  0824               	movf	___flmul@a,w
  4770  0172  160A  118A  2683  120A  118A  	fcall	__Umul8_16
  4771  0177  0871               	movf	?__Umul8_16+1,w
  4772  0178  1283               	bcf	3,5	;RP0=0, select bank0
  4773  0179  1303               	bcf	3,6	;RP1=0, select bank0
  4774  017A  00B9               	movwf	___flmul@temp+1
  4775  017B  0870               	movf	?__Umul8_16,w
  4776  017C  00B8               	movwf	___flmul@temp
  4777  017D                     i1l2877:
  4778  017D  0838               	movf	___flmul@temp,w
  4779  017E  00A8               	movwf	??___flmul
  4780  017F  0839               	movf	___flmul@temp+1,w
  4781  0180  00A9               	movwf	??___flmul+1
  4782  0181  01AA               	clrf	??___flmul+2
  4783  0182  01AB               	clrf	??___flmul+3
  4784  0183  0828               	movf	??___flmul,w
  4785  0184  07AE               	addwf	___flmul@grs,f
  4786  0185  0829               	movf	??___flmul+1,w
  4787  0186  1103               	clrz
  4788  0187  1803               	skipnc
  4789  0188  3E01               	addlw	1
  4790  0189  1903               	skipnz
  4791  018A  298C               	goto	u376_21
  4792  018B  07AF               	addwf	___flmul@grs+1,f
  4793  018C                     u376_21:
  4794  018C  082A               	movf	??___flmul+2,w
  4795  018D  1103               	clrz
  4796  018E  1803               	skipnc
  4797  018F  3E01               	addlw	1
  4798  0190  1903               	skipnz
  4799  0191  2993               	goto	u376_22
  4800  0192  07B0               	addwf	___flmul@grs+2,f
  4801  0193                     u376_22:
  4802  0193  082B               	movf	??___flmul+3,w
  4803  0194  1103               	clrz
  4804  0195  1803               	skipnc
  4805  0196  3E01               	addlw	1
  4806  0197  1903               	skipnz
  4807  0198  299A               	goto	u376_23
  4808  0199  07B1               	addwf	___flmul@grs+3,f
  4809  019A                     u376_23:
  4810  019A                     i1l2879:
  4811  019A  0820               	movf	___flmul@b,w
  4812  019B  00FF               	movwf	btemp+1
  4813  019C  087F               	movf	btemp+1,w
  4814  019D  00F0               	movwf	__Umul8_16@multiplicand
  4815  019E  0825               	movf	___flmul@a+1,w
  4816  019F  160A  118A  2683  120A  118A  	fcall	__Umul8_16
  4817  01A4  0871               	movf	?__Umul8_16+1,w
  4818  01A5  1283               	bcf	3,5	;RP0=0, select bank0
  4819  01A6  1303               	bcf	3,6	;RP1=0, select bank0
  4820  01A7  00B9               	movwf	___flmul@temp+1
  4821  01A8  0870               	movf	?__Umul8_16,w
  4822  01A9  00B8               	movwf	___flmul@temp
  4823  01AA                     i1l2881:
  4824  01AA  0838               	movf	___flmul@temp,w
  4825  01AB  00A8               	movwf	??___flmul
  4826  01AC  0839               	movf	___flmul@temp+1,w
  4827  01AD  00A9               	movwf	??___flmul+1
  4828  01AE  01AA               	clrf	??___flmul+2
  4829  01AF  01AB               	clrf	??___flmul+3
  4830  01B0  0828               	movf	??___flmul,w
  4831  01B1  07AE               	addwf	___flmul@grs,f
  4832  01B2  0829               	movf	??___flmul+1,w
  4833  01B3  1103               	clrz
  4834  01B4  1803               	skipnc
  4835  01B5  3E01               	addlw	1
  4836  01B6  1903               	skipnz
  4837  01B7  29B9               	goto	u377_21
  4838  01B8  07AF               	addwf	___flmul@grs+1,f
  4839  01B9                     u377_21:
  4840  01B9  082A               	movf	??___flmul+2,w
  4841  01BA  1103               	clrz
  4842  01BB  1803               	skipnc
  4843  01BC  3E01               	addlw	1
  4844  01BD  1903               	skipnz
  4845  01BE  29C0               	goto	u377_22
  4846  01BF  07B0               	addwf	___flmul@grs+2,f
  4847  01C0                     u377_22:
  4848  01C0  082B               	movf	??___flmul+3,w
  4849  01C1  1103               	clrz
  4850  01C2  1803               	skipnc
  4851  01C3  3E01               	addlw	1
  4852  01C4  1903               	skipnz
  4853  01C5  29C7               	goto	u377_23
  4854  01C6  07B1               	addwf	___flmul@grs+3,f
  4855  01C7                     u377_23:
  4856  01C7                     i1l2883:
  4857  01C7  3008               	movlw	8
  4858  01C8  00A8               	movwf	??___flmul
  4859  01C9                     u378_25:
  4860  01C9  1003               	clrc
  4861  01CA  0DAE               	rlf	___flmul@grs,f
  4862  01CB  0DAF               	rlf	___flmul@grs+1,f
  4863  01CC  0DB0               	rlf	___flmul@grs+2,f
  4864  01CD  0DB1               	rlf	___flmul@grs+3,f
  4865  01CE  0BA8               	decfsz	??___flmul,f
  4866  01CF  29C9               	goto	u378_25
  4867  01D0  0820               	movf	___flmul@b,w
  4868  01D1  00FF               	movwf	btemp+1
  4869  01D2  087F               	movf	btemp+1,w
  4870  01D3  00F0               	movwf	__Umul8_16@multiplicand
  4871  01D4  0824               	movf	___flmul@a,w
  4872  01D5  160A  118A  2683  120A  118A  	fcall	__Umul8_16
  4873  01DA  0871               	movf	?__Umul8_16+1,w
  4874  01DB  1283               	bcf	3,5	;RP0=0, select bank0
  4875  01DC  1303               	bcf	3,6	;RP1=0, select bank0
  4876  01DD  00B9               	movwf	___flmul@temp+1
  4877  01DE  0870               	movf	?__Umul8_16,w
  4878  01DF  00B8               	movwf	___flmul@temp
  4879  01E0                     i1l2885:
  4880  01E0  0838               	movf	___flmul@temp,w
  4881  01E1  00A8               	movwf	??___flmul
  4882  01E2  0839               	movf	___flmul@temp+1,w
  4883  01E3  00A9               	movwf	??___flmul+1
  4884  01E4  01AA               	clrf	??___flmul+2
  4885  01E5  01AB               	clrf	??___flmul+3
  4886  01E6  0828               	movf	??___flmul,w
  4887  01E7  07AE               	addwf	___flmul@grs,f
  4888  01E8  0829               	movf	??___flmul+1,w
  4889  01E9  1103               	clrz
  4890  01EA  1803               	skipnc
  4891  01EB  3E01               	addlw	1
  4892  01EC  1903               	skipnz
  4893  01ED  29EF               	goto	u379_21
  4894  01EE  07AF               	addwf	___flmul@grs+1,f
  4895  01EF                     u379_21:
  4896  01EF  082A               	movf	??___flmul+2,w
  4897  01F0  1103               	clrz
  4898  01F1  1803               	skipnc
  4899  01F2  3E01               	addlw	1
  4900  01F3  1903               	skipnz
  4901  01F4  29F6               	goto	u379_22
  4902  01F5  07B0               	addwf	___flmul@grs+2,f
  4903  01F6                     u379_22:
  4904  01F6  082B               	movf	??___flmul+3,w
  4905  01F7  1103               	clrz
  4906  01F8  1803               	skipnc
  4907  01F9  3E01               	addlw	1
  4908  01FA  1903               	skipnz
  4909  01FB  29FD               	goto	u379_23
  4910  01FC  07B1               	addwf	___flmul@grs+3,f
  4911  01FD                     u379_23:
  4912  01FD                     i1l2887:
  4913  01FD  0821               	movf	___flmul@b+1,w
  4914  01FE  00FF               	movwf	btemp+1
  4915  01FF  087F               	movf	btemp+1,w
  4916  0200  00F0               	movwf	__Umul8_16@multiplicand
  4917  0201  0826               	movf	___flmul@a+2,w
  4918  0202  160A  118A  2683  120A  118A  	fcall	__Umul8_16
  4919  0207  0871               	movf	?__Umul8_16+1,w
  4920  0208  1283               	bcf	3,5	;RP0=0, select bank0
  4921  0209  1303               	bcf	3,6	;RP1=0, select bank0
  4922  020A  00B9               	movwf	___flmul@temp+1
  4923  020B  0870               	movf	?__Umul8_16,w
  4924  020C  00B8               	movwf	___flmul@temp
  4925  020D  0838               	movf	___flmul@temp,w
  4926  020E  00A8               	movwf	??___flmul
  4927  020F  0839               	movf	___flmul@temp+1,w
  4928  0210  00A9               	movwf	??___flmul+1
  4929  0211  01AA               	clrf	??___flmul+2
  4930  0212  01AB               	clrf	??___flmul+3
  4931  0213  0828               	movf	??___flmul,w
  4932  0214  07B4               	addwf	___flmul@prod,f
  4933  0215  0829               	movf	??___flmul+1,w
  4934  0216  1103               	clrz
  4935  0217  1803               	skipnc
  4936  0218  3E01               	addlw	1
  4937  0219  1903               	skipnz
  4938  021A  2A1C               	goto	u380_21
  4939  021B  07B5               	addwf	___flmul@prod+1,f
  4940  021C                     u380_21:
  4941  021C  082A               	movf	??___flmul+2,w
  4942  021D  1103               	clrz
  4943  021E  1803               	skipnc
  4944  021F  3E01               	addlw	1
  4945  0220  1903               	skipnz
  4946  0221  2A23               	goto	u380_22
  4947  0222  07B6               	addwf	___flmul@prod+2,f
  4948  0223                     u380_22:
  4949  0223  082B               	movf	??___flmul+3,w
  4950  0224  1103               	clrz
  4951  0225  1803               	skipnc
  4952  0226  3E01               	addlw	1
  4953  0227  1903               	skipnz
  4954  0228  2A2A               	goto	u380_23
  4955  0229  07B7               	addwf	___flmul@prod+3,f
  4956  022A                     u380_23:
  4957  022A                     i1l2889:
  4958  022A  0822               	movf	___flmul@b+2,w
  4959  022B  00FF               	movwf	btemp+1
  4960  022C  087F               	movf	btemp+1,w
  4961  022D  00F0               	movwf	__Umul8_16@multiplicand
  4962  022E  0825               	movf	___flmul@a+1,w
  4963  022F  160A  118A  2683  120A  118A  	fcall	__Umul8_16
  4964  0234  0871               	movf	?__Umul8_16+1,w
  4965  0235  1283               	bcf	3,5	;RP0=0, select bank0
  4966  0236  1303               	bcf	3,6	;RP1=0, select bank0
  4967  0237  00B9               	movwf	___flmul@temp+1
  4968  0238  0870               	movf	?__Umul8_16,w
  4969  0239  00B8               	movwf	___flmul@temp
  4970  023A                     i1l2891:
  4971  023A  0838               	movf	___flmul@temp,w
  4972  023B  00A8               	movwf	??___flmul
  4973  023C  0839               	movf	___flmul@temp+1,w
  4974  023D  00A9               	movwf	??___flmul+1
  4975  023E  01AA               	clrf	??___flmul+2
  4976  023F  01AB               	clrf	??___flmul+3
  4977  0240  0828               	movf	??___flmul,w
  4978  0241  07B4               	addwf	___flmul@prod,f
  4979  0242  0829               	movf	??___flmul+1,w
  4980  0243  1103               	clrz
  4981  0244  1803               	skipnc
  4982  0245  3E01               	addlw	1
  4983  0246  1903               	skipnz
  4984  0247  2A49               	goto	u381_21
  4985  0248  07B5               	addwf	___flmul@prod+1,f
  4986  0249                     u381_21:
  4987  0249  082A               	movf	??___flmul+2,w
  4988  024A  1103               	clrz
  4989  024B  1803               	skipnc
  4990  024C  3E01               	addlw	1
  4991  024D  1903               	skipnz
  4992  024E  2A50               	goto	u381_22
  4993  024F  07B6               	addwf	___flmul@prod+2,f
  4994  0250                     u381_22:
  4995  0250  082B               	movf	??___flmul+3,w
  4996  0251  1103               	clrz
  4997  0252  1803               	skipnc
  4998  0253  3E01               	addlw	1
  4999  0254  1903               	skipnz
  5000  0255  2A57               	goto	u381_23
  5001  0256  07B7               	addwf	___flmul@prod+3,f
  5002  0257                     u381_23:
  5003  0257  0822               	movf	___flmul@b+2,w
  5004  0258  00FF               	movwf	btemp+1
  5005  0259  087F               	movf	btemp+1,w
  5006  025A  00F0               	movwf	__Umul8_16@multiplicand
  5007  025B  0826               	movf	___flmul@a+2,w
  5008  025C  160A  118A  2683  120A  118A  	fcall	__Umul8_16
  5009  0261  0871               	movf	?__Umul8_16+1,w
  5010  0262  1283               	bcf	3,5	;RP0=0, select bank0
  5011  0263  1303               	bcf	3,6	;RP1=0, select bank0
  5012  0264  00B9               	movwf	___flmul@temp+1
  5013  0265  0870               	movf	?__Umul8_16,w
  5014  0266  00B8               	movwf	___flmul@temp
  5015  0267                     i1l2893:
  5016  0267  0838               	movf	___flmul@temp,w
  5017  0268  00A8               	movwf	??___flmul
  5018  0269  0839               	movf	___flmul@temp+1,w
  5019  026A  00A9               	movwf	??___flmul+1
  5020  026B  01AA               	clrf	??___flmul+2
  5021  026C  01AB               	clrf	??___flmul+3
  5022  026D  3008               	movlw	8
  5023  026E                     u382_25:
  5024  026E  1003               	clrc
  5025  026F  0DA8               	rlf	??___flmul,f
  5026  0270  0DA9               	rlf	??___flmul+1,f
  5027  0271  0DAA               	rlf	??___flmul+2,f
  5028  0272  0DAB               	rlf	??___flmul+3,f
  5029  0273                     u382_20:
  5030  0273  3EFF               	addlw	-1
  5031  0274  1D03               	skipz
  5032  0275  2A6E               	goto	u382_25
  5033  0276  0828               	movf	??___flmul,w
  5034  0277  07B4               	addwf	___flmul@prod,f
  5035  0278  0829               	movf	??___flmul+1,w
  5036  0279  1103               	clrz
  5037  027A  1803               	skipnc
  5038  027B  3E01               	addlw	1
  5039  027C  1903               	skipnz
  5040  027D  2A7F               	goto	u383_21
  5041  027E  07B5               	addwf	___flmul@prod+1,f
  5042  027F                     u383_21:
  5043  027F  082A               	movf	??___flmul+2,w
  5044  0280  1103               	clrz
  5045  0281  1803               	skipnc
  5046  0282  3E01               	addlw	1
  5047  0283  1903               	skipnz
  5048  0284  2A86               	goto	u383_22
  5049  0285  07B6               	addwf	___flmul@prod+2,f
  5050  0286                     u383_22:
  5051  0286  082B               	movf	??___flmul+3,w
  5052  0287  1103               	clrz
  5053  0288  1803               	skipnc
  5054  0289  3E01               	addlw	1
  5055  028A  1903               	skipnz
  5056  028B  2A8D               	goto	u383_23
  5057  028C  07B7               	addwf	___flmul@prod+3,f
  5058  028D                     u383_23:
  5059  028D                     i1l2895:
  5060  028D  082E               	movf	___flmul@grs,w
  5061  028E  00A8               	movwf	??___flmul
  5062  028F  082F               	movf	___flmul@grs+1,w
  5063  0290  00A9               	movwf	??___flmul+1
  5064  0291  0830               	movf	___flmul@grs+2,w
  5065  0292  00AA               	movwf	??___flmul+2
  5066  0293  0831               	movf	___flmul@grs+3,w
  5067  0294  00AB               	movwf	??___flmul+3
  5068  0295  3018               	movlw	24
  5069  0296                     u384_25:
  5070  0296  1003               	clrc
  5071  0297  0CAB               	rrf	??___flmul+3,f
  5072  0298  0CAA               	rrf	??___flmul+2,f
  5073  0299  0CA9               	rrf	??___flmul+1,f
  5074  029A  0CA8               	rrf	??___flmul,f
  5075  029B                     u384_20:
  5076  029B  3EFF               	addlw	-1
  5077  029C  1D03               	skipz
  5078  029D  2A96               	goto	u384_25
  5079  029E  0828               	movf	??___flmul,w
  5080  029F  07B4               	addwf	___flmul@prod,f
  5081  02A0  0829               	movf	??___flmul+1,w
  5082  02A1  1103               	clrz
  5083  02A2  1803               	skipnc
  5084  02A3  3E01               	addlw	1
  5085  02A4  1903               	skipnz
  5086  02A5  2AA7               	goto	u385_21
  5087  02A6  07B5               	addwf	___flmul@prod+1,f
  5088  02A7                     u385_21:
  5089  02A7  082A               	movf	??___flmul+2,w
  5090  02A8  1103               	clrz
  5091  02A9  1803               	skipnc
  5092  02AA  3E01               	addlw	1
  5093  02AB  1903               	skipnz
  5094  02AC  2AAE               	goto	u385_22
  5095  02AD  07B6               	addwf	___flmul@prod+2,f
  5096  02AE                     u385_22:
  5097  02AE  082B               	movf	??___flmul+3,w
  5098  02AF  1103               	clrz
  5099  02B0  1803               	skipnc
  5100  02B1  3E01               	addlw	1
  5101  02B2  1903               	skipnz
  5102  02B3  2AB5               	goto	u385_23
  5103  02B4  07B7               	addwf	___flmul@prod+3,f
  5104  02B5                     u385_23:
  5105  02B5                     i1l2897:
  5106  02B5  3008               	movlw	8
  5107  02B6  00A8               	movwf	??___flmul
  5108  02B7                     u386_25:
  5109  02B7  1003               	clrc
  5110  02B8  0DAE               	rlf	___flmul@grs,f
  5111  02B9  0DAF               	rlf	___flmul@grs+1,f
  5112  02BA  0DB0               	rlf	___flmul@grs+2,f
  5113  02BB  0DB1               	rlf	___flmul@grs+3,f
  5114  02BC  0BA8               	decfsz	??___flmul,f
  5115  02BD  2AB7               	goto	u386_25
  5116  02BE                     i1l2899:
  5117  02BE  0833               	movf	___flmul@bexp,w
  5118  02BF  0732               	addwf	___flmul@aexp,w
  5119  02C0  00A8               	movwf	??___flmul
  5120  02C1  01A9               	clrf	??___flmul+1
  5121  02C2  0DA9               	rlf	??___flmul+1,f
  5122  02C3  0828               	movf	??___flmul,w
  5123  02C4  3E82               	addlw	130
  5124  02C5  00B8               	movwf	___flmul@temp
  5125  02C6  0829               	movf	??___flmul+1,w
  5126  02C7  1803               	skipnc
  5127  02C8  3E01               	addlw	1
  5128  02C9  3EFF               	addlw	255
  5129  02CA  00B9               	movwf	___flmul@temp+1
  5130  02CB  2AE9               	goto	i1l2911
  5131  02CC                     i1l2901:
  5132  02CC  3001               	movlw	1
  5133  02CD  00A8               	movwf	??___flmul
  5134  02CE                     u387_25:
  5135  02CE  1003               	clrc
  5136  02CF  0DB4               	rlf	___flmul@prod,f
  5137  02D0  0DB5               	rlf	___flmul@prod+1,f
  5138  02D1  0DB6               	rlf	___flmul@prod+2,f
  5139  02D2  0DB7               	rlf	___flmul@prod+3,f
  5140  02D3  0BA8               	decfsz	??___flmul,f
  5141  02D4  2ACE               	goto	u387_25
  5142  02D5                     i1l2903:
  5143  02D5  1FB1               	btfss	___flmul@grs+3,7
  5144  02D6  2AD8               	goto	u388_21
  5145  02D7  2AD9               	goto	u388_20
  5146  02D8                     u388_21:
  5147  02D8  2ADA               	goto	i1l2907
  5148  02D9                     u388_20:
  5149  02D9                     i1l2905:
  5150  02D9  1434               	bsf	___flmul@prod,0
  5151  02DA                     i1l2907:
  5152  02DA  3001               	movlw	1
  5153  02DB  00A8               	movwf	??___flmul
  5154  02DC                     u389_25:
  5155  02DC  1003               	clrc
  5156  02DD  0DAE               	rlf	___flmul@grs,f
  5157  02DE  0DAF               	rlf	___flmul@grs+1,f
  5158  02DF  0DB0               	rlf	___flmul@grs+2,f
  5159  02E0  0DB1               	rlf	___flmul@grs+3,f
  5160  02E1  0BA8               	decfsz	??___flmul,f
  5161  02E2  2ADC               	goto	u389_25
  5162  02E3                     i1l2909:
  5163  02E3  30FF               	movlw	255
  5164  02E4  07B8               	addwf	___flmul@temp,f
  5165  02E5  1803               	skipnc
  5166  02E6  0AB9               	incf	___flmul@temp+1,f
  5167  02E7  30FF               	movlw	255
  5168  02E8  07B9               	addwf	___flmul@temp+1,f
  5169  02E9                     i1l2911:
  5170  02E9  1FB6               	btfss	___flmul@prod+2,7
  5171  02EA  2AEC               	goto	u390_21
  5172  02EB  2AED               	goto	u390_20
  5173  02EC                     u390_21:
  5174  02EC  2ACC               	goto	i1l2901
  5175  02ED                     u390_20:
  5176  02ED                     i1l2913:
  5177  02ED  01B2               	clrf	___flmul@aexp
  5178  02EE                     i1l2915:
  5179  02EE  1FB1               	btfss	___flmul@grs+3,7
  5180  02EF  2AF1               	goto	u391_21
  5181  02F0  2AF2               	goto	u391_20
  5182  02F1                     u391_21:
  5183  02F1  2B0E               	goto	i1l2923
  5184  02F2                     u391_20:
  5185  02F2                     i1l2917:
  5186  02F2  30FF               	movlw	255
  5187  02F3  052E               	andwf	___flmul@grs,w
  5188  02F4  00A8               	movwf	??___flmul
  5189  02F5  30FF               	movlw	255
  5190  02F6  052F               	andwf	___flmul@grs+1,w
  5191  02F7  00A9               	movwf	??___flmul+1
  5192  02F8  30FF               	movlw	255
  5193  02F9  0530               	andwf	___flmul@grs+2,w
  5194  02FA  00AA               	movwf	??___flmul+2
  5195  02FB  307F               	movlw	127
  5196  02FC  0531               	andwf	___flmul@grs+3,w
  5197  02FD  00AB               	movwf	??___flmul+3
  5198  02FE  082B               	movf	??___flmul+3,w
  5199  02FF  042A               	iorwf	??___flmul+2,w
  5200  0300  0429               	iorwf	??___flmul+1,w
  5201  0301  0428               	iorwf	??___flmul,w
  5202  0302  1903               	skipnz
  5203  0303  2B05               	goto	u392_21
  5204  0304  2B06               	goto	u392_20
  5205  0305                     u392_21:
  5206  0305  2B09               	goto	i1l792
  5207  0306                     u392_20:
  5208  0306                     i1l2919:
  5209  0306  01B2               	clrf	___flmul@aexp
  5210  0307  0AB2               	incf	___flmul@aexp,f
  5211  0308  2B0E               	goto	i1l2923
  5212  0309                     i1l792:
  5213  0309  1C34               	btfss	___flmul@prod,0
  5214  030A  2B0C               	goto	u393_21
  5215  030B  2B0D               	goto	u393_20
  5216  030C                     u393_21:
  5217  030C  2B0E               	goto	i1l2923
  5218  030D                     u393_20:
  5219  030D  2B06               	goto	i1l2919
  5220  030E                     i1l2923:
  5221  030E  0832               	movf	___flmul@aexp,w
  5222  030F  1903               	btfsc	3,2
  5223  0310  2B12               	goto	u394_21
  5224  0311  2B13               	goto	u394_20
  5225  0312                     u394_21:
  5226  0312  2B44               	goto	i1l2933
  5227  0313                     u394_20:
  5228  0313                     i1l2925:
  5229  0313  3001               	movlw	1
  5230  0314  07B4               	addwf	___flmul@prod,f
  5231  0315  3000               	movlw	0
  5232  0316  1803               	skipnc
  5233  0317  3001               	movlw	1
  5234  0318  07B5               	addwf	___flmul@prod+1,f
  5235  0319  3000               	movlw	0
  5236  031A  1803               	skipnc
  5237  031B  3001               	movlw	1
  5238  031C  07B6               	addwf	___flmul@prod+2,f
  5239  031D  3000               	movlw	0
  5240  031E  1803               	skipnc
  5241  031F  3001               	movlw	1
  5242  0320  07B7               	addwf	___flmul@prod+3,f
  5243  0321                     i1l2927:
  5244  0321  1C37               	btfss	___flmul@prod+3,0
  5245  0322  2B24               	goto	u395_21
  5246  0323  2B25               	goto	u395_20
  5247  0324                     u395_21:
  5248  0324  2B44               	goto	i1l2933
  5249  0325                     u395_20:
  5250  0325                     i1l2929:
  5251  0325  0834               	movf	___flmul@prod,w
  5252  0326  00A8               	movwf	??___flmul
  5253  0327  0835               	movf	___flmul@prod+1,w
  5254  0328  00A9               	movwf	??___flmul+1
  5255  0329  0836               	movf	___flmul@prod+2,w
  5256  032A  00AA               	movwf	??___flmul+2
  5257  032B  0837               	movf	___flmul@prod+3,w
  5258  032C  00AB               	movwf	??___flmul+3
  5259  032D  3001               	movlw	1
  5260  032E  00AC               	movwf	??___flmul+4
  5261  032F                     u396_25:
  5262  032F  0D2B               	rlf	??___flmul+3,w
  5263  0330  0CAB               	rrf	??___flmul+3,f
  5264  0331  0CAA               	rrf	??___flmul+2,f
  5265  0332  0CA9               	rrf	??___flmul+1,f
  5266  0333  0CA8               	rrf	??___flmul,f
  5267  0334                     u396_20:
  5268  0334  0BAC               	decfsz	??___flmul+4,f
  5269  0335  2B2F               	goto	u396_25
  5270  0336  082B               	movf	??___flmul+3,w
  5271  0337  00B7               	movwf	___flmul@prod+3
  5272  0338  082A               	movf	??___flmul+2,w
  5273  0339  00B6               	movwf	___flmul@prod+2
  5274  033A  0829               	movf	??___flmul+1,w
  5275  033B  00B5               	movwf	___flmul@prod+1
  5276  033C  0828               	movf	??___flmul,w
  5277  033D  00B4               	movwf	___flmul@prod
  5278  033E                     i1l2931:
  5279  033E  3001               	movlw	1
  5280  033F  07B8               	addwf	___flmul@temp,f
  5281  0340  1803               	skipnc
  5282  0341  0AB9               	incf	___flmul@temp+1,f
  5283  0342  3000               	movlw	0
  5284  0343  07B9               	addwf	___flmul@temp+1,f
  5285  0344                     i1l2933:
  5286  0344  0839               	movf	___flmul@temp+1,w
  5287  0345  3A80               	xorlw	128
  5288  0346  00FF               	movwf	btemp+1
  5289  0347  3080               	movlw	128
  5290  0348  027F               	subwf	btemp+1,w
  5291  0349  1D03               	skipz
  5292  034A  2B4D               	goto	u397_25
  5293  034B  30FF               	movlw	255
  5294  034C  0238               	subwf	___flmul@temp,w
  5295  034D                     u397_25:
  5296  034D  1C03               	skipc
  5297  034E  2B50               	goto	u397_21
  5298  034F  2B51               	goto	u397_20
  5299  0350                     u397_21:
  5300  0350  2B5C               	goto	i1l2937
  5301  0351                     u397_20:
  5302  0351                     i1l2935:
  5303  0351  307F               	movlw	127
  5304  0352  1283               	bcf	3,5	;RP0=0, select bank0
  5305  0353  1303               	bcf	3,6	;RP1=0, select bank0
  5306  0354  00B7               	movwf	___flmul@prod+3
  5307  0355  3080               	movlw	128
  5308  0356  00B6               	movwf	___flmul@prod+2
  5309  0357  3000               	movlw	0
  5310  0358  00B5               	movwf	___flmul@prod+1
  5311  0359  3000               	movlw	0
  5312  035A  00B4               	movwf	___flmul@prod
  5313  035B  2B91               	goto	i1l798
  5314  035C                     i1l2937:
  5315  035C  1283               	bcf	3,5	;RP0=0, select bank0
  5316  035D  1303               	bcf	3,6	;RP1=0, select bank0
  5317  035E  0839               	movf	___flmul@temp+1,w
  5318  035F  3A80               	xorlw	128
  5319  0360  00FF               	movwf	btemp+1
  5320  0361  3080               	movlw	128
  5321  0362  027F               	subwf	btemp+1,w
  5322  0363  1D03               	skipz
  5323  0364  2B67               	goto	u398_25
  5324  0365  3001               	movlw	1
  5325  0366  0238               	subwf	___flmul@temp,w
  5326  0367                     u398_25:
  5327  0367  1803               	skipnc
  5328  0368  2B6A               	goto	u398_21
  5329  0369  2B6B               	goto	u398_20
  5330  036A                     u398_21:
  5331  036A  2B77               	goto	i1l2943
  5332  036B                     u398_20:
  5333  036B                     i1l2939:
  5334  036B  3000               	movlw	0
  5335  036C  1283               	bcf	3,5	;RP0=0, select bank0
  5336  036D  1303               	bcf	3,6	;RP1=0, select bank0
  5337  036E  00B7               	movwf	___flmul@prod+3
  5338  036F  3000               	movlw	0
  5339  0370  00B6               	movwf	___flmul@prod+2
  5340  0371  3000               	movlw	0
  5341  0372  00B5               	movwf	___flmul@prod+1
  5342  0373  3000               	movlw	0
  5343  0374  00B4               	movwf	___flmul@prod
  5344  0375                     i1l2941:
  5345  0375  01AD               	clrf	___flmul@sign
  5346  0376  2B91               	goto	i1l798
  5347  0377                     i1l2943:
  5348  0377  1283               	bcf	3,5	;RP0=0, select bank0
  5349  0378  1303               	bcf	3,6	;RP1=0, select bank0
  5350  0379  0838               	movf	___flmul@temp,w
  5351  037A  00FF               	movwf	btemp+1
  5352  037B  087F               	movf	btemp+1,w
  5353  037C  00B3               	movwf	___flmul@bexp
  5354  037D                     i1l2945:
  5355  037D  30FF               	movlw	255
  5356  037E  05B4               	andwf	___flmul@prod,f
  5357  037F  30FF               	movlw	255
  5358  0380  05B5               	andwf	___flmul@prod+1,f
  5359  0381  307F               	movlw	127
  5360  0382  05B6               	andwf	___flmul@prod+2,f
  5361  0383  3000               	movlw	0
  5362  0384  05B7               	andwf	___flmul@prod+3,f
  5363  0385                     i1l2947:
  5364  0385  1C33               	btfss	___flmul@bexp,0
  5365  0386  2B88               	goto	u399_21
  5366  0387  2B89               	goto	u399_20
  5367  0388                     u399_21:
  5368  0388  2B8A               	goto	i1l2951
  5369  0389                     u399_20:
  5370  0389                     i1l2949:
  5371  0389  17B6               	bsf	___flmul@prod+2,7
  5372  038A                     i1l2951:
  5373  038A  0833               	movf	___flmul@bexp,w
  5374  038B  00A8               	movwf	??___flmul
  5375  038C  1003               	clrc
  5376  038D  0C28               	rrf	??___flmul,w
  5377  038E  00FF               	movwf	btemp+1
  5378  038F  087F               	movf	btemp+1,w
  5379  0390  00B7               	movwf	___flmul@prod+3
  5380  0391                     i1l798:
  5381  0391  082D               	movf	___flmul@sign,w
  5382  0392  00FF               	movwf	btemp+1
  5383  0393  087F               	movf	btemp+1,w
  5384  0394  04B7               	iorwf	___flmul@prod+3,f
  5385  0395                     i1l2953:
  5386  0395  0837               	movf	___flmul@prod+3,w
  5387  0396  00A3               	movwf	?___flmul+3
  5388  0397  0836               	movf	___flmul@prod+2,w
  5389  0398  00A2               	movwf	?___flmul+2
  5390  0399  0835               	movf	___flmul@prod+1,w
  5391  039A  00A1               	movwf	?___flmul+1
  5392  039B  0834               	movf	___flmul@prod,w
  5393  039C  00A0               	movwf	?___flmul
  5394  039D                     i1l786:
  5395  039D  0008               	return
  5396  039E                     __end_of___flmul:
  5397                           
  5398                           	psect	text32
  5399  1683                     __ptext32:	
  5400 ;; *************** function __Umul8_16 *****************
  5401 ;; Defined at:
  5402 ;;		line 4 in file "C:\Program Files\Microchip\xc8\v2.20\pic\sources\c90\common\Umul8_16.c"
  5403 ;; Parameters:    Size  Location     Type
  5404 ;;  multiplier      1    wreg     unsigned char 
  5405 ;;  multiplicand    1    0[COMMON] unsigned char 
  5406 ;; Auto vars:     Size  Location     Type
  5407 ;;  multiplier      1    8[COMMON] unsigned char 
  5408 ;;  word_mpld       2    6[COMMON] unsigned int 
  5409 ;;  product         2    4[COMMON] unsigned int 
  5410 ;; Return value:  Size  Location     Type
  5411 ;;                  2    0[COMMON] unsigned int 
  5412 ;; Registers used:
  5413 ;;		wreg, status,2, status,0
  5414 ;; Tracked objects:
  5415 ;;		On entry : 0/0
  5416 ;;		On exit  : 0/0
  5417 ;;		Unchanged: 0/0
  5418 ;; Data sizes:     COMMON   BANK0   BANK1   BANK3   BANK2
  5419 ;;      Params:         2       0       0       0       0
  5420 ;;      Locals:         5       0       0       0       0
  5421 ;;      Temps:          2       0       0       0       0
  5422 ;;      Totals:         9       0       0       0       0
  5423 ;;Total ram usage:        9 bytes
  5424 ;; Hardware stack levels used:    1
  5425 ;; This function calls:
  5426 ;;		Nothing
  5427 ;; This function is called by:
  5428 ;;		___flmul
  5429 ;; This function uses a non-reentrant model
  5430 ;;
  5431                           
  5432                           
  5433                           ;psect for function __Umul8_16
  5434  1683                     __Umul8_16:
  5435                           
  5436                           ;incstack = 0
  5437 ;; hardware stack exceeded
  5438                           ; Regs used in __Umul8_16: [wreg+status,2+status,0]
  5439                           ;__Umul8_16@multiplier stored from wreg
  5440  1683  00F8               	movwf	__Umul8_16@multiplier
  5441  1684                     i1l2553:
  5442  1684  01F4               	clrf	__Umul8_16@product
  5443  1685  01F5               	clrf	__Umul8_16@product+1
  5444  1686                     i1l2555:
  5445  1686  0870               	movf	__Umul8_16@multiplicand,w
  5446  1687  00F2               	movwf	??__Umul8_16
  5447  1688  01F3               	clrf	??__Umul8_16+1
  5448  1689  0872               	movf	??__Umul8_16,w
  5449  168A  00F6               	movwf	__Umul8_16@word_mpld
  5450  168B  0873               	movf	??__Umul8_16+1,w
  5451  168C  00F7               	movwf	__Umul8_16@word_mpld+1
  5452  168D                     i1l2557:
  5453  168D  1C78               	btfss	__Umul8_16@multiplier,0
  5454  168E  2E90               	goto	u320_21
  5455  168F  2E91               	goto	u320_20
  5456  1690                     u320_21:
  5457  1690  2E97               	goto	i1l805
  5458  1691                     u320_20:
  5459  1691                     i1l2559:
  5460  1691  0876               	movf	__Umul8_16@word_mpld,w
  5461  1692  07F4               	addwf	__Umul8_16@product,f
  5462  1693  1803               	skipnc
  5463  1694  0AF5               	incf	__Umul8_16@product+1,f
  5464  1695  0877               	movf	__Umul8_16@word_mpld+1,w
  5465  1696  07F5               	addwf	__Umul8_16@product+1,f
  5466  1697                     i1l805:
  5467  1697  3001               	movlw	1
  5468  1698                     u321_25:
  5469  1698  1003               	clrc
  5470  1699  0DF6               	rlf	__Umul8_16@word_mpld,f
  5471  169A  0DF7               	rlf	__Umul8_16@word_mpld+1,f
  5472  169B  3EFF               	addlw	-1
  5473  169C  1D03               	skipz
  5474  169D  2E98               	goto	u321_25
  5475  169E  1003               	clrc
  5476  169F  0CF8               	rrf	__Umul8_16@multiplier,f
  5477  16A0                     i1l2561:
  5478  16A0  0878               	movf	__Umul8_16@multiplier,w
  5479  16A1  1D03               	btfss	3,2
  5480  16A2  2EA4               	goto	u322_21
  5481  16A3  2EA5               	goto	u322_20
  5482  16A4                     u322_21:
  5483  16A4  2E8D               	goto	i1l2557
  5484  16A5                     u322_20:
  5485  16A5                     i1l2563:
  5486  16A5  0875               	movf	__Umul8_16@product+1,w
  5487  16A6  00F1               	movwf	?__Umul8_16+1
  5488  16A7  0874               	movf	__Umul8_16@product,w
  5489  16A8  00F0               	movwf	?__Umul8_16
  5490  16A9                     i1l807:
  5491  16A9  0008               	return
  5492  16AA                     __end_of__Umul8_16:
  5493                           
  5494                           	psect	text33
  5495  0DB2                     __ptext33:	
  5496 ;; *************** function _AverageTemp *****************
  5497 ;; Defined at:
  5498 ;;		line 85 in file "./Temperature.h"
  5499 ;; Parameters:    Size  Location     Type
  5500 ;;		None
  5501 ;; Auto vars:     Size  Location     Type
  5502 ;;  j               2   73[BANK0 ] int 
  5503 ;;  j               2   71[BANK0 ] int 
  5504 ;;  j               2   65[BANK0 ] int 
  5505 ;;  tmp             4   75[BANK0 ] float 
  5506 ;;  reading         4   67[BANK0 ] float 
  5507 ;; Return value:  Size  Location     Type
  5508 ;;                  1    wreg      void 
  5509 ;; Registers used:
  5510 ;;		wreg, fsr0l, fsr0h, status,2, status,0, btemp+1, pclath, cstack
  5511 ;; Tracked objects:
  5512 ;;		On entry : 0/0
  5513 ;;		On exit  : 0/0
  5514 ;;		Unchanged: 0/0
  5515 ;; Data sizes:     COMMON   BANK0   BANK1   BANK3   BANK2
  5516 ;;      Params:         0       0       0       0       0
  5517 ;;      Locals:         0      14       0       0       0
  5518 ;;      Temps:          0       3       0       0       0
  5519 ;;      Totals:         0      17       0       0       0
  5520 ;;Total ram usage:       17 bytes
  5521 ;; Hardware stack levels used:    1
  5522 ;; Hardware stack levels required when called:    1
  5523 ;; This function calls:
  5524 ;;		___fladd
  5525 ;;		___fldiv
  5526 ;;		___fltol
  5527 ;;		___xxtofl
  5528 ;;		i1_HeatingCoolingElement
  5529 ;; This function is called by:
  5530 ;;		_TempSensor
  5531 ;; This function uses a non-reentrant model
  5532 ;;
  5533                           
  5534                           
  5535                           ;psect for function _AverageTemp
  5536  0DB2                     _AverageTemp:
  5537  0DB2                     i1l2741:	
  5538                           ;incstack = 0
  5539 ;; hardware stack exceeded
  5540                           ; Regs used in _AverageTemp: [wreg-fsr0h+status,2+status,0+btemp+1+pclath+cstack]
  5541                           
  5542                           
  5543                           ;./Temperature.h: 86:    float reading = currentTemp;
  5544  0DB2  1683               	bsf	3,5	;RP0=1, select bank1
  5545  0DB3  1303               	bcf	3,6	;RP1=0, select bank1
  5546  0DB4  0857               	movf	_currentTemp^(0+128),w
  5547  0DB5  00F0               	movwf	___xxtofl@val
  5548  0DB6  0858               	movf	(_currentTemp+1)^(0+128),w
  5549  0DB7  00F1               	movwf	___xxtofl@val+1
  5550  0DB8  01F2               	clrf	___xxtofl@val+2
  5551  0DB9  01F3               	clrf	___xxtofl@val+3
  5552  0DBA  3000               	movlw	0
  5553  0DBB  120A  118A  2632  120A  158A  	fcall	___xxtofl
  5554  0DC0  0873               	movf	?___xxtofl+3,w
  5555  0DC1  1283               	bcf	3,5	;RP0=0, select bank0
  5556  0DC2  1303               	bcf	3,6	;RP1=0, select bank0
  5557  0DC3  00E6               	movwf	AverageTemp@reading+3
  5558  0DC4  0872               	movf	?___xxtofl+2,w
  5559  0DC5  00E5               	movwf	AverageTemp@reading+2
  5560  0DC6  0871               	movf	?___xxtofl+1,w
  5561  0DC7  00E4               	movwf	AverageTemp@reading+1
  5562  0DC8  0870               	movf	?___xxtofl,w
  5563  0DC9  00E3               	movwf	AverageTemp@reading
  5564  0DCA                     i1l2743:
  5565                           
  5566                           ;./Temperature.h: 87:    float tmp = 0;
  5567  0DCA  3000               	movlw	0
  5568  0DCB  00EE               	movwf	AverageTemp@tmp+3
  5569  0DCC  3000               	movlw	0
  5570  0DCD  00ED               	movwf	AverageTemp@tmp+2
  5571  0DCE  3000               	movlw	0
  5572  0DCF  00EC               	movwf	AverageTemp@tmp+1
  5573  0DD0  3000               	movlw	0
  5574  0DD1  00EB               	movwf	AverageTemp@tmp
  5575  0DD2                     i1l2745:
  5576                           
  5577                           ;./Temperature.h: 88:    if(i<10){
  5578  0DD2  1683               	bsf	3,5	;RP0=1, select bank1
  5579  0DD3  1303               	bcf	3,6	;RP1=0, select bank1
  5580  0DD4  0854               	movf	(_i+1)^(0+128),w
  5581  0DD5  3A80               	xorlw	128
  5582  0DD6  00FF               	movwf	btemp+1
  5583  0DD7  3080               	movlw	128
  5584  0DD8  027F               	subwf	btemp+1,w
  5585  0DD9  1D03               	skipz
  5586  0DDA  2DDD               	goto	u348_25
  5587  0DDB  300A               	movlw	10
  5588  0DDC  0253               	subwf	_i^(0+128),w
  5589  0DDD                     u348_25:
  5590  0DDD  1803               	skipnc
  5591  0DDE  2DE0               	goto	u348_21
  5592  0DDF  2DE1               	goto	u348_20
  5593  0DE0                     u348_21:
  5594  0DE0  2EA5               	goto	i1l2761
  5595  0DE1                     u348_20:
  5596  0DE1                     i1l2747:
  5597                           
  5598                           ;./Temperature.h: 89:         Readings[i] = reading;
  5599  0DE1  1683               	bsf	3,5	;RP0=1, select bank1
  5600  0DE2  1303               	bcf	3,6	;RP1=0, select bank1
  5601  0DE3  0853               	movf	_i^(0+128),w
  5602  0DE4  1283               	bcf	3,5	;RP0=0, select bank0
  5603  0DE5  1303               	bcf	3,6	;RP1=0, select bank0
  5604  0DE6  00DE               	movwf	??_AverageTemp
  5605  0DE7  3001               	movlw	1
  5606  0DE8                     u349_25:
  5607  0DE8  1003               	clrc
  5608  0DE9  0DDE               	rlf	??_AverageTemp,f
  5609  0DEA  3EFF               	addlw	-1
  5610  0DEB  1D03               	skipz
  5611  0DEC  2DE8               	goto	u349_25
  5612  0DED  1003               	clrc
  5613  0DEE  0D5E               	rlf	??_AverageTemp,w
  5614  0DEF  3E90               	addlw	(low (_Readings| (0+256)))& (0+255)
  5615  0DF0  0084               	movwf	4
  5616  0DF1  0863               	movf	AverageTemp@reading,w
  5617  0DF2  1783               	bsf	3,7	;select IRP bank3
  5618  0DF3  0080               	movwf	0
  5619  0DF4  0A84               	incf	4,f
  5620  0DF5  0864               	movf	AverageTemp@reading+1,w
  5621  0DF6  0080               	movwf	0
  5622  0DF7  0A84               	incf	4,f
  5623  0DF8  0865               	movf	AverageTemp@reading+2,w
  5624  0DF9  0080               	movwf	0
  5625  0DFA  0A84               	incf	4,f
  5626  0DFB  0866               	movf	AverageTemp@reading+3,w
  5627  0DFC  0080               	movwf	0
  5628  0DFD                     i1l2749:
  5629                           
  5630                           ;./Temperature.h: 90:         i++;
  5631  0DFD  3001               	movlw	1
  5632  0DFE  1683               	bsf	3,5	;RP0=1, select bank1
  5633  0DFF  1303               	bcf	3,6	;RP1=0, select bank1
  5634  0E00  07D3               	addwf	_i^(0+128),f
  5635  0E01  1803               	skipnc
  5636  0E02  0AD4               	incf	(_i+1)^(0+128),f
  5637  0E03  3000               	movlw	0
  5638  0E04  07D4               	addwf	(_i+1)^(0+128),f
  5639  0E05                     i1l2751:
  5640                           
  5641                           ;./Temperature.h: 91:         for(int j = 0 ; j < (i+1) ; j++)
  5642  0E05  1283               	bcf	3,5	;RP0=0, select bank0
  5643  0E06  1303               	bcf	3,6	;RP1=0, select bank0
  5644  0E07  01E1               	clrf	AverageTemp@j
  5645  0E08  01E2               	clrf	AverageTemp@j+1
  5646  0E09  2E41               	goto	i1l2757
  5647  0E0A                     i1l2753:
  5648                           
  5649                           ;./Temperature.h: 92:             tmp += Readings[j];
  5650  0E0A  1283               	bcf	3,5	;RP0=0, select bank0
  5651  0E0B  1303               	bcf	3,6	;RP1=0, select bank0
  5652  0E0C  0861               	movf	AverageTemp@j,w
  5653  0E0D  00DE               	movwf	??_AverageTemp
  5654  0E0E  3001               	movlw	1
  5655  0E0F                     u350_25:
  5656  0E0F  1003               	clrc
  5657  0E10  0DDE               	rlf	??_AverageTemp,f
  5658  0E11  3EFF               	addlw	-1
  5659  0E12  1D03               	skipz
  5660  0E13  2E0F               	goto	u350_25
  5661  0E14  1003               	clrc
  5662  0E15  0D5E               	rlf	??_AverageTemp,w
  5663  0E16  3E90               	addlw	(low (_Readings| (0+256)))& (0+255)
  5664  0E17  0084               	movwf	4
  5665  0E18  1783               	bsf	3,7	;select IRP bank3
  5666  0E19  0800               	movf	0,w
  5667  0E1A  00F0               	movwf	___fladd@b
  5668  0E1B  0A84               	incf	4,f
  5669  0E1C  0800               	movf	0,w
  5670  0E1D  00F1               	movwf	___fladd@b+1
  5671  0E1E  0A84               	incf	4,f
  5672  0E1F  0800               	movf	0,w
  5673  0E20  00F2               	movwf	___fladd@b+2
  5674  0E21  0A84               	incf	4,f
  5675  0E22  0800               	movf	0,w
  5676  0E23  00F3               	movwf	___fladd@b+3
  5677  0E24  086E               	movf	AverageTemp@tmp+3,w
  5678  0E25  00F7               	movwf	___fladd@a+3
  5679  0E26  086D               	movf	AverageTemp@tmp+2,w
  5680  0E27  00F6               	movwf	___fladd@a+2
  5681  0E28  086C               	movf	AverageTemp@tmp+1,w
  5682  0E29  00F5               	movwf	___fladd@a+1
  5683  0E2A  086B               	movf	AverageTemp@tmp,w
  5684  0E2B  00F4               	movwf	___fladd@a
  5685  0E2C  120A  118A  239E  120A  158A  	fcall	___fladd
  5686  0E31  0873               	movf	?___fladd+3,w
  5687  0E32  1283               	bcf	3,5	;RP0=0, select bank0
  5688  0E33  1303               	bcf	3,6	;RP1=0, select bank0
  5689  0E34  00EE               	movwf	AverageTemp@tmp+3
  5690  0E35  0872               	movf	?___fladd+2,w
  5691  0E36  00ED               	movwf	AverageTemp@tmp+2
  5692  0E37  0871               	movf	?___fladd+1,w
  5693  0E38  00EC               	movwf	AverageTemp@tmp+1
  5694  0E39  0870               	movf	?___fladd,w
  5695  0E3A  00EB               	movwf	AverageTemp@tmp
  5696  0E3B                     i1l2755:
  5697  0E3B  3001               	movlw	1
  5698  0E3C  07E1               	addwf	AverageTemp@j,f
  5699  0E3D  1803               	skipnc
  5700  0E3E  0AE2               	incf	AverageTemp@j+1,f
  5701  0E3F  3000               	movlw	0
  5702  0E40  07E2               	addwf	AverageTemp@j+1,f
  5703  0E41                     i1l2757:
  5704  0E41  1683               	bsf	3,5	;RP0=1, select bank1
  5705  0E42  1303               	bcf	3,6	;RP1=0, select bank1
  5706  0E43  0853               	movf	_i^(0+128),w
  5707  0E44  3E01               	addlw	1
  5708  0E45  1283               	bcf	3,5	;RP0=0, select bank0
  5709  0E46  1303               	bcf	3,6	;RP1=0, select bank0
  5710  0E47  00DE               	movwf	??_AverageTemp
  5711  0E48  1683               	bsf	3,5	;RP0=1, select bank1
  5712  0E49  1303               	bcf	3,6	;RP1=0, select bank1
  5713  0E4A  0854               	movf	(_i+1)^(0+128),w
  5714  0E4B  1803               	skipnc
  5715  0E4C  3E01               	addlw	1
  5716  0E4D  3E00               	addlw	0
  5717  0E4E  1283               	bcf	3,5	;RP0=0, select bank0
  5718  0E4F  1303               	bcf	3,6	;RP1=0, select bank0
  5719  0E50  00DF               	movwf	??_AverageTemp+1
  5720  0E51  0862               	movf	AverageTemp@j+1,w
  5721  0E52  3A80               	xorlw	128
  5722  0E53  00E0               	movwf	??_AverageTemp+2
  5723  0E54  085F               	movf	??_AverageTemp+1,w
  5724  0E55  3A80               	xorlw	128
  5725  0E56  0260               	subwf	??_AverageTemp+2,w
  5726  0E57  1D03               	skipz
  5727  0E58  2E5B               	goto	u351_25
  5728  0E59  085E               	movf	??_AverageTemp,w
  5729  0E5A  0261               	subwf	AverageTemp@j,w
  5730  0E5B                     u351_25:
  5731  0E5B  1C03               	skipc
  5732  0E5C  2E5E               	goto	u351_21
  5733  0E5D  2E5F               	goto	u351_20
  5734  0E5E                     u351_21:
  5735  0E5E  2E0A               	goto	i1l2753
  5736  0E5F                     u351_20:
  5737  0E5F                     i1l2759:
  5738                           
  5739                           ;./Temperature.h: 93:         averageTemp = (tmp/i);
  5740  0E5F  1283               	bcf	3,5	;RP0=0, select bank0
  5741  0E60  1303               	bcf	3,6	;RP1=0, select bank0
  5742  0E61  086E               	movf	AverageTemp@tmp+3,w
  5743  0E62  00C1               	movwf	___fldiv@b+3
  5744  0E63  086D               	movf	AverageTemp@tmp+2,w
  5745  0E64  00C0               	movwf	___fldiv@b+2
  5746  0E65  086C               	movf	AverageTemp@tmp+1,w
  5747  0E66  00BF               	movwf	___fldiv@b+1
  5748  0E67  086B               	movf	AverageTemp@tmp,w
  5749  0E68  00BE               	movwf	___fldiv@b
  5750  0E69  1683               	bsf	3,5	;RP0=1, select bank1
  5751  0E6A  1303               	bcf	3,6	;RP1=0, select bank1
  5752  0E6B  0853               	movf	_i^(0+128),w
  5753  0E6C  00F0               	movwf	___xxtofl@val
  5754  0E6D  0854               	movf	(_i+1)^(0+128),w
  5755  0E6E  00F1               	movwf	___xxtofl@val+1
  5756  0E6F  3000               	movlw	0
  5757  0E70  1BF1               	btfsc	___xxtofl@val+1,7
  5758  0E71  30FF               	movlw	255
  5759  0E72  00F2               	movwf	___xxtofl@val+2
  5760  0E73  00F3               	movwf	___xxtofl@val+3
  5761  0E74  3001               	movlw	1
  5762  0E75  120A  118A  2632  120A  158A  	fcall	___xxtofl
  5763  0E7A  0873               	movf	?___xxtofl+3,w
  5764  0E7B  1283               	bcf	3,5	;RP0=0, select bank0
  5765  0E7C  1303               	bcf	3,6	;RP1=0, select bank0
  5766  0E7D  00BD               	movwf	___fldiv@a+3
  5767  0E7E  0872               	movf	?___xxtofl+2,w
  5768  0E7F  00BC               	movwf	___fldiv@a+2
  5769  0E80  0871               	movf	?___xxtofl+1,w
  5770  0E81  00BB               	movwf	___fldiv@a+1
  5771  0E82  0870               	movf	?___xxtofl,w
  5772  0E83  00BA               	movwf	___fldiv@a
  5773  0E84  120A  158A  23D5  120A  158A  	fcall	___fldiv
  5774  0E89  1283               	bcf	3,5	;RP0=0, select bank0
  5775  0E8A  1303               	bcf	3,6	;RP1=0, select bank0
  5776  0E8B  083D               	movf	?___fldiv+3,w
  5777  0E8C  00D7               	movwf	___fltol@f1+3
  5778  0E8D  083C               	movf	?___fldiv+2,w
  5779  0E8E  00D6               	movwf	___fltol@f1+2
  5780  0E8F  083B               	movf	?___fldiv+1,w
  5781  0E90  00D5               	movwf	___fltol@f1+1
  5782  0E91  083A               	movf	?___fldiv,w
  5783  0E92  00D4               	movwf	___fltol@f1
  5784  0E93  120A  158A  2359  120A  158A  	fcall	___fltol
  5785  0E98  1283               	bcf	3,5	;RP0=0, select bank0
  5786  0E99  1303               	bcf	3,6	;RP1=0, select bank0
  5787  0E9A  0855               	movf	?___fltol+1,w
  5788  0E9B  1683               	bsf	3,5	;RP0=1, select bank1
  5789  0E9C  1303               	bcf	3,6	;RP1=0, select bank1
  5790  0E9D  00D6               	movwf	(_averageTemp+1)^(0+128)
  5791  0E9E  1283               	bcf	3,5	;RP0=0, select bank0
  5792  0E9F  1303               	bcf	3,6	;RP1=0, select bank0
  5793  0EA0  0854               	movf	?___fltol,w
  5794  0EA1  1683               	bsf	3,5	;RP0=1, select bank1
  5795  0EA2  1303               	bcf	3,6	;RP1=0, select bank1
  5796  0EA3  00D5               	movwf	_averageTemp^(0+128)
  5797                           
  5798                           ;./Temperature.h: 94:     }
  5799  0EA4  2FFA               	goto	i1l2799
  5800  0EA5                     i1l2761:
  5801  0EA5  1683               	bsf	3,5	;RP0=1, select bank1
  5802  0EA6  1303               	bcf	3,6	;RP1=0, select bank1
  5803  0EA7  0852               	movf	(_x+1)^(0+128),w
  5804  0EA8  3A80               	xorlw	128
  5805  0EA9  00FF               	movwf	btemp+1
  5806  0EAA  3080               	movlw	128
  5807  0EAB  027F               	subwf	btemp+1,w
  5808  0EAC  1D03               	skipz
  5809  0EAD  2EB0               	goto	u352_25
  5810  0EAE  300A               	movlw	10
  5811  0EAF  0251               	subwf	_x^(0+128),w
  5812  0EB0                     u352_25:
  5813  0EB0  1803               	skipnc
  5814  0EB1  2EB3               	goto	u352_21
  5815  0EB2  2EB4               	goto	u352_20
  5816  0EB3                     u352_21:
  5817  0EB3  2F53               	goto	i1l2781
  5818  0EB4                     u352_20:
  5819  0EB4                     i1l2763:
  5820                           
  5821                           ;./Temperature.h: 96:         Readings[x] = reading;
  5822  0EB4  1683               	bsf	3,5	;RP0=1, select bank1
  5823  0EB5  1303               	bcf	3,6	;RP1=0, select bank1
  5824  0EB6  0851               	movf	_x^(0+128),w
  5825  0EB7  1283               	bcf	3,5	;RP0=0, select bank0
  5826  0EB8  1303               	bcf	3,6	;RP1=0, select bank0
  5827  0EB9  00DE               	movwf	??_AverageTemp
  5828  0EBA  3001               	movlw	1
  5829  0EBB                     u353_25:
  5830  0EBB  1003               	clrc
  5831  0EBC  0DDE               	rlf	??_AverageTemp,f
  5832  0EBD  3EFF               	addlw	-1
  5833  0EBE  1D03               	skipz
  5834  0EBF  2EBB               	goto	u353_25
  5835  0EC0  1003               	clrc
  5836  0EC1  0D5E               	rlf	??_AverageTemp,w
  5837  0EC2  3E90               	addlw	(low (_Readings| (0+256)))& (0+255)
  5838  0EC3  0084               	movwf	4
  5839  0EC4  0863               	movf	AverageTemp@reading,w
  5840  0EC5  1783               	bsf	3,7	;select IRP bank3
  5841  0EC6  0080               	movwf	0
  5842  0EC7  0A84               	incf	4,f
  5843  0EC8  0864               	movf	AverageTemp@reading+1,w
  5844  0EC9  0080               	movwf	0
  5845  0ECA  0A84               	incf	4,f
  5846  0ECB  0865               	movf	AverageTemp@reading+2,w
  5847  0ECC  0080               	movwf	0
  5848  0ECD  0A84               	incf	4,f
  5849  0ECE  0866               	movf	AverageTemp@reading+3,w
  5850  0ECF  0080               	movwf	0
  5851  0ED0                     i1l2765:
  5852                           
  5853                           ;./Temperature.h: 97:         x++;
  5854  0ED0  3001               	movlw	1
  5855  0ED1  1683               	bsf	3,5	;RP0=1, select bank1
  5856  0ED2  1303               	bcf	3,6	;RP1=0, select bank1
  5857  0ED3  07D1               	addwf	_x^(0+128),f
  5858  0ED4  1803               	skipnc
  5859  0ED5  0AD2               	incf	(_x+1)^(0+128),f
  5860  0ED6  3000               	movlw	0
  5861  0ED7  07D2               	addwf	(_x+1)^(0+128),f
  5862  0ED8                     i1l2767:
  5863                           
  5864                           ;./Temperature.h: 98:         for(int j = 0 ; j < 10 ; j++)
  5865  0ED8  1283               	bcf	3,5	;RP0=0, select bank0
  5866  0ED9  1303               	bcf	3,6	;RP1=0, select bank0
  5867  0EDA  01E7               	clrf	AverageTemp@j_293
  5868  0EDB  01E8               	clrf	AverageTemp@j_293+1
  5869  0EDC                     i1l2773:
  5870                           
  5871                           ;./Temperature.h: 99:             tmp += Readings[j];
  5872  0EDC  1283               	bcf	3,5	;RP0=0, select bank0
  5873  0EDD  1303               	bcf	3,6	;RP1=0, select bank0
  5874  0EDE  0867               	movf	AverageTemp@j_293,w
  5875  0EDF  00DE               	movwf	??_AverageTemp
  5876  0EE0  3001               	movlw	1
  5877  0EE1                     u354_25:
  5878  0EE1  1003               	clrc
  5879  0EE2  0DDE               	rlf	??_AverageTemp,f
  5880  0EE3  3EFF               	addlw	-1
  5881  0EE4  1D03               	skipz
  5882  0EE5  2EE1               	goto	u354_25
  5883  0EE6  1003               	clrc
  5884  0EE7  0D5E               	rlf	??_AverageTemp,w
  5885  0EE8  3E90               	addlw	(low (_Readings| (0+256)))& (0+255)
  5886  0EE9  0084               	movwf	4
  5887  0EEA  1783               	bsf	3,7	;select IRP bank3
  5888  0EEB  0800               	movf	0,w
  5889  0EEC  00F0               	movwf	___fladd@b
  5890  0EED  0A84               	incf	4,f
  5891  0EEE  0800               	movf	0,w
  5892  0EEF  00F1               	movwf	___fladd@b+1
  5893  0EF0  0A84               	incf	4,f
  5894  0EF1  0800               	movf	0,w
  5895  0EF2  00F2               	movwf	___fladd@b+2
  5896  0EF3  0A84               	incf	4,f
  5897  0EF4  0800               	movf	0,w
  5898  0EF5  00F3               	movwf	___fladd@b+3
  5899  0EF6  086E               	movf	AverageTemp@tmp+3,w
  5900  0EF7  00F7               	movwf	___fladd@a+3
  5901  0EF8  086D               	movf	AverageTemp@tmp+2,w
  5902  0EF9  00F6               	movwf	___fladd@a+2
  5903  0EFA  086C               	movf	AverageTemp@tmp+1,w
  5904  0EFB  00F5               	movwf	___fladd@a+1
  5905  0EFC  086B               	movf	AverageTemp@tmp,w
  5906  0EFD  00F4               	movwf	___fladd@a
  5907  0EFE  120A  118A  239E  120A  158A  	fcall	___fladd
  5908  0F03  0873               	movf	?___fladd+3,w
  5909  0F04  1283               	bcf	3,5	;RP0=0, select bank0
  5910  0F05  1303               	bcf	3,6	;RP1=0, select bank0
  5911  0F06  00EE               	movwf	AverageTemp@tmp+3
  5912  0F07  0872               	movf	?___fladd+2,w
  5913  0F08  00ED               	movwf	AverageTemp@tmp+2
  5914  0F09  0871               	movf	?___fladd+1,w
  5915  0F0A  00EC               	movwf	AverageTemp@tmp+1
  5916  0F0B  0870               	movf	?___fladd,w
  5917  0F0C  00EB               	movwf	AverageTemp@tmp
  5918  0F0D                     i1l2775:
  5919  0F0D  3001               	movlw	1
  5920  0F0E  07E7               	addwf	AverageTemp@j_293,f
  5921  0F0F  1803               	skipnc
  5922  0F10  0AE8               	incf	AverageTemp@j_293+1,f
  5923  0F11  3000               	movlw	0
  5924  0F12  07E8               	addwf	AverageTemp@j_293+1,f
  5925  0F13                     i1l2777:
  5926  0F13  0868               	movf	AverageTemp@j_293+1,w
  5927  0F14  3A80               	xorlw	128
  5928  0F15  00FF               	movwf	btemp+1
  5929  0F16  3080               	movlw	128
  5930  0F17  027F               	subwf	btemp+1,w
  5931  0F18  1D03               	skipz
  5932  0F19  2F1C               	goto	u355_25
  5933  0F1A  300A               	movlw	10
  5934  0F1B  0267               	subwf	AverageTemp@j_293,w
  5935  0F1C                     u355_25:
  5936  0F1C  1C03               	skipc
  5937  0F1D  2F1F               	goto	u355_21
  5938  0F1E  2F20               	goto	u355_20
  5939  0F1F                     u355_21:
  5940  0F1F  2EDC               	goto	i1l2773
  5941  0F20                     u355_20:
  5942  0F20                     i1l2779:
  5943                           
  5944                           ;./Temperature.h: 100:         averageTemp = (tmp/10);
  5945  0F20  1283               	bcf	3,5	;RP0=0, select bank0
  5946  0F21  1303               	bcf	3,6	;RP1=0, select bank0
  5947  0F22  086E               	movf	AverageTemp@tmp+3,w
  5948  0F23  00C1               	movwf	___fldiv@b+3
  5949  0F24  086D               	movf	AverageTemp@tmp+2,w
  5950  0F25  00C0               	movwf	___fldiv@b+2
  5951  0F26  086C               	movf	AverageTemp@tmp+1,w
  5952  0F27  00BF               	movwf	___fldiv@b+1
  5953  0F28  086B               	movf	AverageTemp@tmp,w
  5954  0F29  00BE               	movwf	___fldiv@b
  5955  0F2A  3041               	movlw	65
  5956  0F2B  00BD               	movwf	___fldiv@a+3
  5957  0F2C  3020               	movlw	32
  5958  0F2D  00BC               	movwf	___fldiv@a+2
  5959  0F2E  3000               	movlw	0
  5960  0F2F  00BB               	movwf	___fldiv@a+1
  5961  0F30  3000               	movlw	0
  5962  0F31  00BA               	movwf	___fldiv@a
  5963  0F32  120A  158A  23D5  120A  158A  	fcall	___fldiv
  5964  0F37  1283               	bcf	3,5	;RP0=0, select bank0
  5965  0F38  1303               	bcf	3,6	;RP1=0, select bank0
  5966  0F39  083D               	movf	?___fldiv+3,w
  5967  0F3A  00D7               	movwf	___fltol@f1+3
  5968  0F3B  083C               	movf	?___fldiv+2,w
  5969  0F3C  00D6               	movwf	___fltol@f1+2
  5970  0F3D  083B               	movf	?___fldiv+1,w
  5971  0F3E  00D5               	movwf	___fltol@f1+1
  5972  0F3F  083A               	movf	?___fldiv,w
  5973  0F40  00D4               	movwf	___fltol@f1
  5974  0F41  120A  158A  2359  120A  158A  	fcall	___fltol
  5975  0F46  1283               	bcf	3,5	;RP0=0, select bank0
  5976  0F47  1303               	bcf	3,6	;RP1=0, select bank0
  5977  0F48  0855               	movf	?___fltol+1,w
  5978  0F49  1683               	bsf	3,5	;RP0=1, select bank1
  5979  0F4A  1303               	bcf	3,6	;RP1=0, select bank1
  5980  0F4B  00D6               	movwf	(_averageTemp+1)^(0+128)
  5981  0F4C  1283               	bcf	3,5	;RP0=0, select bank0
  5982  0F4D  1303               	bcf	3,6	;RP1=0, select bank0
  5983  0F4E  0854               	movf	?___fltol,w
  5984  0F4F  1683               	bsf	3,5	;RP0=1, select bank1
  5985  0F50  1303               	bcf	3,6	;RP1=0, select bank1
  5986  0F51  00D5               	movwf	_averageTemp^(0+128)
  5987                           
  5988                           ;./Temperature.h: 101:     }
  5989  0F52  2FFA               	goto	i1l2799
  5990  0F53                     i1l2781:
  5991  0F53  1683               	bsf	3,5	;RP0=1, select bank1
  5992  0F54  1303               	bcf	3,6	;RP1=0, select bank1
  5993  0F55  0852               	movf	(_x+1)^(0+128),w
  5994  0F56  3A80               	xorlw	128
  5995  0F57  00FF               	movwf	btemp+1
  5996  0F58  3080               	movlw	128
  5997  0F59  027F               	subwf	btemp+1,w
  5998  0F5A  1D03               	skipz
  5999  0F5B  2F5E               	goto	u356_25
  6000  0F5C  300A               	movlw	10
  6001  0F5D  0251               	subwf	_x^(0+128),w
  6002  0F5E                     u356_25:
  6003  0F5E  1C03               	skipc
  6004  0F5F  2F61               	goto	u356_21
  6005  0F60  2F62               	goto	u356_20
  6006  0F61                     u356_21:
  6007  0F61  2FFA               	goto	i1l2799
  6008  0F62                     u356_20:
  6009  0F62                     i1l2783:
  6010                           
  6011                           ;./Temperature.h: 103:         Readings[0] = reading;
  6012  0F62  1283               	bcf	3,5	;RP0=0, select bank0
  6013  0F63  1303               	bcf	3,6	;RP1=0, select bank0
  6014  0F64  0866               	movf	AverageTemp@reading+3,w
  6015  0F65  1683               	bsf	3,5	;RP0=1, select bank3
  6016  0F66  1703               	bsf	3,6	;RP1=1, select bank3
  6017  0F67  0093               	movwf	(_Readings+3)^(0+384)
  6018  0F68  1283               	bcf	3,5	;RP0=0, select bank0
  6019  0F69  1303               	bcf	3,6	;RP1=0, select bank0
  6020  0F6A  0865               	movf	AverageTemp@reading+2,w
  6021  0F6B  1683               	bsf	3,5	;RP0=1, select bank3
  6022  0F6C  1703               	bsf	3,6	;RP1=1, select bank3
  6023  0F6D  0092               	movwf	(_Readings+2)^(0+384)
  6024  0F6E  1283               	bcf	3,5	;RP0=0, select bank0
  6025  0F6F  1303               	bcf	3,6	;RP1=0, select bank0
  6026  0F70  0864               	movf	AverageTemp@reading+1,w
  6027  0F71  1683               	bsf	3,5	;RP0=1, select bank3
  6028  0F72  1703               	bsf	3,6	;RP1=1, select bank3
  6029  0F73  0091               	movwf	(_Readings+1)^(0+384)
  6030  0F74  1283               	bcf	3,5	;RP0=0, select bank0
  6031  0F75  1303               	bcf	3,6	;RP1=0, select bank0
  6032  0F76  0863               	movf	AverageTemp@reading,w
  6033  0F77  1683               	bsf	3,5	;RP0=1, select bank3
  6034  0F78  1703               	bsf	3,6	;RP1=1, select bank3
  6035  0F79  0090               	movwf	_Readings^(0+384)
  6036                           
  6037                           ;./Temperature.h: 104:         x = 1;
  6038  0F7A  3001               	movlw	1
  6039  0F7B  1683               	bsf	3,5	;RP0=1, select bank1
  6040  0F7C  1303               	bcf	3,6	;RP1=0, select bank1
  6041  0F7D  00D1               	movwf	_x^(0+128)
  6042  0F7E  3000               	movlw	0
  6043  0F7F  00D2               	movwf	(_x^(0+128)+1)
  6044  0F80                     i1l2785:
  6045                           
  6046                           ;./Temperature.h: 105:         for(int j = 0 ; j < 10 ; j++)
  6047  0F80  1283               	bcf	3,5	;RP0=0, select bank0
  6048  0F81  1303               	bcf	3,6	;RP1=0, select bank0
  6049  0F82  01E9               	clrf	AverageTemp@j_294
  6050  0F83  01EA               	clrf	AverageTemp@j_294+1
  6051  0F84                     i1l2791:
  6052                           
  6053                           ;./Temperature.h: 106:             tmp += Readings[j];
  6054  0F84  1283               	bcf	3,5	;RP0=0, select bank0
  6055  0F85  1303               	bcf	3,6	;RP1=0, select bank0
  6056  0F86  0869               	movf	AverageTemp@j_294,w
  6057  0F87  00DE               	movwf	??_AverageTemp
  6058  0F88  3001               	movlw	1
  6059  0F89                     u357_25:
  6060  0F89  1003               	clrc
  6061  0F8A  0DDE               	rlf	??_AverageTemp,f
  6062  0F8B  3EFF               	addlw	-1
  6063  0F8C  1D03               	skipz
  6064  0F8D  2F89               	goto	u357_25
  6065  0F8E  1003               	clrc
  6066  0F8F  0D5E               	rlf	??_AverageTemp,w
  6067  0F90  3E90               	addlw	(low (_Readings| (0+256)))& (0+255)
  6068  0F91  0084               	movwf	4
  6069  0F92  1783               	bsf	3,7	;select IRP bank3
  6070  0F93  0800               	movf	0,w
  6071  0F94  00F0               	movwf	___fladd@b
  6072  0F95  0A84               	incf	4,f
  6073  0F96  0800               	movf	0,w
  6074  0F97  00F1               	movwf	___fladd@b+1
  6075  0F98  0A84               	incf	4,f
  6076  0F99  0800               	movf	0,w
  6077  0F9A  00F2               	movwf	___fladd@b+2
  6078  0F9B  0A84               	incf	4,f
  6079  0F9C  0800               	movf	0,w
  6080  0F9D  00F3               	movwf	___fladd@b+3
  6081  0F9E  086E               	movf	AverageTemp@tmp+3,w
  6082  0F9F  00F7               	movwf	___fladd@a+3
  6083  0FA0  086D               	movf	AverageTemp@tmp+2,w
  6084  0FA1  00F6               	movwf	___fladd@a+2
  6085  0FA2  086C               	movf	AverageTemp@tmp+1,w
  6086  0FA3  00F5               	movwf	___fladd@a+1
  6087  0FA4  086B               	movf	AverageTemp@tmp,w
  6088  0FA5  00F4               	movwf	___fladd@a
  6089  0FA6  120A  118A  239E  120A  158A  	fcall	___fladd
  6090  0FAB  0873               	movf	?___fladd+3,w
  6091  0FAC  1283               	bcf	3,5	;RP0=0, select bank0
  6092  0FAD  1303               	bcf	3,6	;RP1=0, select bank0
  6093  0FAE  00EE               	movwf	AverageTemp@tmp+3
  6094  0FAF  0872               	movf	?___fladd+2,w
  6095  0FB0  00ED               	movwf	AverageTemp@tmp+2
  6096  0FB1  0871               	movf	?___fladd+1,w
  6097  0FB2  00EC               	movwf	AverageTemp@tmp+1
  6098  0FB3  0870               	movf	?___fladd,w
  6099  0FB4  00EB               	movwf	AverageTemp@tmp
  6100  0FB5                     i1l2793:
  6101  0FB5  3001               	movlw	1
  6102  0FB6  07E9               	addwf	AverageTemp@j_294,f
  6103  0FB7  1803               	skipnc
  6104  0FB8  0AEA               	incf	AverageTemp@j_294+1,f
  6105  0FB9  3000               	movlw	0
  6106  0FBA  07EA               	addwf	AverageTemp@j_294+1,f
  6107  0FBB                     i1l2795:
  6108  0FBB  086A               	movf	AverageTemp@j_294+1,w
  6109  0FBC  3A80               	xorlw	128
  6110  0FBD  00FF               	movwf	btemp+1
  6111  0FBE  3080               	movlw	128
  6112  0FBF  027F               	subwf	btemp+1,w
  6113  0FC0  1D03               	skipz
  6114  0FC1  2FC4               	goto	u358_25
  6115  0FC2  300A               	movlw	10
  6116  0FC3  0269               	subwf	AverageTemp@j_294,w
  6117  0FC4                     u358_25:
  6118  0FC4  1C03               	skipc
  6119  0FC5  2FC7               	goto	u358_21
  6120  0FC6  2FC8               	goto	u358_20
  6121  0FC7                     u358_21:
  6122  0FC7  2F84               	goto	i1l2791
  6123  0FC8                     u358_20:
  6124  0FC8                     i1l2797:
  6125                           
  6126                           ;./Temperature.h: 107:         averageTemp = (tmp/10);
  6127  0FC8  1283               	bcf	3,5	;RP0=0, select bank0
  6128  0FC9  1303               	bcf	3,6	;RP1=0, select bank0
  6129  0FCA  086E               	movf	AverageTemp@tmp+3,w
  6130  0FCB  00C1               	movwf	___fldiv@b+3
  6131  0FCC  086D               	movf	AverageTemp@tmp+2,w
  6132  0FCD  00C0               	movwf	___fldiv@b+2
  6133  0FCE  086C               	movf	AverageTemp@tmp+1,w
  6134  0FCF  00BF               	movwf	___fldiv@b+1
  6135  0FD0  086B               	movf	AverageTemp@tmp,w
  6136  0FD1  00BE               	movwf	___fldiv@b
  6137  0FD2  3041               	movlw	65
  6138  0FD3  00BD               	movwf	___fldiv@a+3
  6139  0FD4  3020               	movlw	32
  6140  0FD5  00BC               	movwf	___fldiv@a+2
  6141  0FD6  3000               	movlw	0
  6142  0FD7  00BB               	movwf	___fldiv@a+1
  6143  0FD8  3000               	movlw	0
  6144  0FD9  00BA               	movwf	___fldiv@a
  6145  0FDA  120A  158A  23D5  120A  158A  	fcall	___fldiv
  6146  0FDF  1283               	bcf	3,5	;RP0=0, select bank0
  6147  0FE0  1303               	bcf	3,6	;RP1=0, select bank0
  6148  0FE1  083D               	movf	?___fldiv+3,w
  6149  0FE2  00D7               	movwf	___fltol@f1+3
  6150  0FE3  083C               	movf	?___fldiv+2,w
  6151  0FE4  00D6               	movwf	___fltol@f1+2
  6152  0FE5  083B               	movf	?___fldiv+1,w
  6153  0FE6  00D5               	movwf	___fltol@f1+1
  6154  0FE7  083A               	movf	?___fldiv,w
  6155  0FE8  00D4               	movwf	___fltol@f1
  6156  0FE9  120A  158A  2359  120A  158A  	fcall	___fltol
  6157  0FEE  1283               	bcf	3,5	;RP0=0, select bank0
  6158  0FEF  1303               	bcf	3,6	;RP1=0, select bank0
  6159  0FF0  0855               	movf	?___fltol+1,w
  6160  0FF1  1683               	bsf	3,5	;RP0=1, select bank1
  6161  0FF2  1303               	bcf	3,6	;RP1=0, select bank1
  6162  0FF3  00D6               	movwf	(_averageTemp+1)^(0+128)
  6163  0FF4  1283               	bcf	3,5	;RP0=0, select bank0
  6164  0FF5  1303               	bcf	3,6	;RP1=0, select bank0
  6165  0FF6  0854               	movf	?___fltol,w
  6166  0FF7  1683               	bsf	3,5	;RP0=1, select bank1
  6167  0FF8  1303               	bcf	3,6	;RP1=0, select bank1
  6168  0FF9  00D5               	movwf	_averageTemp^(0+128)
  6169  0FFA                     i1l2799:
  6170                           
  6171                           ;./Temperature.h: 109:    HeatingCoolingElement();
  6172  0FFA  160A  118A  279D  120A  158A  	fcall	i1_HeatingCoolingElement
  6173  0FFF                     i1l259:
  6174  0FFF  0008               	return
  6175  1000                     __end_of_AverageTemp:
  6176                           
  6177                           	psect	text34
  6178  179D                     __ptext34:	
  6179 ;; *************** function i1_HeatingCoolingElement *****************
  6180 ;; Defined at:
  6181 ;;		line 139 in file "./Temperature.h"
  6182 ;; Parameters:    Size  Location     Type
  6183 ;;		None
  6184 ;; Auto vars:     Size  Location     Type
  6185 ;;		None
  6186 ;; Return value:  Size  Location     Type
  6187 ;;                  1    wreg      void 
  6188 ;; Registers used:
  6189 ;;		wreg, status,2, status,0
  6190 ;; Tracked objects:
  6191 ;;		On entry : 0/0
  6192 ;;		On exit  : 0/0
  6193 ;;		Unchanged: 0/0
  6194 ;; Data sizes:     COMMON   BANK0   BANK1   BANK3   BANK2
  6195 ;;      Params:         0       0       0       0       0
  6196 ;;      Locals:         0       0       0       0       0
  6197 ;;      Temps:          2       0       0       0       0
  6198 ;;      Totals:         2       0       0       0       0
  6199 ;;Total ram usage:        2 bytes
  6200 ;; Hardware stack levels used:    1
  6201 ;; This function calls:
  6202 ;;		Nothing
  6203 ;; This function is called by:
  6204 ;;		_AverageTemp
  6205 ;; This function uses a non-reentrant model
  6206 ;;
  6207                           
  6208                           
  6209                           ;psect for function i1_HeatingCoolingElement
  6210  179D                     i1_HeatingCoolingElement:
  6211  179D                     i1l2615:	
  6212                           ;incstack = 0
  6213 ;; hardware stack exceeded
  6214                           ; Regs used in i1_HeatingCoolingElement: [wreg+status,2+status,0]
  6215                           
  6216                           
  6217                           ;./Temperature.h: 141:     if ((Temp - averageTemp) >= 5){
  6218  179D  1683               	bsf	3,5	;RP0=1, select bank1
  6219  179E  1303               	bcf	3,6	;RP1=0, select bank1
  6220  179F  0855               	movf	_averageTemp^(0+128),w
  6221  17A0  0267               	subwf	_Temp^(0+128),w
  6222  17A1  00F0               	movwf	??i1_HeatingCoolingElement
  6223  17A2  0856               	movf	(_averageTemp+1)^(0+128),w
  6224  17A3  1C03               	skipc
  6225  17A4  0A56               	incf	(_averageTemp+1)^(0+128),w
  6226  17A5  0268               	subwf	(_Temp+1)^(0+128),w
  6227  17A6  00F1               	movwf	??i1_HeatingCoolingElement+1
  6228  17A7  3000               	movlw	0
  6229  17A8  0271               	subwf	??i1_HeatingCoolingElement+1,w
  6230  17A9  3005               	movlw	5
  6231  17AA  1903               	skipnz
  6232  17AB  0270               	subwf	??i1_HeatingCoolingElement,w
  6233  17AC  1C03               	skipc
  6234  17AD  2FAF               	goto	u337_21
  6235  17AE  2FB0               	goto	u337_20
  6236  17AF                     u337_21:
  6237  17AF  2FB6               	goto	i1l2619
  6238  17B0                     u337_20:
  6239  17B0                     i1l2617:
  6240                           
  6241                           ;./Temperature.h: 142:         PORTCbits.RC5 = 1;
  6242  17B0  1283               	bcf	3,5	;RP0=0, select bank0
  6243  17B1  1303               	bcf	3,6	;RP1=0, select bank0
  6244  17B2  1687               	bsf	7,5	;volatile
  6245                           
  6246                           ;./Temperature.h: 143:         PORTCbits.RC2 = 0;
  6247  17B3  1107               	bcf	7,2	;volatile
  6248                           
  6249                           ;./Temperature.h: 144:         TMR2ON =1;
  6250  17B4  1512               	bsf	18,2	;volatile
  6251                           
  6252                           ;./Temperature.h: 145:     }
  6253  17B5  2FF6               	goto	i1l2627
  6254  17B6                     i1l2619:
  6255  17B6  0867               	movf	_Temp^(0+128),w
  6256  17B7  0255               	subwf	_averageTemp^(0+128),w
  6257  17B8  00F0               	movwf	??i1_HeatingCoolingElement
  6258  17B9  0868               	movf	(_Temp+1)^(0+128),w
  6259  17BA  1C03               	skipc
  6260  17BB  0A68               	incf	(_Temp+1)^(0+128),w
  6261  17BC  0256               	subwf	(_averageTemp+1)^(0+128),w
  6262  17BD  00F1               	movwf	??i1_HeatingCoolingElement+1
  6263  17BE  3000               	movlw	0
  6264  17BF  0271               	subwf	??i1_HeatingCoolingElement+1,w
  6265  17C0  3005               	movlw	5
  6266  17C1  1903               	skipnz
  6267  17C2  0270               	subwf	??i1_HeatingCoolingElement,w
  6268  17C3  1C03               	skipc
  6269  17C4  2FC6               	goto	u338_21
  6270  17C5  2FC7               	goto	u338_20
  6271  17C6                     u338_21:
  6272  17C6  2FCE               	goto	i1l2623
  6273  17C7                     u338_20:
  6274  17C7                     i1l2621:
  6275                           
  6276                           ;./Temperature.h: 147:         PORTCbits.RC5 = 0,
  6277  17C7  1283               	bcf	3,5	;RP0=0, select bank0
  6278  17C8  1303               	bcf	3,6	;RP1=0, select bank0
  6279  17C9  1287               	bcf	7,5	;volatile
  6280  17CA  1507               	bsf	7,2	;volatile
  6281                           
  6282                           ;./Temperature.h: 149:         TMR2ON =0;
  6283  17CB  1112               	bcf	18,2	;volatile
  6284                           
  6285                           ;./Temperature.h: 150:         PORTBbits.RB1 = 1;
  6286  17CC  1486               	bsf	6,1	;volatile
  6287                           
  6288                           ;./Temperature.h: 151:     }
  6289  17CD  2FF6               	goto	i1l2627
  6290  17CE                     i1l2623:
  6291  17CE  0867               	movf	_Temp^(0+128),w
  6292  17CF  0255               	subwf	_averageTemp^(0+128),w
  6293  17D0  00F0               	movwf	??i1_HeatingCoolingElement
  6294  17D1  0868               	movf	(_Temp+1)^(0+128),w
  6295  17D2  1C03               	skipc
  6296  17D3  0A68               	incf	(_Temp+1)^(0+128),w
  6297  17D4  0256               	subwf	(_averageTemp+1)^(0+128),w
  6298  17D5  00F1               	movwf	??i1_HeatingCoolingElement+1
  6299  17D6  3000               	movlw	0
  6300  17D7  0271               	subwf	??i1_HeatingCoolingElement+1,w
  6301  17D8  3006               	movlw	6
  6302  17D9  1903               	skipnz
  6303  17DA  0270               	subwf	??i1_HeatingCoolingElement,w
  6304  17DB  1C03               	skipc
  6305  17DC  2FDE               	goto	u339_21
  6306  17DD  2FDF               	goto	u339_20
  6307  17DE                     u339_21:
  6308  17DE  2FF0               	goto	i1l280
  6309  17DF                     u339_20:
  6310  17DF                     i1l2625:
  6311  17DF  0855               	movf	_averageTemp^(0+128),w
  6312  17E0  0267               	subwf	_Temp^(0+128),w
  6313  17E1  00F0               	movwf	??i1_HeatingCoolingElement
  6314  17E2  0856               	movf	(_averageTemp+1)^(0+128),w
  6315  17E3  1C03               	skipc
  6316  17E4  0A56               	incf	(_averageTemp+1)^(0+128),w
  6317  17E5  0268               	subwf	(_Temp+1)^(0+128),w
  6318  17E6  00F1               	movwf	??i1_HeatingCoolingElement+1
  6319  17E7  3000               	movlw	0
  6320  17E8  0271               	subwf	??i1_HeatingCoolingElement+1,w
  6321  17E9  3005               	movlw	5
  6322  17EA  1903               	skipnz
  6323  17EB  0270               	subwf	??i1_HeatingCoolingElement,w
  6324  17EC  1C03               	skipc
  6325  17ED  2FEF               	goto	u340_21
  6326  17EE  2FF0               	goto	u340_20
  6327  17EF                     u340_21:
  6328  17EF  2FF6               	goto	i1l2627
  6329  17F0                     u340_20:
  6330  17F0                     i1l280:
  6331                           
  6332                           ;./Temperature.h: 153:         PORTCbits.RC5 = 0,
  6333  17F0  1283               	bcf	3,5	;RP0=0, select bank0
  6334  17F1  1303               	bcf	3,6	;RP1=0, select bank0
  6335  17F2  1287               	bcf	7,5	;volatile
  6336  17F3  1107               	bcf	7,2	;volatile
  6337                           
  6338                           ;./Temperature.h: 155:         TMR2ON =0;
  6339  17F4  1112               	bcf	18,2	;volatile
  6340                           
  6341                           ;./Temperature.h: 156:         PORTBbits.RB1 = 0;
  6342  17F5  1086               	bcf	6,1	;volatile
  6343  17F6                     i1l2627:
  6344                           
  6345                           ;./Temperature.h: 158:     _delay((unsigned long)((10)*(20000000/4000.0)));
  6346  17F6  3041               	movlw	65
  6347  17F7  00F1               	movwf	??i1_HeatingCoolingElement+1
  6348  17F8  30EE               	movlw	238
  6349  17F9  00F0               	movwf	??i1_HeatingCoolingElement
  6350  17FA                     u423_27:
  6351  17FA  0BF0               	decfsz	??i1_HeatingCoolingElement,f
  6352  17FB  2FFA               	goto	u423_27
  6353  17FC  0BF1               	decfsz	??i1_HeatingCoolingElement+1,f
  6354  17FD  2FFA               	goto	u423_27
  6355  17FE  0000               	nop
  6356  17FF                     i1l281:
  6357  17FF  0008               	return
  6358  1800                     __end_ofi1_HeatingCoolingElement:
  6359                           
  6360                           	psect	text35
  6361  0632                     __ptext35:	
  6362 ;; *************** function ___xxtofl *****************
  6363 ;; Defined at:
  6364 ;;		line 10 in file "C:\Program Files\Microchip\xc8\v2.20\pic\sources\c90\common\xxtofl.c"
  6365 ;; Parameters:    Size  Location     Type
  6366 ;;  sign            1    wreg     unsigned char 
  6367 ;;  val             4    0[COMMON] long 
  6368 ;; Auto vars:     Size  Location     Type
  6369 ;;  sign            1    8[COMMON] unsigned char 
  6370 ;;  arg             4   10[COMMON] unsigned long 
  6371 ;;  exp             1    9[COMMON] unsigned char 
  6372 ;; Return value:  Size  Location     Type
  6373 ;;                  4    0[COMMON] unsigned char 
  6374 ;; Registers used:
  6375 ;;		wreg, status,2, status,0, btemp+1
  6376 ;; Tracked objects:
  6377 ;;		On entry : 0/0
  6378 ;;		On exit  : 0/0
  6379 ;;		Unchanged: 0/0
  6380 ;; Data sizes:     COMMON   BANK0   BANK1   BANK3   BANK2
  6381 ;;      Params:         4       0       0       0       0
  6382 ;;      Locals:         6       0       0       0       0
  6383 ;;      Temps:          4       0       0       0       0
  6384 ;;      Totals:        14       0       0       0       0
  6385 ;;Total ram usage:       14 bytes
  6386 ;; Hardware stack levels used:    1
  6387 ;; This function calls:
  6388 ;;		Nothing
  6389 ;; This function is called by:
  6390 ;;		_AverageTemp
  6391 ;;		_TempSensor
  6392 ;; This function uses a non-reentrant model
  6393 ;;
  6394                           
  6395                           
  6396                           ;psect for function ___xxtofl
  6397  0632                     ___xxtofl:
  6398                           
  6399                           ;incstack = 0
  6400 ;; hardware stack exceeded
  6401                           ; Regs used in ___xxtofl: [wreg+status,2+status,0+btemp+1]
  6402                           ;___xxtofl@sign stored from wreg
  6403  0632  00F8               	movwf	___xxtofl@sign
  6404  0633                     i1l2567:
  6405  0633  0878               	movf	___xxtofl@sign,w
  6406  0634  1903               	btfsc	3,2
  6407  0635  2E37               	goto	u323_21
  6408  0636  2E38               	goto	u323_20
  6409  0637                     u323_21:
  6410  0637  2E4C               	goto	i1l2573
  6411  0638                     u323_20:
  6412  0638                     i1l2569:
  6413  0638  1FF3               	btfss	___xxtofl@val+3,7
  6414  0639  2E3B               	goto	u324_21
  6415  063A  2E3C               	goto	u324_20
  6416  063B                     u324_21:
  6417  063B  2E4C               	goto	i1l2573
  6418  063C                     u324_20:
  6419  063C                     i1l2571:
  6420  063C  0970               	comf	___xxtofl@val,w
  6421  063D  00FA               	movwf	___xxtofl@arg
  6422  063E  0971               	comf	___xxtofl@val+1,w
  6423  063F  00FB               	movwf	___xxtofl@arg+1
  6424  0640  0972               	comf	___xxtofl@val+2,w
  6425  0641  00FC               	movwf	___xxtofl@arg+2
  6426  0642  0973               	comf	___xxtofl@val+3,w
  6427  0643  00FD               	movwf	___xxtofl@arg+3
  6428  0644  0AFA               	incf	___xxtofl@arg,f
  6429  0645  1903               	skipnz
  6430  0646  0AFB               	incf	___xxtofl@arg+1,f
  6431  0647  1903               	skipnz
  6432  0648  0AFC               	incf	___xxtofl@arg+2,f
  6433  0649  1903               	skipnz
  6434  064A  0AFD               	incf	___xxtofl@arg+3,f
  6435  064B  2E54               	goto	i1l830
  6436  064C                     i1l2573:
  6437  064C  0873               	movf	___xxtofl@val+3,w
  6438  064D  00FD               	movwf	___xxtofl@arg+3
  6439  064E  0872               	movf	___xxtofl@val+2,w
  6440  064F  00FC               	movwf	___xxtofl@arg+2
  6441  0650  0871               	movf	___xxtofl@val+1,w
  6442  0651  00FB               	movwf	___xxtofl@arg+1
  6443  0652  0870               	movf	___xxtofl@val,w
  6444  0653  00FA               	movwf	___xxtofl@arg
  6445  0654                     i1l830:
  6446  0654  0873               	movf	___xxtofl@val+3,w
  6447  0655  0472               	iorwf	___xxtofl@val+2,w
  6448  0656  0471               	iorwf	___xxtofl@val+1,w
  6449  0657  0470               	iorwf	___xxtofl@val,w
  6450  0658  1D03               	skipz
  6451  0659  2E5B               	goto	u325_21
  6452  065A  2E5C               	goto	u325_20
  6453  065B                     u325_21:
  6454  065B  2E65               	goto	i1l2579
  6455  065C                     u325_20:
  6456  065C                     i1l2575:
  6457  065C  3000               	movlw	0
  6458  065D  00F3               	movwf	?___xxtofl+3
  6459  065E  3000               	movlw	0
  6460  065F  00F2               	movwf	?___xxtofl+2
  6461  0660  3000               	movlw	0
  6462  0661  00F1               	movwf	?___xxtofl+1
  6463  0662  3000               	movlw	0
  6464  0663  00F0               	movwf	?___xxtofl
  6465  0664  2EEB               	goto	i1l832
  6466  0665                     i1l2579:
  6467  0665  3096               	movlw	150
  6468  0666  00FF               	movwf	btemp+1
  6469  0667  087F               	movf	btemp+1,w
  6470  0668  00F9               	movwf	___xxtofl@exp
  6471  0669  2E77               	goto	i1l2585
  6472  066A                     i1l2581:
  6473  066A  3001               	movlw	1
  6474  066B  00FF               	movwf	btemp+1
  6475  066C  087F               	movf	btemp+1,w
  6476  066D  07F9               	addwf	___xxtofl@exp,f
  6477  066E                     i1l2583:
  6478  066E  3001               	movlw	1
  6479  066F                     u326_25:
  6480  066F  1003               	clrc
  6481  0670  0CFD               	rrf	___xxtofl@arg+3,f
  6482  0671  0CFC               	rrf	___xxtofl@arg+2,f
  6483  0672  0CFB               	rrf	___xxtofl@arg+1,f
  6484  0673  0CFA               	rrf	___xxtofl@arg,f
  6485  0674  3EFF               	addlw	-1
  6486  0675  1D03               	skipz
  6487  0676  2E6F               	goto	u326_25
  6488  0677                     i1l2585:
  6489  0677  30FE               	movlw	254
  6490  0678  057D               	andwf	___xxtofl@arg+3,w
  6491  0679  1D03               	btfss	3,2
  6492  067A  2E7C               	goto	u327_21
  6493  067B  2E7D               	goto	u327_20
  6494  067C                     u327_21:
  6495  067C  2E6A               	goto	i1l2581
  6496  067D                     u327_20:
  6497  067D  2E99               	goto	i1l2593
  6498  067E                     i1l2587:
  6499  067E  3001               	movlw	1
  6500  067F  00FF               	movwf	btemp+1
  6501  0680  087F               	movf	btemp+1,w
  6502  0681  07F9               	addwf	___xxtofl@exp,f
  6503  0682                     i1l2589:
  6504  0682  3001               	movlw	1
  6505  0683  07FA               	addwf	___xxtofl@arg,f
  6506  0684  3000               	movlw	0
  6507  0685  1803               	skipnc
  6508  0686  3001               	movlw	1
  6509  0687  07FB               	addwf	___xxtofl@arg+1,f
  6510  0688  3000               	movlw	0
  6511  0689  1803               	skipnc
  6512  068A  3001               	movlw	1
  6513  068B  07FC               	addwf	___xxtofl@arg+2,f
  6514  068C  3000               	movlw	0
  6515  068D  1803               	skipnc
  6516  068E  3001               	movlw	1
  6517  068F  07FD               	addwf	___xxtofl@arg+3,f
  6518  0690                     i1l2591:
  6519  0690  3001               	movlw	1
  6520  0691                     u328_25:
  6521  0691  1003               	clrc
  6522  0692  0CFD               	rrf	___xxtofl@arg+3,f
  6523  0693  0CFC               	rrf	___xxtofl@arg+2,f
  6524  0694  0CFB               	rrf	___xxtofl@arg+1,f
  6525  0695  0CFA               	rrf	___xxtofl@arg,f
  6526  0696  3EFF               	addlw	-1
  6527  0697  1D03               	skipz
  6528  0698  2E91               	goto	u328_25
  6529  0699                     i1l2593:
  6530  0699  30FF               	movlw	255
  6531  069A  057D               	andwf	___xxtofl@arg+3,w
  6532  069B  1D03               	btfss	3,2
  6533  069C  2E9E               	goto	u329_21
  6534  069D  2E9F               	goto	u329_20
  6535  069E                     u329_21:
  6536  069E  2E7E               	goto	i1l2587
  6537  069F                     u329_20:
  6538  069F  2EAB               	goto	i1l2597
  6539  06A0                     i1l2595:
  6540  06A0  3001               	movlw	1
  6541  06A1  02F9               	subwf	___xxtofl@exp,f
  6542  06A2  3001               	movlw	1
  6543  06A3  00F4               	movwf	??___xxtofl
  6544  06A4                     u330_25:
  6545  06A4  1003               	clrc
  6546  06A5  0DFA               	rlf	___xxtofl@arg,f
  6547  06A6  0DFB               	rlf	___xxtofl@arg+1,f
  6548  06A7  0DFC               	rlf	___xxtofl@arg+2,f
  6549  06A8  0DFD               	rlf	___xxtofl@arg+3,f
  6550  06A9  0BF4               	decfsz	??___xxtofl,f
  6551  06AA  2EA4               	goto	u330_25
  6552  06AB                     i1l2597:
  6553  06AB  1BFC               	btfsc	___xxtofl@arg+2,7
  6554  06AC  2EAE               	goto	u331_21
  6555  06AD  2EAF               	goto	u331_20
  6556  06AE                     u331_21:
  6557  06AE  2EB5               	goto	i1l843
  6558  06AF                     u331_20:
  6559  06AF                     i1l2599:
  6560  06AF  3002               	movlw	2
  6561  06B0  0279               	subwf	___xxtofl@exp,w
  6562  06B1  1803               	skipnc
  6563  06B2  2EB4               	goto	u332_21
  6564  06B3  2EB5               	goto	u332_20
  6565  06B4                     u332_21:
  6566  06B4  2EA0               	goto	i1l2595
  6567  06B5                     u332_20:
  6568  06B5                     i1l843:
  6569  06B5  1879               	btfsc	___xxtofl@exp,0
  6570  06B6  2EB8               	goto	u333_21
  6571  06B7  2EB9               	goto	u333_20
  6572  06B8                     u333_21:
  6573  06B8  2EC1               	goto	i1l844
  6574  06B9                     u333_20:
  6575  06B9                     i1l2601:
  6576  06B9  30FF               	movlw	255
  6577  06BA  05FA               	andwf	___xxtofl@arg,f
  6578  06BB  30FF               	movlw	255
  6579  06BC  05FB               	andwf	___xxtofl@arg+1,f
  6580  06BD  307F               	movlw	127
  6581  06BE  05FC               	andwf	___xxtofl@arg+2,f
  6582  06BF  30FF               	movlw	255
  6583  06C0  05FD               	andwf	___xxtofl@arg+3,f
  6584  06C1                     i1l844:
  6585  06C1  1003               	clrc
  6586  06C2  0CF9               	rrf	___xxtofl@exp,f
  6587  06C3                     i1l2603:
  6588  06C3  0879               	movf	___xxtofl@exp,w
  6589  06C4  00F4               	movwf	??___xxtofl
  6590  06C5  01F5               	clrf	??___xxtofl+1
  6591  06C6  01F6               	clrf	??___xxtofl+2
  6592  06C7  01F7               	clrf	??___xxtofl+3
  6593  06C8  3018               	movlw	24
  6594  06C9                     u334_25:
  6595  06C9  1003               	clrc
  6596  06CA  0DF4               	rlf	??___xxtofl,f
  6597  06CB  0DF5               	rlf	??___xxtofl+1,f
  6598  06CC  0DF6               	rlf	??___xxtofl+2,f
  6599  06CD  0DF7               	rlf	??___xxtofl+3,f
  6600  06CE                     u334_20:
  6601  06CE  3EFF               	addlw	-1
  6602  06CF  1D03               	skipz
  6603  06D0  2EC9               	goto	u334_25
  6604  06D1  0874               	movf	??___xxtofl,w
  6605  06D2  04FA               	iorwf	___xxtofl@arg,f
  6606  06D3  0875               	movf	??___xxtofl+1,w
  6607  06D4  04FB               	iorwf	___xxtofl@arg+1,f
  6608  06D5  0876               	movf	??___xxtofl+2,w
  6609  06D6  04FC               	iorwf	___xxtofl@arg+2,f
  6610  06D7  0877               	movf	??___xxtofl+3,w
  6611  06D8  04FD               	iorwf	___xxtofl@arg+3,f
  6612  06D9                     i1l2605:
  6613  06D9  0878               	movf	___xxtofl@sign,w
  6614  06DA  1903               	btfsc	3,2
  6615  06DB  2EDD               	goto	u335_21
  6616  06DC  2EDE               	goto	u335_20
  6617  06DD                     u335_21:
  6618  06DD  2EE3               	goto	i1l2611
  6619  06DE                     u335_20:
  6620  06DE                     i1l2607:
  6621  06DE  1FF3               	btfss	___xxtofl@val+3,7
  6622  06DF  2EE1               	goto	u336_21
  6623  06E0  2EE2               	goto	u336_20
  6624  06E1                     u336_21:
  6625  06E1  2EE3               	goto	i1l2611
  6626  06E2                     u336_20:
  6627  06E2                     i1l2609:
  6628  06E2  17FD               	bsf	___xxtofl@arg+3,7
  6629  06E3                     i1l2611:
  6630  06E3  087D               	movf	___xxtofl@arg+3,w
  6631  06E4  00F3               	movwf	?___xxtofl+3
  6632  06E5  087C               	movf	___xxtofl@arg+2,w
  6633  06E6  00F2               	movwf	?___xxtofl+2
  6634  06E7  087B               	movf	___xxtofl@arg+1,w
  6635  06E8  00F1               	movwf	?___xxtofl+1
  6636  06E9  087A               	movf	___xxtofl@arg,w
  6637  06EA  00F0               	movwf	?___xxtofl
  6638  06EB                     i1l832:
  6639  06EB  0008               	return
  6640  06EC                     __end_of___xxtofl:
  6641                           
  6642                           	psect	text36
  6643  0B59                     __ptext36:	
  6644 ;; *************** function ___fltol *****************
  6645 ;; Defined at:
  6646 ;;		line 43 in file "C:\Program Files\Microchip\xc8\v2.20\pic\sources\c90\common\fltol.c"
  6647 ;; Parameters:    Size  Location     Type
  6648 ;;  f1              4   52[BANK0 ] unsigned char 
  6649 ;; Auto vars:     Size  Location     Type
  6650 ;;  exp1            1   61[BANK0 ] unsigned char 
  6651 ;;  sign1           1   60[BANK0 ] unsigned char 
  6652 ;; Return value:  Size  Location     Type
  6653 ;;                  4   52[BANK0 ] long 
  6654 ;; Registers used:
  6655 ;;		wreg, status,2, status,0, btemp+1
  6656 ;; Tracked objects:
  6657 ;;		On entry : 0/0
  6658 ;;		On exit  : 0/0
  6659 ;;		Unchanged: 0/0
  6660 ;; Data sizes:     COMMON   BANK0   BANK1   BANK3   BANK2
  6661 ;;      Params:         0       4       0       0       0
  6662 ;;      Locals:         0       2       0       0       0
  6663 ;;      Temps:          0       4       0       0       0
  6664 ;;      Totals:         0      10       0       0       0
  6665 ;;Total ram usage:       10 bytes
  6666 ;; Hardware stack levels used:    1
  6667 ;; This function calls:
  6668 ;;		Nothing
  6669 ;; This function is called by:
  6670 ;;		_AverageTemp
  6671 ;;		_TempSensor
  6672 ;; This function uses a non-reentrant model
  6673 ;;
  6674                           
  6675                           
  6676                           ;psect for function ___fltol
  6677  0B59                     ___fltol:
  6678  0B59                     i1l2121:	
  6679                           ;incstack = 0
  6680 ;; hardware stack exceeded
  6681                           ; Regs used in ___fltol: [wreg+status,2+status,0+btemp+1]
  6682                           
  6683  0B59  1003               	clrc
  6684  0B5A  1283               	bcf	3,5	;RP0=0, select bank0
  6685  0B5B  1303               	bcf	3,6	;RP1=0, select bank0
  6686  0B5C  0D56               	rlf	___fltol@f1+2,w
  6687  0B5D  0D57               	rlf	___fltol@f1+3,w
  6688  0B5E  00FF               	movwf	btemp+1
  6689  0B5F  087F               	movf	btemp+1,w
  6690  0B60  00DD               	movwf	___fltol@exp1
  6691  0B61  085D               	movf	___fltol@exp1,w
  6692  0B62  1D03               	btfss	3,2
  6693  0B63  2B65               	goto	u222_21
  6694  0B64  2B66               	goto	u222_20
  6695  0B65                     u222_21:
  6696  0B65  2B6F               	goto	i1l2127
  6697  0B66                     u222_20:
  6698  0B66                     i1l2123:
  6699  0B66  3000               	movlw	0
  6700  0B67  00D7               	movwf	?___fltol+3
  6701  0B68  3000               	movlw	0
  6702  0B69  00D6               	movwf	?___fltol+2
  6703  0B6A  3000               	movlw	0
  6704  0B6B  00D5               	movwf	?___fltol+1
  6705  0B6C  3000               	movlw	0
  6706  0B6D  00D4               	movwf	?___fltol
  6707  0B6E  2BD4               	goto	i1l583
  6708  0B6F                     i1l2127:
  6709  0B6F  0854               	movf	___fltol@f1,w
  6710  0B70  00D8               	movwf	??___fltol
  6711  0B71  0855               	movf	___fltol@f1+1,w
  6712  0B72  00D9               	movwf	??___fltol+1
  6713  0B73  0856               	movf	___fltol@f1+2,w
  6714  0B74  00DA               	movwf	??___fltol+2
  6715  0B75  0857               	movf	___fltol@f1+3,w
  6716  0B76  00DB               	movwf	??___fltol+3
  6717  0B77  301F               	movlw	31
  6718  0B78                     u223_25:
  6719  0B78  1003               	clrc
  6720  0B79  0CDB               	rrf	??___fltol+3,f
  6721  0B7A  0CDA               	rrf	??___fltol+2,f
  6722  0B7B  0CD9               	rrf	??___fltol+1,f
  6723  0B7C  0CD8               	rrf	??___fltol,f
  6724  0B7D                     u223_20:
  6725  0B7D  3EFF               	addlw	-1
  6726  0B7E  1D03               	skipz
  6727  0B7F  2B78               	goto	u223_25
  6728  0B80  0858               	movf	??___fltol,w
  6729  0B81  00FF               	movwf	btemp+1
  6730  0B82  087F               	movf	btemp+1,w
  6731  0B83  00DC               	movwf	___fltol@sign1
  6732  0B84                     i1l2129:
  6733  0B84  17D6               	bsf	___fltol@f1+2,7
  6734  0B85                     i1l2131:
  6735  0B85  30FF               	movlw	255
  6736  0B86  05D4               	andwf	___fltol@f1,f
  6737  0B87  30FF               	movlw	255
  6738  0B88  05D5               	andwf	___fltol@f1+1,f
  6739  0B89  30FF               	movlw	255
  6740  0B8A  05D6               	andwf	___fltol@f1+2,f
  6741  0B8B  3000               	movlw	0
  6742  0B8C  05D7               	andwf	___fltol@f1+3,f
  6743  0B8D                     i1l2133:
  6744  0B8D  3096               	movlw	150
  6745  0B8E  02DD               	subwf	___fltol@exp1,f
  6746  0B8F                     i1l2135:
  6747  0B8F  1FDD               	btfss	___fltol@exp1,7
  6748  0B90  2B92               	goto	u224_21
  6749  0B91  2B93               	goto	u224_20
  6750  0B92                     u224_21:
  6751  0B92  2BAD               	goto	i1l2147
  6752  0B93                     u224_20:
  6753  0B93                     i1l2137:
  6754  0B93  085D               	movf	___fltol@exp1,w
  6755  0B94  3A80               	xorlw	128
  6756  0B95  3E97               	addlw	151
  6757  0B96  1803               	skipnc
  6758  0B97  2B99               	goto	u225_21
  6759  0B98  2B9A               	goto	u225_20
  6760  0B99                     u225_21:
  6761  0B99  2B9B               	goto	i1l2143
  6762  0B9A                     u225_20:
  6763  0B9A  2B66               	goto	i1l2123
  6764  0B9B                     i1l2143:
  6765  0B9B  3001               	movlw	1
  6766  0B9C                     u226_25:
  6767  0B9C  1003               	clrc
  6768  0B9D  0CD7               	rrf	___fltol@f1+3,f
  6769  0B9E  0CD6               	rrf	___fltol@f1+2,f
  6770  0B9F  0CD5               	rrf	___fltol@f1+1,f
  6771  0BA0  0CD4               	rrf	___fltol@f1,f
  6772  0BA1  3EFF               	addlw	-1
  6773  0BA2  1D03               	skipz
  6774  0BA3  2B9C               	goto	u226_25
  6775  0BA4                     i1l2145:
  6776  0BA4  3001               	movlw	1
  6777  0BA5  00FF               	movwf	btemp+1
  6778  0BA6  087F               	movf	btemp+1,w
  6779  0BA7  07DD               	addwf	___fltol@exp1,f
  6780  0BA8  1D03               	btfss	3,2
  6781  0BA9  2BAB               	goto	u227_21
  6782  0BAA  2BAC               	goto	u227_20
  6783  0BAB                     u227_21:
  6784  0BAB  2B9B               	goto	i1l2143
  6785  0BAC                     u227_20:
  6786  0BAC  2BC4               	goto	i1l2155
  6787  0BAD                     i1l2147:
  6788  0BAD  3020               	movlw	32
  6789  0BAE  025D               	subwf	___fltol@exp1,w
  6790  0BAF  1C03               	skipc
  6791  0BB0  2BB2               	goto	u228_21
  6792  0BB1  2BB3               	goto	u228_20
  6793  0BB2                     u228_21:
  6794  0BB2  2BBF               	goto	i1l590
  6795  0BB3                     u228_20:
  6796  0BB3  2B66               	goto	i1l2123
  6797  0BB4                     i1l2153:
  6798  0BB4  3001               	movlw	1
  6799  0BB5  00D8               	movwf	??___fltol
  6800  0BB6                     u229_25:
  6801  0BB6  1003               	clrc
  6802  0BB7  0DD4               	rlf	___fltol@f1,f
  6803  0BB8  0DD5               	rlf	___fltol@f1+1,f
  6804  0BB9  0DD6               	rlf	___fltol@f1+2,f
  6805  0BBA  0DD7               	rlf	___fltol@f1+3,f
  6806  0BBB  0BD8               	decfsz	??___fltol,f
  6807  0BBC  2BB6               	goto	u229_25
  6808  0BBD  3001               	movlw	1
  6809  0BBE  02DD               	subwf	___fltol@exp1,f
  6810  0BBF                     i1l590:
  6811  0BBF  085D               	movf	___fltol@exp1,w
  6812  0BC0  1D03               	btfss	3,2
  6813  0BC1  2BC3               	goto	u230_21
  6814  0BC2  2BC4               	goto	u230_20
  6815  0BC3                     u230_21:
  6816  0BC3  2BB4               	goto	i1l2153
  6817  0BC4                     u230_20:
  6818  0BC4                     i1l2155:
  6819  0BC4  085C               	movf	___fltol@sign1,w
  6820  0BC5  1903               	btfsc	3,2
  6821  0BC6  2BC8               	goto	u231_21
  6822  0BC7  2BC9               	goto	u231_20
  6823  0BC8                     u231_21:
  6824  0BC8  2BD4               	goto	i1l593
  6825  0BC9                     u231_20:
  6826  0BC9                     i1l2157:
  6827  0BC9  09D4               	comf	___fltol@f1,f
  6828  0BCA  09D5               	comf	___fltol@f1+1,f
  6829  0BCB  09D6               	comf	___fltol@f1+2,f
  6830  0BCC  09D7               	comf	___fltol@f1+3,f
  6831  0BCD  0AD4               	incf	___fltol@f1,f
  6832  0BCE  1903               	skipnz
  6833  0BCF  0AD5               	incf	___fltol@f1+1,f
  6834  0BD0  1903               	skipnz
  6835  0BD1  0AD6               	incf	___fltol@f1+2,f
  6836  0BD2  1903               	skipnz
  6837  0BD3  0AD7               	incf	___fltol@f1+3,f
  6838  0BD4                     i1l593:
  6839  0BD4                     i1l583:
  6840  0BD4  0008               	return
  6841  0BD5                     __end_of___fltol:
  6842                           
  6843                           	psect	text37
  6844  0BD5                     __ptext37:	
  6845 ;; *************** function ___fldiv *****************
  6846 ;; Defined at:
  6847 ;;		line 8 in file "C:\Program Files\Microchip\xc8\v2.20\pic\sources\c90\common\sprcdiv.c"
  6848 ;; Parameters:    Size  Location     Type
  6849 ;;  a               4   26[BANK0 ] long 
  6850 ;;  b               4   30[BANK0 ] long 
  6851 ;; Auto vars:     Size  Location     Type
  6852 ;;  grs             4   46[BANK0 ] unsigned long 
  6853 ;;  rem             4   39[BANK0 ] unsigned long 
  6854 ;;  new_exp         2   44[BANK0 ] int 
  6855 ;;  aexp            1   51[BANK0 ] unsigned char 
  6856 ;;  bexp            1   50[BANK0 ] unsigned char 
  6857 ;;  sign            1   43[BANK0 ] unsigned char 
  6858 ;; Return value:  Size  Location     Type
  6859 ;;                  4   26[BANK0 ] unsigned char 
  6860 ;; Registers used:
  6861 ;;		wreg, status,2, status,0, btemp+1
  6862 ;; Tracked objects:
  6863 ;;		On entry : 0/0
  6864 ;;		On exit  : 0/0
  6865 ;;		Unchanged: 0/0
  6866 ;; Data sizes:     COMMON   BANK0   BANK1   BANK3   BANK2
  6867 ;;      Params:         0       8       0       0       0
  6868 ;;      Locals:         0      13       0       0       0
  6869 ;;      Temps:          0       5       0       0       0
  6870 ;;      Totals:         0      26       0       0       0
  6871 ;;Total ram usage:       26 bytes
  6872 ;; Hardware stack levels used:    1
  6873 ;; This function calls:
  6874 ;;		Nothing
  6875 ;; This function is called by:
  6876 ;;		_AverageTemp
  6877 ;;		_TempSensor
  6878 ;; This function uses a non-reentrant model
  6879 ;;
  6880                           
  6881                           
  6882                           ;psect for function ___fldiv
  6883  0BD5                     ___fldiv:
  6884  0BD5                     i1l2409:	
  6885                           ;incstack = 0
  6886 ;; hardware stack exceeded
  6887                           ; Regs used in ___fldiv: [wreg+status,2+status,0+btemp+1]
  6888                           
  6889  0BD5  1283               	bcf	3,5	;RP0=0, select bank0
  6890  0BD6  1303               	bcf	3,6	;RP1=0, select bank0
  6891  0BD7  0841               	movf	___fldiv@b+3,w
  6892  0BD8  3980               	andlw	128
  6893  0BD9  00FF               	movwf	btemp+1
  6894  0BDA  087F               	movf	btemp+1,w
  6895  0BDB  00CB               	movwf	___fldiv@sign
  6896  0BDC                     i1l2411:
  6897  0BDC  0841               	movf	___fldiv@b+3,w
  6898  0BDD  00C2               	movwf	??___fldiv
  6899  0BDE  0742               	addwf	??___fldiv,w
  6900  0BDF  00FF               	movwf	btemp+1
  6901  0BE0  087F               	movf	btemp+1,w
  6902  0BE1  00D2               	movwf	___fldiv@bexp
  6903  0BE2                     i1l2413:
  6904  0BE2  1FC0               	btfss	___fldiv@b+2,7
  6905  0BE3  2BE5               	goto	u291_21
  6906  0BE4  2BE6               	goto	u291_20
  6907  0BE5                     u291_21:
  6908  0BE5  2BE7               	goto	i1l2417
  6909  0BE6                     u291_20:
  6910  0BE6                     i1l2415:
  6911  0BE6  1452               	bsf	___fldiv@bexp,0
  6912  0BE7                     i1l2417:
  6913  0BE7  0852               	movf	___fldiv@bexp,w
  6914  0BE8  1903               	btfsc	3,2
  6915  0BE9  2BEB               	goto	u292_21
  6916  0BEA  2BEC               	goto	u292_20
  6917  0BEB                     u292_21:
  6918  0BEB  2BFC               	goto	i1l2427
  6919  0BEC                     u292_20:
  6920  0BEC                     i1l2419:
  6921  0BEC  0A52               	incf	___fldiv@bexp,w
  6922  0BED  1D03               	btfss	3,2
  6923  0BEE  2BF0               	goto	u293_21
  6924  0BEF  2BF1               	goto	u293_20
  6925  0BF0                     u293_21:
  6926  0BF0  2BF9               	goto	i1l2423
  6927  0BF1                     u293_20:
  6928  0BF1                     i1l2421:
  6929  0BF1  3000               	movlw	0
  6930  0BF2  00C1               	movwf	___fldiv@b+3
  6931  0BF3  3000               	movlw	0
  6932  0BF4  00C0               	movwf	___fldiv@b+2
  6933  0BF5  3000               	movlw	0
  6934  0BF6  00BF               	movwf	___fldiv@b+1
  6935  0BF7  3000               	movlw	0
  6936  0BF8  00BE               	movwf	___fldiv@b
  6937  0BF9                     i1l2423:
  6938  0BF9  17C0               	bsf	___fldiv@b+2,7
  6939  0BFA                     i1l2425:
  6940  0BFA  01C1               	clrf	___fldiv@b+3
  6941  0BFB  2C04               	goto	i1l2429
  6942  0BFC                     i1l2427:
  6943  0BFC  3000               	movlw	0
  6944  0BFD  00C1               	movwf	___fldiv@b+3
  6945  0BFE  3000               	movlw	0
  6946  0BFF  00C0               	movwf	___fldiv@b+2
  6947  0C00  3000               	movlw	0
  6948  0C01  00BF               	movwf	___fldiv@b+1
  6949  0C02  3000               	movlw	0
  6950  0C03  00BE               	movwf	___fldiv@b
  6951  0C04                     i1l2429:
  6952  0C04  083D               	movf	___fldiv@a+3,w
  6953  0C05  3980               	andlw	128
  6954  0C06  00FF               	movwf	btemp+1
  6955  0C07  087F               	movf	btemp+1,w
  6956  0C08  06CB               	xorwf	___fldiv@sign,f
  6957  0C09                     i1l2431:
  6958  0C09  083D               	movf	___fldiv@a+3,w
  6959  0C0A  00C2               	movwf	??___fldiv
  6960  0C0B  0742               	addwf	??___fldiv,w
  6961  0C0C  00FF               	movwf	btemp+1
  6962  0C0D  087F               	movf	btemp+1,w
  6963  0C0E  00D3               	movwf	___fldiv@aexp
  6964  0C0F                     i1l2433:
  6965  0C0F  1FBC               	btfss	___fldiv@a+2,7
  6966  0C10  2C12               	goto	u294_21
  6967  0C11  2C13               	goto	u294_20
  6968  0C12                     u294_21:
  6969  0C12  2C14               	goto	i1l2437
  6970  0C13                     u294_20:
  6971  0C13                     i1l2435:
  6972  0C13  1453               	bsf	___fldiv@aexp,0
  6973  0C14                     i1l2437:
  6974  0C14  0853               	movf	___fldiv@aexp,w
  6975  0C15  1903               	btfsc	3,2
  6976  0C16  2C18               	goto	u295_21
  6977  0C17  2C19               	goto	u295_20
  6978  0C18                     u295_21:
  6979  0C18  2C29               	goto	i1l2447
  6980  0C19                     u295_20:
  6981  0C19                     i1l2439:
  6982  0C19  0A53               	incf	___fldiv@aexp,w
  6983  0C1A  1D03               	btfss	3,2
  6984  0C1B  2C1D               	goto	u296_21
  6985  0C1C  2C1E               	goto	u296_20
  6986  0C1D                     u296_21:
  6987  0C1D  2C26               	goto	i1l2443
  6988  0C1E                     u296_20:
  6989  0C1E                     i1l2441:
  6990  0C1E  3000               	movlw	0
  6991  0C1F  00BD               	movwf	___fldiv@a+3
  6992  0C20  3000               	movlw	0
  6993  0C21  00BC               	movwf	___fldiv@a+2
  6994  0C22  3000               	movlw	0
  6995  0C23  00BB               	movwf	___fldiv@a+1
  6996  0C24  3000               	movlw	0
  6997  0C25  00BA               	movwf	___fldiv@a
  6998  0C26                     i1l2443:
  6999  0C26  17BC               	bsf	___fldiv@a+2,7
  7000  0C27                     i1l2445:
  7001  0C27  01BD               	clrf	___fldiv@a+3
  7002  0C28  2C31               	goto	i1l746
  7003  0C29                     i1l2447:
  7004  0C29  3000               	movlw	0
  7005  0C2A  00BD               	movwf	___fldiv@a+3
  7006  0C2B  3000               	movlw	0
  7007  0C2C  00BC               	movwf	___fldiv@a+2
  7008  0C2D  3000               	movlw	0
  7009  0C2E  00BB               	movwf	___fldiv@a+1
  7010  0C2F  3000               	movlw	0
  7011  0C30  00BA               	movwf	___fldiv@a
  7012  0C31                     i1l746:
  7013  0C31  083D               	movf	___fldiv@a+3,w
  7014  0C32  043C               	iorwf	___fldiv@a+2,w
  7015  0C33  043B               	iorwf	___fldiv@a+1,w
  7016  0C34  043A               	iorwf	___fldiv@a,w
  7017  0C35  1D03               	skipz
  7018  0C36  2C38               	goto	u297_21
  7019  0C37  2C39               	goto	u297_20
  7020  0C38                     u297_21:
  7021  0C38  2C52               	goto	i1l2457
  7022  0C39                     u297_20:
  7023  0C39                     i1l2449:
  7024  0C39  3000               	movlw	0
  7025  0C3A  00C1               	movwf	___fldiv@b+3
  7026  0C3B  3000               	movlw	0
  7027  0C3C  00C0               	movwf	___fldiv@b+2
  7028  0C3D  3000               	movlw	0
  7029  0C3E  00BF               	movwf	___fldiv@b+1
  7030  0C3F  3000               	movlw	0
  7031  0C40  00BE               	movwf	___fldiv@b
  7032  0C41  3080               	movlw	128
  7033  0C42  04C0               	iorwf	___fldiv@b+2,f
  7034  0C43  307F               	movlw	127
  7035  0C44  04C1               	iorwf	___fldiv@b+3,f
  7036  0C45                     i1l2451:
  7037  0C45  084B               	movf	___fldiv@sign,w
  7038  0C46  00FF               	movwf	btemp+1
  7039  0C47  087F               	movf	btemp+1,w
  7040  0C48  04C1               	iorwf	___fldiv@b+3,f
  7041  0C49                     i1l2453:
  7042  0C49  0841               	movf	___fldiv@b+3,w
  7043  0C4A  00BD               	movwf	?___fldiv+3
  7044  0C4B  0840               	movf	___fldiv@b+2,w
  7045  0C4C  00BC               	movwf	?___fldiv+2
  7046  0C4D  083F               	movf	___fldiv@b+1,w
  7047  0C4E  00BB               	movwf	?___fldiv+1
  7048  0C4F  083E               	movf	___fldiv@b,w
  7049  0C50  00BA               	movwf	?___fldiv
  7050  0C51  2DB1               	goto	i1l748
  7051  0C52                     i1l2457:
  7052  0C52  0852               	movf	___fldiv@bexp,w
  7053  0C53  1D03               	btfss	3,2
  7054  0C54  2C56               	goto	u298_21
  7055  0C55  2C57               	goto	u298_20
  7056  0C56                     u298_21:
  7057  0C56  2C60               	goto	i1l2463
  7058  0C57                     u298_20:
  7059  0C57                     i1l2459:
  7060  0C57  3000               	movlw	0
  7061  0C58  00BD               	movwf	?___fldiv+3
  7062  0C59  3000               	movlw	0
  7063  0C5A  00BC               	movwf	?___fldiv+2
  7064  0C5B  3000               	movlw	0
  7065  0C5C  00BB               	movwf	?___fldiv+1
  7066  0C5D  3000               	movlw	0
  7067  0C5E  00BA               	movwf	?___fldiv
  7068  0C5F  2DB1               	goto	i1l748
  7069  0C60                     i1l2463:
  7070  0C60  0852               	movf	___fldiv@bexp,w
  7071  0C61  00C2               	movwf	??___fldiv
  7072  0C62  01C3               	clrf	??___fldiv+1
  7073  0C63  0843               	movf	??___fldiv+1,w
  7074  0C64  00C5               	movwf	??___fldiv+3
  7075  0C65  0853               	movf	___fldiv@aexp,w
  7076  0C66  0242               	subwf	??___fldiv,w
  7077  0C67  00C4               	movwf	??___fldiv+2
  7078  0C68  1C03               	skipc
  7079  0C69  03C5               	decf	??___fldiv+3,f
  7080  0C6A  0844               	movf	??___fldiv+2,w
  7081  0C6B  3E7F               	addlw	127
  7082  0C6C  00CC               	movwf	___fldiv@new_exp
  7083  0C6D  0845               	movf	??___fldiv+3,w
  7084  0C6E  1803               	skipnc
  7085  0C6F  3E01               	addlw	1
  7086  0C70  3E00               	addlw	0
  7087  0C71  00CD               	movwf	___fldiv@new_exp+1
  7088  0C72                     i1l2465:
  7089  0C72  0841               	movf	___fldiv@b+3,w
  7090  0C73  00CA               	movwf	___fldiv@rem+3
  7091  0C74  0840               	movf	___fldiv@b+2,w
  7092  0C75  00C9               	movwf	___fldiv@rem+2
  7093  0C76  083F               	movf	___fldiv@b+1,w
  7094  0C77  00C8               	movwf	___fldiv@rem+1
  7095  0C78  083E               	movf	___fldiv@b,w
  7096  0C79  00C7               	movwf	___fldiv@rem
  7097  0C7A                     i1l2467:
  7098  0C7A  3000               	movlw	0
  7099  0C7B  00C1               	movwf	___fldiv@b+3
  7100  0C7C  3000               	movlw	0
  7101  0C7D  00C0               	movwf	___fldiv@b+2
  7102  0C7E  3000               	movlw	0
  7103  0C7F  00BF               	movwf	___fldiv@b+1
  7104  0C80  3000               	movlw	0
  7105  0C81  00BE               	movwf	___fldiv@b
  7106  0C82                     i1l2469:
  7107  0C82  3000               	movlw	0
  7108  0C83  00D1               	movwf	___fldiv@grs+3
  7109  0C84  3000               	movlw	0
  7110  0C85  00D0               	movwf	___fldiv@grs+2
  7111  0C86  3000               	movlw	0
  7112  0C87  00CF               	movwf	___fldiv@grs+1
  7113  0C88  3000               	movlw	0
  7114  0C89  00CE               	movwf	___fldiv@grs
  7115  0C8A                     i1l2471:
  7116  0C8A  01D3               	clrf	___fldiv@aexp
  7117  0C8B  2CD6               	goto	i1l2491
  7118  0C8C                     i1l2473:
  7119  0C8C  0853               	movf	___fldiv@aexp,w
  7120  0C8D  1903               	btfsc	3,2
  7121  0C8E  2C90               	goto	u299_21
  7122  0C8F  2C91               	goto	u299_20
  7123  0C90                     u299_21:
  7124  0C90  2CB1               	goto	i1l2483
  7125  0C91                     u299_20:
  7126  0C91                     i1l2475:
  7127  0C91  3001               	movlw	1
  7128  0C92  00C2               	movwf	??___fldiv
  7129  0C93                     u300_25:
  7130  0C93  1003               	clrc
  7131  0C94  0DC7               	rlf	___fldiv@rem,f
  7132  0C95  0DC8               	rlf	___fldiv@rem+1,f
  7133  0C96  0DC9               	rlf	___fldiv@rem+2,f
  7134  0C97  0DCA               	rlf	___fldiv@rem+3,f
  7135  0C98  0BC2               	decfsz	??___fldiv,f
  7136  0C99  2C93               	goto	u300_25
  7137  0C9A  3001               	movlw	1
  7138  0C9B  00C2               	movwf	??___fldiv
  7139  0C9C                     u301_25:
  7140  0C9C  1003               	clrc
  7141  0C9D  0DBE               	rlf	___fldiv@b,f
  7142  0C9E  0DBF               	rlf	___fldiv@b+1,f
  7143  0C9F  0DC0               	rlf	___fldiv@b+2,f
  7144  0CA0  0DC1               	rlf	___fldiv@b+3,f
  7145  0CA1  0BC2               	decfsz	??___fldiv,f
  7146  0CA2  2C9C               	goto	u301_25
  7147  0CA3                     i1l2477:
  7148  0CA3  1FD1               	btfss	___fldiv@grs+3,7
  7149  0CA4  2CA6               	goto	u302_21
  7150  0CA5  2CA7               	goto	u302_20
  7151  0CA6                     u302_21:
  7152  0CA6  2CA8               	goto	i1l2481
  7153  0CA7                     u302_20:
  7154  0CA7                     i1l2479:
  7155  0CA7  143E               	bsf	___fldiv@b,0
  7156  0CA8                     i1l2481:
  7157  0CA8  3001               	movlw	1
  7158  0CA9  00C2               	movwf	??___fldiv
  7159  0CAA                     u303_25:
  7160  0CAA  1003               	clrc
  7161  0CAB  0DCE               	rlf	___fldiv@grs,f
  7162  0CAC  0DCF               	rlf	___fldiv@grs+1,f
  7163  0CAD  0DD0               	rlf	___fldiv@grs+2,f
  7164  0CAE  0DD1               	rlf	___fldiv@grs+3,f
  7165  0CAF  0BC2               	decfsz	??___fldiv,f
  7166  0CB0  2CAA               	goto	u303_25
  7167  0CB1                     i1l2483:
  7168  0CB1  083D               	movf	___fldiv@a+3,w
  7169  0CB2  024A               	subwf	___fldiv@rem+3,w
  7170  0CB3  1D03               	skipz
  7171  0CB4  2CBF               	goto	u304_25
  7172  0CB5  083C               	movf	___fldiv@a+2,w
  7173  0CB6  0249               	subwf	___fldiv@rem+2,w
  7174  0CB7  1D03               	skipz
  7175  0CB8  2CBF               	goto	u304_25
  7176  0CB9  083B               	movf	___fldiv@a+1,w
  7177  0CBA  0248               	subwf	___fldiv@rem+1,w
  7178  0CBB  1D03               	skipz
  7179  0CBC  2CBF               	goto	u304_25
  7180  0CBD  083A               	movf	___fldiv@a,w
  7181  0CBE  0247               	subwf	___fldiv@rem,w
  7182  0CBF                     u304_25:
  7183  0CBF  1C03               	skipc
  7184  0CC0  2CC2               	goto	u304_21
  7185  0CC1  2CC3               	goto	u304_20
  7186  0CC2                     u304_21:
  7187  0CC2  2CD2               	goto	i1l2489
  7188  0CC3                     u304_20:
  7189  0CC3                     i1l2485:
  7190  0CC3  1751               	bsf	___fldiv@grs+3,6
  7191  0CC4                     i1l2487:
  7192  0CC4  083A               	movf	___fldiv@a,w
  7193  0CC5  02C7               	subwf	___fldiv@rem,f
  7194  0CC6  083B               	movf	___fldiv@a+1,w
  7195  0CC7  1C03               	skipc
  7196  0CC8  0F3B               	incfsz	___fldiv@a+1,w
  7197  0CC9  02C8               	subwf	___fldiv@rem+1,f
  7198  0CCA  083C               	movf	___fldiv@a+2,w
  7199  0CCB  1C03               	skipc
  7200  0CCC  0F3C               	incfsz	___fldiv@a+2,w
  7201  0CCD  02C9               	subwf	___fldiv@rem+2,f
  7202  0CCE  083D               	movf	___fldiv@a+3,w
  7203  0CCF  1C03               	skipc
  7204  0CD0  0F3D               	incfsz	___fldiv@a+3,w
  7205  0CD1  02CA               	subwf	___fldiv@rem+3,f
  7206  0CD2                     i1l2489:
  7207  0CD2  3001               	movlw	1
  7208  0CD3  00FF               	movwf	btemp+1
  7209  0CD4  087F               	movf	btemp+1,w
  7210  0CD5  07D3               	addwf	___fldiv@aexp,f
  7211  0CD6                     i1l2491:
  7212  0CD6  301A               	movlw	26
  7213  0CD7  0253               	subwf	___fldiv@aexp,w
  7214  0CD8  1C03               	skipc
  7215  0CD9  2CDB               	goto	u305_21
  7216  0CDA  2CDC               	goto	u305_20
  7217  0CDB                     u305_21:
  7218  0CDB  2C8C               	goto	i1l2473
  7219  0CDC                     u305_20:
  7220  0CDC                     i1l2493:
  7221  0CDC  084A               	movf	___fldiv@rem+3,w
  7222  0CDD  0449               	iorwf	___fldiv@rem+2,w
  7223  0CDE  0448               	iorwf	___fldiv@rem+1,w
  7224  0CDF  0447               	iorwf	___fldiv@rem,w
  7225  0CE0  1903               	skipnz
  7226  0CE1  2CE3               	goto	u306_21
  7227  0CE2  2CE4               	goto	u306_20
  7228  0CE3                     u306_21:
  7229  0CE3  2D03               	goto	i1l2507
  7230  0CE4                     u306_20:
  7231  0CE4                     i1l2495:
  7232  0CE4  144E               	bsf	___fldiv@grs,0
  7233  0CE5  2D03               	goto	i1l2507
  7234  0CE6                     i1l2497:
  7235  0CE6  3001               	movlw	1
  7236  0CE7  00C2               	movwf	??___fldiv
  7237  0CE8                     u307_25:
  7238  0CE8  1003               	clrc
  7239  0CE9  0DBE               	rlf	___fldiv@b,f
  7240  0CEA  0DBF               	rlf	___fldiv@b+1,f
  7241  0CEB  0DC0               	rlf	___fldiv@b+2,f
  7242  0CEC  0DC1               	rlf	___fldiv@b+3,f
  7243  0CED  0BC2               	decfsz	??___fldiv,f
  7244  0CEE  2CE8               	goto	u307_25
  7245  0CEF                     i1l2499:
  7246  0CEF  1FD1               	btfss	___fldiv@grs+3,7
  7247  0CF0  2CF2               	goto	u308_21
  7248  0CF1  2CF3               	goto	u308_20
  7249  0CF2                     u308_21:
  7250  0CF2  2CF4               	goto	i1l2503
  7251  0CF3                     u308_20:
  7252  0CF3                     i1l2501:
  7253  0CF3  143E               	bsf	___fldiv@b,0
  7254  0CF4                     i1l2503:
  7255  0CF4  3001               	movlw	1
  7256  0CF5  00C2               	movwf	??___fldiv
  7257  0CF6                     u309_25:
  7258  0CF6  1003               	clrc
  7259  0CF7  0DCE               	rlf	___fldiv@grs,f
  7260  0CF8  0DCF               	rlf	___fldiv@grs+1,f
  7261  0CF9  0DD0               	rlf	___fldiv@grs+2,f
  7262  0CFA  0DD1               	rlf	___fldiv@grs+3,f
  7263  0CFB  0BC2               	decfsz	??___fldiv,f
  7264  0CFC  2CF6               	goto	u309_25
  7265  0CFD                     i1l2505:
  7266  0CFD  30FF               	movlw	255
  7267  0CFE  07CC               	addwf	___fldiv@new_exp,f
  7268  0CFF  1803               	skipnc
  7269  0D00  0ACD               	incf	___fldiv@new_exp+1,f
  7270  0D01  30FF               	movlw	255
  7271  0D02  07CD               	addwf	___fldiv@new_exp+1,f
  7272  0D03                     i1l2507:
  7273  0D03  1FC0               	btfss	___fldiv@b+2,7
  7274  0D04  2D06               	goto	u310_21
  7275  0D05  2D07               	goto	u310_20
  7276  0D06                     u310_21:
  7277  0D06  2CE6               	goto	i1l2497
  7278  0D07                     u310_20:
  7279  0D07                     i1l2509:
  7280  0D07  01D3               	clrf	___fldiv@aexp
  7281  0D08                     i1l2511:
  7282  0D08  1FD1               	btfss	___fldiv@grs+3,7
  7283  0D09  2D0B               	goto	u311_21
  7284  0D0A  2D0C               	goto	u311_20
  7285  0D0B                     u311_21:
  7286  0D0B  2D28               	goto	i1l2519
  7287  0D0C                     u311_20:
  7288  0D0C                     i1l2513:
  7289  0D0C  30FF               	movlw	255
  7290  0D0D  054E               	andwf	___fldiv@grs,w
  7291  0D0E  00C2               	movwf	??___fldiv
  7292  0D0F  30FF               	movlw	255
  7293  0D10  054F               	andwf	___fldiv@grs+1,w
  7294  0D11  00C3               	movwf	??___fldiv+1
  7295  0D12  30FF               	movlw	255
  7296  0D13  0550               	andwf	___fldiv@grs+2,w
  7297  0D14  00C4               	movwf	??___fldiv+2
  7298  0D15  307F               	movlw	127
  7299  0D16  0551               	andwf	___fldiv@grs+3,w
  7300  0D17  00C5               	movwf	??___fldiv+3
  7301  0D18  0845               	movf	??___fldiv+3,w
  7302  0D19  0444               	iorwf	??___fldiv+2,w
  7303  0D1A  0443               	iorwf	??___fldiv+1,w
  7304  0D1B  0442               	iorwf	??___fldiv,w
  7305  0D1C  1903               	skipnz
  7306  0D1D  2D1F               	goto	u312_21
  7307  0D1E  2D20               	goto	u312_20
  7308  0D1F                     u312_21:
  7309  0D1F  2D23               	goto	i1l762
  7310  0D20                     u312_20:
  7311  0D20                     i1l2515:
  7312  0D20  01D3               	clrf	___fldiv@aexp
  7313  0D21  0AD3               	incf	___fldiv@aexp,f
  7314  0D22  2D28               	goto	i1l2519
  7315  0D23                     i1l762:
  7316  0D23  1C3E               	btfss	___fldiv@b,0
  7317  0D24  2D26               	goto	u313_21
  7318  0D25  2D27               	goto	u313_20
  7319  0D26                     u313_21:
  7320  0D26  2D28               	goto	i1l2519
  7321  0D27                     u313_20:
  7322  0D27  2D20               	goto	i1l2515
  7323  0D28                     i1l2519:
  7324  0D28  0853               	movf	___fldiv@aexp,w
  7325  0D29  1903               	btfsc	3,2
  7326  0D2A  2D2C               	goto	u314_21
  7327  0D2B  2D2D               	goto	u314_20
  7328  0D2C                     u314_21:
  7329  0D2C  2D5E               	goto	i1l2529
  7330  0D2D                     u314_20:
  7331  0D2D                     i1l2521:
  7332  0D2D  3001               	movlw	1
  7333  0D2E  07BE               	addwf	___fldiv@b,f
  7334  0D2F  3000               	movlw	0
  7335  0D30  1803               	skipnc
  7336  0D31  3001               	movlw	1
  7337  0D32  07BF               	addwf	___fldiv@b+1,f
  7338  0D33  3000               	movlw	0
  7339  0D34  1803               	skipnc
  7340  0D35  3001               	movlw	1
  7341  0D36  07C0               	addwf	___fldiv@b+2,f
  7342  0D37  3000               	movlw	0
  7343  0D38  1803               	skipnc
  7344  0D39  3001               	movlw	1
  7345  0D3A  07C1               	addwf	___fldiv@b+3,f
  7346  0D3B                     i1l2523:
  7347  0D3B  1C41               	btfss	___fldiv@b+3,0
  7348  0D3C  2D3E               	goto	u315_21
  7349  0D3D  2D3F               	goto	u315_20
  7350  0D3E                     u315_21:
  7351  0D3E  2D5E               	goto	i1l2529
  7352  0D3F                     u315_20:
  7353  0D3F                     i1l2525:
  7354  0D3F  083E               	movf	___fldiv@b,w
  7355  0D40  00C2               	movwf	??___fldiv
  7356  0D41  083F               	movf	___fldiv@b+1,w
  7357  0D42  00C3               	movwf	??___fldiv+1
  7358  0D43  0840               	movf	___fldiv@b+2,w
  7359  0D44  00C4               	movwf	??___fldiv+2
  7360  0D45  0841               	movf	___fldiv@b+3,w
  7361  0D46  00C5               	movwf	??___fldiv+3
  7362  0D47  3001               	movlw	1
  7363  0D48  00C6               	movwf	??___fldiv+4
  7364  0D49                     u316_25:
  7365  0D49  0D45               	rlf	??___fldiv+3,w
  7366  0D4A  0CC5               	rrf	??___fldiv+3,f
  7367  0D4B  0CC4               	rrf	??___fldiv+2,f
  7368  0D4C  0CC3               	rrf	??___fldiv+1,f
  7369  0D4D  0CC2               	rrf	??___fldiv,f
  7370  0D4E                     u316_20:
  7371  0D4E  0BC6               	decfsz	??___fldiv+4,f
  7372  0D4F  2D49               	goto	u316_25
  7373  0D50  0845               	movf	??___fldiv+3,w
  7374  0D51  00C1               	movwf	___fldiv@b+3
  7375  0D52  0844               	movf	??___fldiv+2,w
  7376  0D53  00C0               	movwf	___fldiv@b+2
  7377  0D54  0843               	movf	??___fldiv+1,w
  7378  0D55  00BF               	movwf	___fldiv@b+1
  7379  0D56  0842               	movf	??___fldiv,w
  7380  0D57  00BE               	movwf	___fldiv@b
  7381  0D58                     i1l2527:
  7382  0D58  3001               	movlw	1
  7383  0D59  07CC               	addwf	___fldiv@new_exp,f
  7384  0D5A  1803               	skipnc
  7385  0D5B  0ACD               	incf	___fldiv@new_exp+1,f
  7386  0D5C  3000               	movlw	0
  7387  0D5D  07CD               	addwf	___fldiv@new_exp+1,f
  7388  0D5E                     i1l2529:
  7389  0D5E  084D               	movf	___fldiv@new_exp+1,w
  7390  0D5F  3A80               	xorlw	128
  7391  0D60  00FF               	movwf	btemp+1
  7392  0D61  3080               	movlw	128
  7393  0D62  027F               	subwf	btemp+1,w
  7394  0D63  1D03               	skipz
  7395  0D64  2D67               	goto	u317_25
  7396  0D65  30FF               	movlw	255
  7397  0D66  024C               	subwf	___fldiv@new_exp,w
  7398  0D67                     u317_25:
  7399  0D67  1C03               	skipc
  7400  0D68  2D6A               	goto	u317_21
  7401  0D69  2D6B               	goto	u317_20
  7402  0D6A                     u317_21:
  7403  0D6A  2D79               	goto	i1l2533
  7404  0D6B                     u317_20:
  7405  0D6B                     i1l2531:
  7406  0D6B  30FF               	movlw	255
  7407  0D6C  1283               	bcf	3,5	;RP0=0, select bank0
  7408  0D6D  1303               	bcf	3,6	;RP1=0, select bank0
  7409  0D6E  00CC               	movwf	___fldiv@new_exp
  7410  0D6F  3000               	movlw	0
  7411  0D70  00CD               	movwf	___fldiv@new_exp+1
  7412  0D71  3000               	movlw	0
  7413  0D72  00C1               	movwf	___fldiv@b+3
  7414  0D73  3000               	movlw	0
  7415  0D74  00C0               	movwf	___fldiv@b+2
  7416  0D75  3000               	movlw	0
  7417  0D76  00BF               	movwf	___fldiv@b+1
  7418  0D77  3000               	movlw	0
  7419  0D78  00BE               	movwf	___fldiv@b
  7420  0D79                     i1l2533:
  7421  0D79  1283               	bcf	3,5	;RP0=0, select bank0
  7422  0D7A  1303               	bcf	3,6	;RP1=0, select bank0
  7423  0D7B  084D               	movf	___fldiv@new_exp+1,w
  7424  0D7C  3A80               	xorlw	128
  7425  0D7D  00FF               	movwf	btemp+1
  7426  0D7E  3080               	movlw	128
  7427  0D7F  027F               	subwf	btemp+1,w
  7428  0D80  1D03               	skipz
  7429  0D81  2D84               	goto	u318_25
  7430  0D82  3001               	movlw	1
  7431  0D83  024C               	subwf	___fldiv@new_exp,w
  7432  0D84                     u318_25:
  7433  0D84  1803               	skipnc
  7434  0D85  2D87               	goto	u318_21
  7435  0D86  2D88               	goto	u318_20
  7436  0D87                     u318_21:
  7437  0D87  2D95               	goto	i1l2541
  7438  0D88                     u318_20:
  7439  0D88                     i1l2535:
  7440  0D88  1283               	bcf	3,5	;RP0=0, select bank0
  7441  0D89  1303               	bcf	3,6	;RP1=0, select bank0
  7442  0D8A  01CC               	clrf	___fldiv@new_exp
  7443  0D8B  01CD               	clrf	___fldiv@new_exp+1
  7444  0D8C                     i1l2537:
  7445  0D8C  3000               	movlw	0
  7446  0D8D  00C1               	movwf	___fldiv@b+3
  7447  0D8E  3000               	movlw	0
  7448  0D8F  00C0               	movwf	___fldiv@b+2
  7449  0D90  3000               	movlw	0
  7450  0D91  00BF               	movwf	___fldiv@b+1
  7451  0D92  3000               	movlw	0
  7452  0D93  00BE               	movwf	___fldiv@b
  7453  0D94                     i1l2539:
  7454  0D94  01CB               	clrf	___fldiv@sign
  7455  0D95                     i1l2541:
  7456  0D95  1283               	bcf	3,5	;RP0=0, select bank0
  7457  0D96  1303               	bcf	3,6	;RP1=0, select bank0
  7458  0D97  084C               	movf	___fldiv@new_exp,w
  7459  0D98  00FF               	movwf	btemp+1
  7460  0D99  087F               	movf	btemp+1,w
  7461  0D9A  00D2               	movwf	___fldiv@bexp
  7462  0D9B                     i1l2543:
  7463  0D9B  1C52               	btfss	___fldiv@bexp,0
  7464  0D9C  2D9E               	goto	u319_21
  7465  0D9D  2D9F               	goto	u319_20
  7466  0D9E                     u319_21:
  7467  0D9E  2DA1               	goto	i1l2547
  7468  0D9F                     u319_20:
  7469  0D9F                     i1l2545:
  7470  0D9F  17C0               	bsf	___fldiv@b+2,7
  7471  0DA0  2DA5               	goto	i1l770
  7472  0DA1                     i1l2547:
  7473  0DA1  307F               	movlw	127
  7474  0DA2  00FF               	movwf	btemp+1
  7475  0DA3  087F               	movf	btemp+1,w
  7476  0DA4  05C0               	andwf	___fldiv@b+2,f
  7477  0DA5                     i1l770:
  7478  0DA5  0852               	movf	___fldiv@bexp,w
  7479  0DA6  00C2               	movwf	??___fldiv
  7480  0DA7  1003               	clrc
  7481  0DA8  0C42               	rrf	??___fldiv,w
  7482  0DA9  00FF               	movwf	btemp+1
  7483  0DAA  087F               	movf	btemp+1,w
  7484  0DAB  00C1               	movwf	___fldiv@b+3
  7485  0DAC  084B               	movf	___fldiv@sign,w
  7486  0DAD  00FF               	movwf	btemp+1
  7487  0DAE  087F               	movf	btemp+1,w
  7488  0DAF  04C1               	iorwf	___fldiv@b+3,f
  7489  0DB0  2C49               	goto	i1l2453
  7490  0DB1                     i1l748:
  7491  0DB1  0008               	return
  7492  0DB2                     __end_of___fldiv:
  7493                           
  7494                           	psect	text38
  7495  039E                     __ptext38:	
  7496 ;; *************** function ___fladd *****************
  7497 ;; Defined at:
  7498 ;;		line 10 in file "C:\Program Files\Microchip\xc8\v2.20\pic\sources\c90\common\sprcadd.c"
  7499 ;; Parameters:    Size  Location     Type
  7500 ;;  b               4    0[COMMON] unsigned char 
  7501 ;;  a               4    4[COMMON] unsigned char 
  7502 ;; Auto vars:     Size  Location     Type
  7503 ;;  grs             1   11[COMMON] unsigned char 
  7504 ;;  bexp            1   10[COMMON] unsigned char 
  7505 ;;  aexp            1    9[COMMON] unsigned char 
  7506 ;;  signs           1    8[COMMON] unsigned char 
  7507 ;; Return value:  Size  Location     Type
  7508 ;;                  4    0[COMMON] unsigned char 
  7509 ;; Registers used:
  7510 ;;		wreg, status,2, status,0, btemp+1
  7511 ;; Tracked objects:
  7512 ;;		On entry : 0/0
  7513 ;;		On exit  : 0/0
  7514 ;;		Unchanged: 0/0
  7515 ;; Data sizes:     COMMON   BANK0   BANK1   BANK3   BANK2
  7516 ;;      Params:         8       0       0       0       0
  7517 ;;      Locals:         4       0       0       0       0
  7518 ;;      Temps:          0       8       0       0       0
  7519 ;;      Totals:        12       8       0       0       0
  7520 ;;Total ram usage:       20 bytes
  7521 ;; Hardware stack levels used:    1
  7522 ;; This function calls:
  7523 ;;		Nothing
  7524 ;; This function is called by:
  7525 ;;		_AverageTemp
  7526 ;; This function uses a non-reentrant model
  7527 ;;
  7528                           
  7529                           
  7530                           ;psect for function ___fladd
  7531  039E                     ___fladd:
  7532  039E                     i1l2207:	
  7533                           ;incstack = 0
  7534 ;; hardware stack exceeded
  7535                           ; Regs used in ___fladd: [wreg+status,2+status,0+btemp+1]
  7536                           
  7537  039E  0873               	movf	___fladd@b+3,w
  7538  039F  3980               	andlw	128
  7539  03A0  00FF               	movwf	btemp+1
  7540  03A1  087F               	movf	btemp+1,w
  7541  03A2  00F8               	movwf	___fladd@signs
  7542  03A3                     i1l2209:
  7543  03A3  0873               	movf	___fladd@b+3,w
  7544  03A4  1283               	bcf	3,5	;RP0=0, select bank0
  7545  03A5  1303               	bcf	3,6	;RP1=0, select bank0
  7546  03A6  00A0               	movwf	??___fladd
  7547  03A7  0720               	addwf	??___fladd,w
  7548  03A8  00FF               	movwf	btemp+1
  7549  03A9  087F               	movf	btemp+1,w
  7550  03AA  00FA               	movwf	___fladd@bexp
  7551  03AB                     i1l2211:
  7552  03AB  1FF2               	btfss	___fladd@b+2,7
  7553  03AC  2BAE               	goto	u245_21
  7554  03AD  2BAF               	goto	u245_20
  7555  03AE                     u245_21:
  7556  03AE  2BB0               	goto	i1l2215
  7557  03AF                     u245_20:
  7558  03AF                     i1l2213:
  7559  03AF  147A               	bsf	___fladd@bexp,0
  7560  03B0                     i1l2215:
  7561  03B0  087A               	movf	___fladd@bexp,w
  7562  03B1  1903               	btfsc	3,2
  7563  03B2  2BB4               	goto	u246_21
  7564  03B3  2BB5               	goto	u246_20
  7565  03B4                     u246_21:
  7566  03B4  2BC5               	goto	i1l2225
  7567  03B5                     u246_20:
  7568  03B5                     i1l2217:
  7569  03B5  0A7A               	incf	___fladd@bexp,w
  7570  03B6  1D03               	btfss	3,2
  7571  03B7  2BB9               	goto	u247_21
  7572  03B8  2BBA               	goto	u247_20
  7573  03B9                     u247_21:
  7574  03B9  2BC2               	goto	i1l2221
  7575  03BA                     u247_20:
  7576  03BA                     i1l2219:
  7577  03BA  3000               	movlw	0
  7578  03BB  00F3               	movwf	___fladd@b+3
  7579  03BC  3000               	movlw	0
  7580  03BD  00F2               	movwf	___fladd@b+2
  7581  03BE  3000               	movlw	0
  7582  03BF  00F1               	movwf	___fladd@b+1
  7583  03C0  3000               	movlw	0
  7584  03C1  00F0               	movwf	___fladd@b
  7585  03C2                     i1l2221:
  7586  03C2  17F2               	bsf	___fladd@b+2,7
  7587  03C3                     i1l2223:
  7588  03C3  01F3               	clrf	___fladd@b+3
  7589  03C4  2BCD               	goto	i1l2227
  7590  03C5                     i1l2225:
  7591  03C5  3000               	movlw	0
  7592  03C6  00F3               	movwf	___fladd@b+3
  7593  03C7  3000               	movlw	0
  7594  03C8  00F2               	movwf	___fladd@b+2
  7595  03C9  3000               	movlw	0
  7596  03CA  00F1               	movwf	___fladd@b+1
  7597  03CB  3000               	movlw	0
  7598  03CC  00F0               	movwf	___fladd@b
  7599  03CD                     i1l2227:
  7600  03CD  0877               	movf	___fladd@a+3,w
  7601  03CE  3980               	andlw	128
  7602  03CF  00FF               	movwf	btemp+1
  7603  03D0  087F               	movf	btemp+1,w
  7604  03D1  00F9               	movwf	___fladd@aexp
  7605  03D2                     i1l2229:
  7606  03D2  0879               	movf	___fladd@aexp,w
  7607  03D3  0678               	xorwf	___fladd@signs,w
  7608  03D4  1903               	skipnz
  7609  03D5  2BD7               	goto	u248_21
  7610  03D6  2BD8               	goto	u248_20
  7611  03D7                     u248_21:
  7612  03D7  2BD9               	goto	i1l2233
  7613  03D8                     u248_20:
  7614  03D8                     i1l2231:
  7615  03D8  1778               	bsf	___fladd@signs,6
  7616  03D9                     i1l2233:
  7617  03D9  0877               	movf	___fladd@a+3,w
  7618  03DA  00A0               	movwf	??___fladd
  7619  03DB  0720               	addwf	??___fladd,w
  7620  03DC  00FF               	movwf	btemp+1
  7621  03DD  087F               	movf	btemp+1,w
  7622  03DE  00F9               	movwf	___fladd@aexp
  7623  03DF                     i1l2235:
  7624  03DF  1FF6               	btfss	___fladd@a+2,7
  7625  03E0  2BE2               	goto	u249_21
  7626  03E1  2BE3               	goto	u249_20
  7627  03E2                     u249_21:
  7628  03E2  2BE4               	goto	i1l2239
  7629  03E3                     u249_20:
  7630  03E3                     i1l2237:
  7631  03E3  1479               	bsf	___fladd@aexp,0
  7632  03E4                     i1l2239:
  7633  03E4  0879               	movf	___fladd@aexp,w
  7634  03E5  1903               	btfsc	3,2
  7635  03E6  2BE8               	goto	u250_21
  7636  03E7  2BE9               	goto	u250_20
  7637  03E8                     u250_21:
  7638  03E8  2BF9               	goto	i1l2249
  7639  03E9                     u250_20:
  7640  03E9                     i1l2241:
  7641  03E9  0A79               	incf	___fladd@aexp,w
  7642  03EA  1D03               	btfss	3,2
  7643  03EB  2BED               	goto	u251_21
  7644  03EC  2BEE               	goto	u251_20
  7645  03ED                     u251_21:
  7646  03ED  2BF6               	goto	i1l2245
  7647  03EE                     u251_20:
  7648  03EE                     i1l2243:
  7649  03EE  3000               	movlw	0
  7650  03EF  00F7               	movwf	___fladd@a+3
  7651  03F0  3000               	movlw	0
  7652  03F1  00F6               	movwf	___fladd@a+2
  7653  03F2  3000               	movlw	0
  7654  03F3  00F5               	movwf	___fladd@a+1
  7655  03F4  3000               	movlw	0
  7656  03F5  00F4               	movwf	___fladd@a
  7657  03F6                     i1l2245:
  7658  03F6  17F6               	bsf	___fladd@a+2,7
  7659  03F7                     i1l2247:
  7660  03F7  01F7               	clrf	___fladd@a+3
  7661  03F8  2C01               	goto	i1l690
  7662  03F9                     i1l2249:
  7663  03F9  3000               	movlw	0
  7664  03FA  00F7               	movwf	___fladd@a+3
  7665  03FB  3000               	movlw	0
  7666  03FC  00F6               	movwf	___fladd@a+2
  7667  03FD  3000               	movlw	0
  7668  03FE  00F5               	movwf	___fladd@a+1
  7669  03FF  3000               	movlw	0
  7670  0400  00F4               	movwf	___fladd@a
  7671  0401                     i1l690:
  7672  0401  087A               	movf	___fladd@bexp,w
  7673  0402  0279               	subwf	___fladd@aexp,w
  7674  0403  1803               	skipnc
  7675  0404  2C06               	goto	u252_21
  7676  0405  2C07               	goto	u252_20
  7677  0406                     u252_21:
  7678  0406  2C4B               	goto	i1l2285
  7679  0407                     u252_20:
  7680  0407                     i1l2251:
  7681  0407  1F78               	btfss	___fladd@signs,6
  7682  0408  2C0A               	goto	u253_21
  7683  0409  2C0B               	goto	u253_20
  7684  040A                     u253_21:
  7685  040A  2C0F               	goto	i1l2255
  7686  040B                     u253_20:
  7687  040B                     i1l2253:
  7688  040B  3080               	movlw	128
  7689  040C  00FF               	movwf	btemp+1
  7690  040D  087F               	movf	btemp+1,w
  7691  040E  06F8               	xorwf	___fladd@signs,f
  7692  040F                     i1l2255:
  7693  040F  087A               	movf	___fladd@bexp,w
  7694  0410  00FF               	movwf	btemp+1
  7695  0411  087F               	movf	btemp+1,w
  7696  0412  00FB               	movwf	___fladd@grs
  7697  0413                     i1l2257:
  7698  0413  0879               	movf	___fladd@aexp,w
  7699  0414  00FF               	movwf	btemp+1
  7700  0415  087F               	movf	btemp+1,w
  7701  0416  00FA               	movwf	___fladd@bexp
  7702  0417                     i1l2259:
  7703  0417  087B               	movf	___fladd@grs,w
  7704  0418  00FF               	movwf	btemp+1
  7705  0419  087F               	movf	btemp+1,w
  7706  041A  00F9               	movwf	___fladd@aexp
  7707  041B                     i1l2261:
  7708  041B  0870               	movf	___fladd@b,w
  7709  041C  00FF               	movwf	btemp+1
  7710  041D  087F               	movf	btemp+1,w
  7711  041E  00FB               	movwf	___fladd@grs
  7712  041F                     i1l2263:
  7713  041F  0874               	movf	___fladd@a,w
  7714  0420  00FF               	movwf	btemp+1
  7715  0421  087F               	movf	btemp+1,w
  7716  0422  00F0               	movwf	___fladd@b
  7717  0423                     i1l2265:
  7718  0423  087B               	movf	___fladd@grs,w
  7719  0424  00FF               	movwf	btemp+1
  7720  0425  087F               	movf	btemp+1,w
  7721  0426  00F4               	movwf	___fladd@a
  7722  0427                     i1l2267:
  7723  0427  0871               	movf	___fladd@b+1,w
  7724  0428  00FF               	movwf	btemp+1
  7725  0429  087F               	movf	btemp+1,w
  7726  042A  00FB               	movwf	___fladd@grs
  7727  042B                     i1l2269:
  7728  042B  0875               	movf	___fladd@a+1,w
  7729  042C  00FF               	movwf	btemp+1
  7730  042D  087F               	movf	btemp+1,w
  7731  042E  00F1               	movwf	___fladd@b+1
  7732  042F                     i1l2271:
  7733  042F  087B               	movf	___fladd@grs,w
  7734  0430  00FF               	movwf	btemp+1
  7735  0431  087F               	movf	btemp+1,w
  7736  0432  00F5               	movwf	___fladd@a+1
  7737  0433                     i1l2273:
  7738  0433  0872               	movf	___fladd@b+2,w
  7739  0434  00FF               	movwf	btemp+1
  7740  0435  087F               	movf	btemp+1,w
  7741  0436  00FB               	movwf	___fladd@grs
  7742  0437                     i1l2275:
  7743  0437  0876               	movf	___fladd@a+2,w
  7744  0438  00FF               	movwf	btemp+1
  7745  0439  087F               	movf	btemp+1,w
  7746  043A  00F2               	movwf	___fladd@b+2
  7747  043B                     i1l2277:
  7748  043B  087B               	movf	___fladd@grs,w
  7749  043C  00FF               	movwf	btemp+1
  7750  043D  087F               	movf	btemp+1,w
  7751  043E  00F6               	movwf	___fladd@a+2
  7752  043F                     i1l2279:
  7753  043F  0873               	movf	___fladd@b+3,w
  7754  0440  00FF               	movwf	btemp+1
  7755  0441  087F               	movf	btemp+1,w
  7756  0442  00FB               	movwf	___fladd@grs
  7757  0443                     i1l2281:
  7758  0443  0877               	movf	___fladd@a+3,w
  7759  0444  00FF               	movwf	btemp+1
  7760  0445  087F               	movf	btemp+1,w
  7761  0446  00F3               	movwf	___fladd@b+3
  7762  0447                     i1l2283:
  7763  0447  087B               	movf	___fladd@grs,w
  7764  0448  00FF               	movwf	btemp+1
  7765  0449  087F               	movf	btemp+1,w
  7766  044A  00F7               	movwf	___fladd@a+3
  7767  044B                     i1l2285:
  7768  044B  01FB               	clrf	___fladd@grs
  7769  044C                     i1l2287:
  7770  044C  0879               	movf	___fladd@aexp,w
  7771  044D  00A0               	movwf	??___fladd
  7772  044E  01A1               	clrf	??___fladd+1
  7773  044F  0821               	movf	??___fladd+1,w
  7774  0450  00A3               	movwf	??___fladd+3
  7775  0451  087A               	movf	___fladd@bexp,w
  7776  0452  0220               	subwf	??___fladd,w
  7777  0453  00A2               	movwf	??___fladd+2
  7778  0454  1C03               	skipc
  7779  0455  03A3               	decf	??___fladd+3,f
  7780  0456  0823               	movf	??___fladd+3,w
  7781  0457  3A80               	xorlw	128
  7782  0458  00FF               	movwf	btemp+1
  7783  0459  3080               	movlw	128
  7784  045A  027F               	subwf	btemp+1,w
  7785  045B  1D03               	skipz
  7786  045C  2C5F               	goto	u254_25
  7787  045D  301A               	movlw	26
  7788  045E  0222               	subwf	??___fladd+2,w
  7789  045F                     u254_25:
  7790  045F  1C03               	skipc
  7791  0460  2C62               	goto	u254_21
  7792  0461  2C63               	goto	u254_20
  7793  0462                     u254_21:
  7794  0462  2CA2               	goto	i1l2307
  7795  0463                     u254_20:
  7796  0463                     i1l2289:
  7797  0463  0873               	movf	___fladd@b+3,w
  7798  0464  0472               	iorwf	___fladd@b+2,w
  7799  0465  0471               	iorwf	___fladd@b+1,w
  7800  0466  0470               	iorwf	___fladd@b,w
  7801  0467  1D03               	skipz
  7802  0468  2C6A               	goto	u255_21
  7803  0469  2C6C               	goto	u255_20
  7804  046A                     u255_21:
  7805  046A  3001               	movlw	1
  7806  046B  2C6D               	goto	u256_20
  7807  046C                     u255_20:
  7808  046C  3000               	movlw	0
  7809  046D                     u256_20:
  7810  046D  00FF               	movwf	btemp+1
  7811  046E  087F               	movf	btemp+1,w
  7812  046F  00FB               	movwf	___fladd@grs
  7813  0470                     i1l2291:
  7814  0470  3000               	movlw	0
  7815  0471  00F3               	movwf	___fladd@b+3
  7816  0472  3000               	movlw	0
  7817  0473  00F2               	movwf	___fladd@b+2
  7818  0474  3000               	movlw	0
  7819  0475  00F1               	movwf	___fladd@b+1
  7820  0476  3000               	movlw	0
  7821  0477  00F0               	movwf	___fladd@b
  7822  0478                     i1l2293:
  7823  0478  0879               	movf	___fladd@aexp,w
  7824  0479  00FF               	movwf	btemp+1
  7825  047A  087F               	movf	btemp+1,w
  7826  047B  00FA               	movwf	___fladd@bexp
  7827  047C  2CA8               	goto	i1l694
  7828  047D                     i1l696:
  7829  047D  1C7B               	btfss	___fladd@grs,0
  7830  047E  2C80               	goto	u257_21
  7831  047F  2C81               	goto	u257_20
  7832  0480                     u257_21:
  7833  0480  2C8C               	goto	i1l2297
  7834  0481                     u257_20:
  7835  0481                     i1l2295:
  7836  0481  087B               	movf	___fladd@grs,w
  7837  0482  1283               	bcf	3,5	;RP0=0, select bank0
  7838  0483  1303               	bcf	3,6	;RP1=0, select bank0
  7839  0484  00A0               	movwf	??___fladd
  7840  0485  1003               	clrc
  7841  0486  0C20               	rrf	??___fladd,w
  7842  0487  3801               	iorlw	1
  7843  0488  00FF               	movwf	btemp+1
  7844  0489  087F               	movf	btemp+1,w
  7845  048A  00FB               	movwf	___fladd@grs
  7846  048B  2C8E               	goto	i1l2299
  7847  048C                     i1l2297:
  7848  048C  1003               	clrc
  7849  048D  0CFB               	rrf	___fladd@grs,f
  7850  048E                     i1l2299:
  7851  048E  1C70               	btfss	___fladd@b,0
  7852  048F  2C91               	goto	u258_21
  7853  0490  2C92               	goto	u258_20
  7854  0491                     u258_21:
  7855  0491  2C93               	goto	i1l2303
  7856  0492                     u258_20:
  7857  0492                     i1l2301:
  7858  0492  17FB               	bsf	___fladd@grs,7
  7859  0493                     i1l2303:
  7860  0493  3001               	movlw	1
  7861  0494  1283               	bcf	3,5	;RP0=0, select bank0
  7862  0495  1303               	bcf	3,6	;RP1=0, select bank0
  7863  0496  00A0               	movwf	??___fladd
  7864  0497                     u259_25:
  7865  0497  0D73               	rlf	___fladd@b+3,w
  7866  0498  0CF3               	rrf	___fladd@b+3,f
  7867  0499  0CF2               	rrf	___fladd@b+2,f
  7868  049A  0CF1               	rrf	___fladd@b+1,f
  7869  049B  0CF0               	rrf	___fladd@b,f
  7870  049C  0BA0               	decfsz	??___fladd& (0+127),f
  7871  049D  2C97               	goto	u259_25
  7872  049E                     i1l2305:
  7873  049E  3001               	movlw	1
  7874  049F  00FF               	movwf	btemp+1
  7875  04A0  087F               	movf	btemp+1,w
  7876  04A1  07FA               	addwf	___fladd@bexp,f
  7877  04A2                     i1l2307:
  7878  04A2  0879               	movf	___fladd@aexp,w
  7879  04A3  027A               	subwf	___fladd@bexp,w
  7880  04A4  1C03               	skipc
  7881  04A5  2CA7               	goto	u260_21
  7882  04A6  2CA8               	goto	u260_20
  7883  04A7                     u260_21:
  7884  04A7  2C7D               	goto	i1l696
  7885  04A8                     u260_20:
  7886  04A8                     i1l694:
  7887  04A8  1B78               	btfsc	___fladd@signs,6
  7888  04A9  2CAB               	goto	u261_21
  7889  04AA  2CAC               	goto	u261_20
  7890  04AB                     u261_21:
  7891  04AB  2CFB               	goto	i1l2333
  7892  04AC                     u261_20:
  7893  04AC                     i1l2309:
  7894  04AC  087A               	movf	___fladd@bexp,w
  7895  04AD  1D03               	btfss	3,2
  7896  04AE  2CB0               	goto	u262_21
  7897  04AF  2CB1               	goto	u262_20
  7898  04B0                     u262_21:
  7899  04B0  2CBA               	goto	i1l2315
  7900  04B1                     u262_20:
  7901  04B1                     i1l2311:
  7902  04B1  3000               	movlw	0
  7903  04B2  00F3               	movwf	?___fladd+3
  7904  04B3  3000               	movlw	0
  7905  04B4  00F2               	movwf	?___fladd+2
  7906  04B5  3000               	movlw	0
  7907  04B6  00F1               	movwf	?___fladd+1
  7908  04B7  3000               	movlw	0
  7909  04B8  00F0               	movwf	?___fladd
  7910  04B9  2E31               	goto	i1l703
  7911  04BA                     i1l2315:
  7912  04BA  0874               	movf	___fladd@a,w
  7913  04BB  07F0               	addwf	___fladd@b,f
  7914  04BC  0875               	movf	___fladd@a+1,w
  7915  04BD  1103               	clrz
  7916  04BE  1803               	skipnc
  7917  04BF  3E01               	addlw	1
  7918  04C0  1903               	skipnz
  7919  04C1  2CC3               	goto	u263_21
  7920  04C2  07F1               	addwf	___fladd@b+1,f
  7921  04C3                     u263_21:
  7922  04C3  0876               	movf	___fladd@a+2,w
  7923  04C4  1103               	clrz
  7924  04C5  1803               	skipnc
  7925  04C6  3E01               	addlw	1
  7926  04C7  1903               	skipnz
  7927  04C8  2CCA               	goto	u263_22
  7928  04C9  07F2               	addwf	___fladd@b+2,f
  7929  04CA                     u263_22:
  7930  04CA  0877               	movf	___fladd@a+3,w
  7931  04CB  1103               	clrz
  7932  04CC  1803               	skipnc
  7933  04CD  3E01               	addlw	1
  7934  04CE  1903               	skipnz
  7935  04CF  2CD1               	goto	u263_23
  7936  04D0  07F3               	addwf	___fladd@b+3,f
  7937  04D1                     u263_23:
  7938  04D1                     i1l2317:
  7939  04D1  1C73               	btfss	___fladd@b+3,0
  7940  04D2  2CD4               	goto	u264_21
  7941  04D3  2CD5               	goto	u264_20
  7942  04D4                     u264_21:
  7943  04D4  2DB3               	goto	i1l2369
  7944  04D5                     u264_20:
  7945  04D5                     i1l2319:
  7946  04D5  1C7B               	btfss	___fladd@grs,0
  7947  04D6  2CD8               	goto	u265_21
  7948  04D7  2CD9               	goto	u265_20
  7949  04D8                     u265_21:
  7950  04D8  2CE4               	goto	i1l2323
  7951  04D9                     u265_20:
  7952  04D9                     i1l2321:
  7953  04D9  087B               	movf	___fladd@grs,w
  7954  04DA  1283               	bcf	3,5	;RP0=0, select bank0
  7955  04DB  1303               	bcf	3,6	;RP1=0, select bank0
  7956  04DC  00A0               	movwf	??___fladd
  7957  04DD  1003               	clrc
  7958  04DE  0C20               	rrf	??___fladd,w
  7959  04DF  3801               	iorlw	1
  7960  04E0  00FF               	movwf	btemp+1
  7961  04E1  087F               	movf	btemp+1,w
  7962  04E2  00FB               	movwf	___fladd@grs
  7963  04E3  2CE6               	goto	i1l2325
  7964  04E4                     i1l2323:
  7965  04E4  1003               	clrc
  7966  04E5  0CFB               	rrf	___fladd@grs,f
  7967  04E6                     i1l2325:
  7968  04E6  1C70               	btfss	___fladd@b,0
  7969  04E7  2CE9               	goto	u266_21
  7970  04E8  2CEA               	goto	u266_20
  7971  04E9                     u266_21:
  7972  04E9  2CEB               	goto	i1l2329
  7973  04EA                     u266_20:
  7974  04EA                     i1l2327:
  7975  04EA  17FB               	bsf	___fladd@grs,7
  7976  04EB                     i1l2329:
  7977  04EB  3001               	movlw	1
  7978  04EC  1283               	bcf	3,5	;RP0=0, select bank0
  7979  04ED  1303               	bcf	3,6	;RP1=0, select bank0
  7980  04EE  00A0               	movwf	??___fladd
  7981  04EF                     u267_25:
  7982  04EF  0D73               	rlf	___fladd@b+3,w
  7983  04F0  0CF3               	rrf	___fladd@b+3,f
  7984  04F1  0CF2               	rrf	___fladd@b+2,f
  7985  04F2  0CF1               	rrf	___fladd@b+1,f
  7986  04F3  0CF0               	rrf	___fladd@b,f
  7987  04F4  0BA0               	decfsz	??___fladd& (0+127),f
  7988  04F5  2CEF               	goto	u267_25
  7989  04F6                     i1l2331:
  7990  04F6  3001               	movlw	1
  7991  04F7  00FF               	movwf	btemp+1
  7992  04F8  087F               	movf	btemp+1,w
  7993  04F9  07FA               	addwf	___fladd@bexp,f
  7994  04FA  2DB3               	goto	i1l2369
  7995  04FB                     i1l2333:
  7996  04FB  0873               	movf	___fladd@b+3,w
  7997  04FC  3A80               	xorlw	128
  7998  04FD  00FF               	movwf	btemp+1
  7999  04FE  0877               	movf	___fladd@a+3,w
  8000  04FF  3A80               	xorlw	128
  8001  0500  027F               	subwf	btemp+1,w
  8002  0501  1D03               	skipz
  8003  0502  2D0D               	goto	u268_23
  8004  0503  0876               	movf	___fladd@a+2,w
  8005  0504  0272               	subwf	___fladd@b+2,w
  8006  0505  1D03               	skipz
  8007  0506  2D0D               	goto	u268_23
  8008  0507  0875               	movf	___fladd@a+1,w
  8009  0508  0271               	subwf	___fladd@b+1,w
  8010  0509  1D03               	skipz
  8011  050A  2D0D               	goto	u268_23
  8012  050B  0874               	movf	___fladd@a,w
  8013  050C  0270               	subwf	___fladd@b,w
  8014  050D                     u268_23:
  8015  050D  1803               	skipnc
  8016  050E  2D10               	goto	u268_21
  8017  050F  2D11               	goto	u268_20
  8018  0510                     u268_21:
  8019  0510  2D6B               	goto	i1l2345
  8020  0511                     u268_20:
  8021  0511                     i1l2335:
  8022  0511  30FF               	movlw	255
  8023  0512  1283               	bcf	3,5	;RP0=0, select bank0
  8024  0513  1303               	bcf	3,6	;RP1=0, select bank0
  8025  0514  00A0               	movwf	??___fladd
  8026  0515  30FF               	movlw	255
  8027  0516  00A1               	movwf	??___fladd+1
  8028  0517  30FF               	movlw	255
  8029  0518  00A2               	movwf	??___fladd+2
  8030  0519  30FF               	movlw	255
  8031  051A  00A3               	movwf	??___fladd+3
  8032  051B  0874               	movf	___fladd@a,w
  8033  051C  00A4               	movwf	??___fladd+4
  8034  051D  0875               	movf	___fladd@a+1,w
  8035  051E  00A5               	movwf	??___fladd+5
  8036  051F  0876               	movf	___fladd@a+2,w
  8037  0520  00A6               	movwf	??___fladd+6
  8038  0521  0877               	movf	___fladd@a+3,w
  8039  0522  00A7               	movwf	??___fladd+7
  8040  0523  0870               	movf	___fladd@b,w
  8041  0524  02A4               	subwf	??___fladd+4,f
  8042  0525  0871               	movf	___fladd@b+1,w
  8043  0526  1C03               	skipc
  8044  0527  0F71               	incfsz	___fladd@b+1,w
  8045  0528  2D2A               	goto	u269_21
  8046  0529  2D2B               	goto	u269_22
  8047  052A                     u269_21:
  8048  052A  02A5               	subwf	??___fladd+5,f
  8049  052B                     u269_22:
  8050  052B  0872               	movf	___fladd@b+2,w
  8051  052C  1C03               	skipc
  8052  052D  0F72               	incfsz	___fladd@b+2,w
  8053  052E  2D30               	goto	u269_23
  8054  052F  2D31               	goto	u269_24
  8055  0530                     u269_23:
  8056  0530  02A6               	subwf	??___fladd+6,f
  8057  0531                     u269_24:
  8058  0531  0873               	movf	___fladd@b+3,w
  8059  0532  1C03               	skipc
  8060  0533  0F73               	incfsz	___fladd@b+3,w
  8061  0534  2D36               	goto	u269_25
  8062  0535  2D37               	goto	u269_26
  8063  0536                     u269_25:
  8064  0536  02A7               	subwf	??___fladd+7,f
  8065  0537                     u269_26:
  8066  0537  0824               	movf	??___fladd+4,w
  8067  0538  07A0               	addwf	??___fladd,f
  8068  0539  0825               	movf	??___fladd+5,w
  8069  053A  1803               	skipnc
  8070  053B  0F25               	incfsz	??___fladd+5,w
  8071  053C  2D3E               	goto	u270_20
  8072  053D  2D3F               	goto	u270_21
  8073  053E                     u270_20:
  8074  053E  07A1               	addwf	??___fladd+1,f
  8075  053F                     u270_21:
  8076  053F  0826               	movf	??___fladd+6,w
  8077  0540  1803               	skipnc
  8078  0541  0F26               	incfsz	??___fladd+6,w
  8079  0542  2D44               	goto	u270_22
  8080  0543  2D45               	goto	u270_23
  8081  0544                     u270_22:
  8082  0544  07A2               	addwf	??___fladd+2,f
  8083  0545                     u270_23:
  8084  0545  0827               	movf	??___fladd+7,w
  8085  0546  1803               	skipnc
  8086  0547  0A27               	incf	??___fladd+7,w
  8087  0548  07A3               	addwf	??___fladd+3,f
  8088  0549  0823               	movf	??___fladd+3,w
  8089  054A  00F3               	movwf	___fladd@b+3
  8090  054B  0822               	movf	??___fladd+2,w
  8091  054C  00F2               	movwf	___fladd@b+2
  8092  054D  0821               	movf	??___fladd+1,w
  8093  054E  00F1               	movwf	___fladd@b+1
  8094  054F  0820               	movf	??___fladd,w
  8095  0550  00F0               	movwf	___fladd@b
  8096  0551                     i1l2337:
  8097  0551  3080               	movlw	128
  8098  0552  00FF               	movwf	btemp+1
  8099  0553  087F               	movf	btemp+1,w
  8100  0554  06F8               	xorwf	___fladd@signs,f
  8101  0555                     i1l2339:
  8102  0555  09FB               	comf	___fladd@grs,f
  8103  0556  0AFB               	incf	___fladd@grs,f
  8104  0557                     i1l2341:
  8105  0557  087B               	movf	___fladd@grs,w
  8106  0558  1D03               	btfss	3,2
  8107  0559  2D5B               	goto	u271_21
  8108  055A  2D5C               	goto	u271_20
  8109  055B                     u271_21:
  8110  055B  2D79               	goto	i1l711
  8111  055C                     u271_20:
  8112  055C                     i1l2343:
  8113  055C  3001               	movlw	1
  8114  055D  07F0               	addwf	___fladd@b,f
  8115  055E  3000               	movlw	0
  8116  055F  1803               	skipnc
  8117  0560  3001               	movlw	1
  8118  0561  07F1               	addwf	___fladd@b+1,f
  8119  0562  3000               	movlw	0
  8120  0563  1803               	skipnc
  8121  0564  3001               	movlw	1
  8122  0565  07F2               	addwf	___fladd@b+2,f
  8123  0566  3000               	movlw	0
  8124  0567  1803               	skipnc
  8125  0568  3001               	movlw	1
  8126  0569  07F3               	addwf	___fladd@b+3,f
  8127  056A  2D79               	goto	i1l711
  8128  056B                     i1l2345:
  8129  056B  0874               	movf	___fladd@a,w
  8130  056C  02F0               	subwf	___fladd@b,f
  8131  056D  0875               	movf	___fladd@a+1,w
  8132  056E  1C03               	skipc
  8133  056F  0F75               	incfsz	___fladd@a+1,w
  8134  0570  02F1               	subwf	___fladd@b+1,f
  8135  0571  0876               	movf	___fladd@a+2,w
  8136  0572  1C03               	skipc
  8137  0573  0F76               	incfsz	___fladd@a+2,w
  8138  0574  02F2               	subwf	___fladd@b+2,f
  8139  0575  0877               	movf	___fladd@a+3,w
  8140  0576  1C03               	skipc
  8141  0577  0F77               	incfsz	___fladd@a+3,w
  8142  0578  02F3               	subwf	___fladd@b+3,f
  8143  0579                     i1l711:
  8144  0579  0873               	movf	___fladd@b+3,w
  8145  057A  0472               	iorwf	___fladd@b+2,w
  8146  057B  0471               	iorwf	___fladd@b+1,w
  8147  057C  0470               	iorwf	___fladd@b,w
  8148  057D  1D03               	skipz
  8149  057E  2D80               	goto	u272_21
  8150  057F  2D81               	goto	u272_20
  8151  0580                     u272_21:
  8152  0580  2DAF               	goto	i1l2367
  8153  0581                     u272_20:
  8154  0581                     i1l2347:
  8155  0581  087B               	movf	___fladd@grs,w
  8156  0582  1D03               	btfss	3,2
  8157  0583  2D85               	goto	u273_21
  8158  0584  2D86               	goto	u273_20
  8159  0585                     u273_21:
  8160  0585  2DAF               	goto	i1l2367
  8161  0586                     u273_20:
  8162  0586                     i1l2349:
  8163  0586  3000               	movlw	0
  8164  0587  00F3               	movwf	?___fladd+3
  8165  0588  3000               	movlw	0
  8166  0589  00F2               	movwf	?___fladd+2
  8167  058A  3000               	movlw	0
  8168  058B  00F1               	movwf	?___fladd+1
  8169  058C  3000               	movlw	0
  8170  058D  00F0               	movwf	?___fladd
  8171  058E  2E31               	goto	i1l703
  8172  058F                     i1l2353:
  8173  058F  3001               	movlw	1
  8174  0590  1283               	bcf	3,5	;RP0=0, select bank0
  8175  0591  1303               	bcf	3,6	;RP1=0, select bank0
  8176  0592  00A0               	movwf	??___fladd
  8177  0593                     u274_25:
  8178  0593  1003               	clrc
  8179  0594  0DF0               	rlf	___fladd@b,f
  8180  0595  0DF1               	rlf	___fladd@b+1,f
  8181  0596  0DF2               	rlf	___fladd@b+2,f
  8182  0597  0DF3               	rlf	___fladd@b+3,f
  8183  0598  0BA0               	decfsz	??___fladd,f
  8184  0599  2D93               	goto	u274_25
  8185  059A                     i1l2355:
  8186  059A  1FFB               	btfss	___fladd@grs,7
  8187  059B  2D9D               	goto	u275_21
  8188  059C  2D9E               	goto	u275_20
  8189  059D                     u275_21:
  8190  059D  2D9F               	goto	i1l715
  8191  059E                     u275_20:
  8192  059E                     i1l2357:
  8193  059E  1470               	bsf	___fladd@b,0
  8194  059F                     i1l715:
  8195  059F  1C7B               	btfss	___fladd@grs,0
  8196  05A0  2DA2               	goto	u276_21
  8197  05A1  2DA3               	goto	u276_20
  8198  05A2                     u276_21:
  8199  05A2  2DA6               	goto	i1l2361
  8200  05A3                     u276_20:
  8201  05A3                     i1l2359:
  8202  05A3  1403               	setc
  8203  05A4  0DFB               	rlf	___fladd@grs,f
  8204  05A5  2DA8               	goto	i1l2363
  8205  05A6                     i1l2361:
  8206  05A6  1003               	clrc
  8207  05A7  0DFB               	rlf	___fladd@grs,f
  8208  05A8                     i1l2363:
  8209  05A8  087A               	movf	___fladd@bexp,w
  8210  05A9  1903               	btfsc	3,2
  8211  05AA  2DAC               	goto	u277_21
  8212  05AB  2DAD               	goto	u277_20
  8213  05AC                     u277_21:
  8214  05AC  2DAF               	goto	i1l2367
  8215  05AD                     u277_20:
  8216  05AD                     i1l2365:
  8217  05AD  3001               	movlw	1
  8218  05AE  02FA               	subwf	___fladd@bexp,f
  8219  05AF                     i1l2367:
  8220  05AF  1FF2               	btfss	___fladd@b+2,7
  8221  05B0  2DB2               	goto	u278_21
  8222  05B1  2DB3               	goto	u278_20
  8223  05B2                     u278_21:
  8224  05B2  2D8F               	goto	i1l2353
  8225  05B3                     u278_20:
  8226  05B3                     i1l2369:
  8227  05B3  01F9               	clrf	___fladd@aexp
  8228  05B4                     i1l2371:
  8229  05B4  1FFB               	btfss	___fladd@grs,7
  8230  05B5  2DB7               	goto	u279_21
  8231  05B6  2DB8               	goto	u279_20
  8232  05B7                     u279_21:
  8233  05B7  2DC6               	goto	i1l2379
  8234  05B8                     u279_20:
  8235  05B8                     i1l2373:
  8236  05B8  087B               	movf	___fladd@grs,w
  8237  05B9  397F               	andlw	127
  8238  05BA  1903               	btfsc	3,2
  8239  05BB  2DBD               	goto	u280_21
  8240  05BC  2DBE               	goto	u280_20
  8241  05BD                     u280_21:
  8242  05BD  2DC1               	goto	i1l721
  8243  05BE                     u280_20:
  8244  05BE                     i1l2375:
  8245  05BE  01F9               	clrf	___fladd@aexp
  8246  05BF  0AF9               	incf	___fladd@aexp,f
  8247  05C0  2DC6               	goto	i1l2379
  8248  05C1                     i1l721:
  8249  05C1  1C70               	btfss	___fladd@b,0
  8250  05C2  2DC4               	goto	u281_21
  8251  05C3  2DC5               	goto	u281_20
  8252  05C4                     u281_21:
  8253  05C4  2DC6               	goto	i1l2379
  8254  05C5                     u281_20:
  8255  05C5  2DBE               	goto	i1l2375
  8256  05C6                     i1l2379:
  8257  05C6  0879               	movf	___fladd@aexp,w
  8258  05C7  1903               	btfsc	3,2
  8259  05C8  2DCA               	goto	u282_21
  8260  05C9  2DCB               	goto	u282_20
  8261  05CA                     u282_21:
  8262  05CA  2E01               	goto	i1l2389
  8263  05CB                     u282_20:
  8264  05CB                     i1l2381:
  8265  05CB  3001               	movlw	1
  8266  05CC  07F0               	addwf	___fladd@b,f
  8267  05CD  3000               	movlw	0
  8268  05CE  1803               	skipnc
  8269  05CF  3001               	movlw	1
  8270  05D0  07F1               	addwf	___fladd@b+1,f
  8271  05D1  3000               	movlw	0
  8272  05D2  1803               	skipnc
  8273  05D3  3001               	movlw	1
  8274  05D4  07F2               	addwf	___fladd@b+2,f
  8275  05D5  3000               	movlw	0
  8276  05D6  1803               	skipnc
  8277  05D7  3001               	movlw	1
  8278  05D8  07F3               	addwf	___fladd@b+3,f
  8279  05D9                     i1l2383:
  8280  05D9  1C73               	btfss	___fladd@b+3,0
  8281  05DA  2DDC               	goto	u283_21
  8282  05DB  2DDD               	goto	u283_20
  8283  05DC                     u283_21:
  8284  05DC  2E01               	goto	i1l2389
  8285  05DD                     u283_20:
  8286  05DD                     i1l2385:
  8287  05DD  0870               	movf	___fladd@b,w
  8288  05DE  1283               	bcf	3,5	;RP0=0, select bank0
  8289  05DF  1303               	bcf	3,6	;RP1=0, select bank0
  8290  05E0  00A0               	movwf	??___fladd
  8291  05E1  0871               	movf	___fladd@b+1,w
  8292  05E2  00A1               	movwf	??___fladd+1
  8293  05E3  0872               	movf	___fladd@b+2,w
  8294  05E4  00A2               	movwf	??___fladd+2
  8295  05E5  0873               	movf	___fladd@b+3,w
  8296  05E6  00A3               	movwf	??___fladd+3
  8297  05E7  3001               	movlw	1
  8298  05E8  00A4               	movwf	??___fladd+4
  8299  05E9                     u284_25:
  8300  05E9  0D23               	rlf	??___fladd+3,w
  8301  05EA  0CA3               	rrf	??___fladd+3,f
  8302  05EB  0CA2               	rrf	??___fladd+2,f
  8303  05EC  0CA1               	rrf	??___fladd+1,f
  8304  05ED  0CA0               	rrf	??___fladd,f
  8305  05EE                     u284_20:
  8306  05EE  0BA4               	decfsz	??___fladd+4,f
  8307  05EF  2DE9               	goto	u284_25
  8308  05F0  0823               	movf	??___fladd+3,w
  8309  05F1  00F3               	movwf	___fladd@b+3
  8310  05F2  0822               	movf	??___fladd+2,w
  8311  05F3  00F2               	movwf	___fladd@b+2
  8312  05F4  0821               	movf	??___fladd+1,w
  8313  05F5  00F1               	movwf	___fladd@b+1
  8314  05F6  0820               	movf	??___fladd,w
  8315  05F7  00F0               	movwf	___fladd@b
  8316  05F8  0A7A               	incf	___fladd@bexp,w
  8317  05F9  1903               	btfsc	3,2
  8318  05FA  2DFC               	goto	u285_21
  8319  05FB  2DFD               	goto	u285_20
  8320  05FC                     u285_21:
  8321  05FC  2E01               	goto	i1l2389
  8322  05FD                     u285_20:
  8323  05FD                     i1l2387:
  8324  05FD  3001               	movlw	1
  8325  05FE  00FF               	movwf	btemp+1
  8326  05FF  087F               	movf	btemp+1,w
  8327  0600  07FA               	addwf	___fladd@bexp,f
  8328  0601                     i1l2389:
  8329  0601  0A7A               	incf	___fladd@bexp,w
  8330  0602  1903               	btfsc	3,2
  8331  0603  2E05               	goto	u286_21
  8332  0604  2E06               	goto	u286_20
  8333  0605                     u286_21:
  8334  0605  2E0B               	goto	i1l2393
  8335  0606                     u286_20:
  8336  0606                     i1l2391:
  8337  0606  087A               	movf	___fladd@bexp,w
  8338  0607  1D03               	btfss	3,2
  8339  0608  2E0A               	goto	u287_21
  8340  0609  2E0B               	goto	u287_20
  8341  060A                     u287_21:
  8342  060A  2E19               	goto	i1l2399
  8343  060B                     u287_20:
  8344  060B                     i1l2393:
  8345  060B  3000               	movlw	0
  8346  060C  00F3               	movwf	___fladd@b+3
  8347  060D  3000               	movlw	0
  8348  060E  00F2               	movwf	___fladd@b+2
  8349  060F  3000               	movlw	0
  8350  0610  00F1               	movwf	___fladd@b+1
  8351  0611  3000               	movlw	0
  8352  0612  00F0               	movwf	___fladd@b
  8353  0613                     i1l2395:
  8354  0613  087A               	movf	___fladd@bexp,w
  8355  0614  1D03               	btfss	3,2
  8356  0615  2E17               	goto	u288_21
  8357  0616  2E18               	goto	u288_20
  8358  0617                     u288_21:
  8359  0617  2E19               	goto	i1l2399
  8360  0618                     u288_20:
  8361  0618                     i1l2397:
  8362  0618  01F8               	clrf	___fladd@signs
  8363  0619                     i1l2399:
  8364  0619  1C7A               	btfss	___fladd@bexp,0
  8365  061A  2E1C               	goto	u289_21
  8366  061B  2E1D               	goto	u289_20
  8367  061C                     u289_21:
  8368  061C  2E1F               	goto	i1l2403
  8369  061D                     u289_20:
  8370  061D                     i1l2401:
  8371  061D  17F2               	bsf	___fladd@b+2,7
  8372  061E  2E23               	goto	i1l732
  8373  061F                     i1l2403:
  8374  061F  307F               	movlw	127
  8375  0620  00FF               	movwf	btemp+1
  8376  0621  087F               	movf	btemp+1,w
  8377  0622  05F2               	andwf	___fladd@b+2,f
  8378  0623                     i1l732:
  8379  0623  087A               	movf	___fladd@bexp,w
  8380  0624  1283               	bcf	3,5	;RP0=0, select bank0
  8381  0625  1303               	bcf	3,6	;RP1=0, select bank0
  8382  0626  00A0               	movwf	??___fladd
  8383  0627  1003               	clrc
  8384  0628  0C20               	rrf	??___fladd,w
  8385  0629  00FF               	movwf	btemp+1
  8386  062A  087F               	movf	btemp+1,w
  8387  062B  00F3               	movwf	___fladd@b+3
  8388  062C                     i1l2405:
  8389  062C  1FF8               	btfss	___fladd@signs,7
  8390  062D  2E2F               	goto	u290_21
  8391  062E  2E30               	goto	u290_20
  8392  062F                     u290_21:
  8393  062F  2E31               	goto	i1l733
  8394  0630                     u290_20:
  8395  0630                     i1l2407:
  8396  0630  17F3               	bsf	___fladd@b+3,7
  8397  0631                     i1l733:
  8398  0631                     i1l703:
  8399  0631  0008               	return
  8400  0632                     __end_of___fladd:
  8401                           
  8402                           	psect	text39
  8403  16E0                     __ptext39:	
  8404 ;; *************** function _ADC_Read *****************
  8405 ;; Defined at:
  8406 ;;		line 11 in file "./ADC.h"
  8407 ;; Parameters:    Size  Location     Type
  8408 ;;		None
  8409 ;; Auto vars:     Size  Location     Type
  8410 ;;		None
  8411 ;; Return value:  Size  Location     Type
  8412 ;;                  2    0[COMMON] unsigned int 
  8413 ;; Registers used:
  8414 ;;		wreg, status,2, status,0, pclath, cstack
  8415 ;; Tracked objects:
  8416 ;;		On entry : 0/0
  8417 ;;		On exit  : 0/0
  8418 ;;		Unchanged: 0/0
  8419 ;; Data sizes:     COMMON   BANK0   BANK1   BANK3   BANK2
  8420 ;;      Params:         2       0       0       0       0
  8421 ;;      Locals:         0       0       0       0       0
  8422 ;;      Temps:          7       0       0       0       0
  8423 ;;      Totals:         9       0       0       0       0
  8424 ;;Total ram usage:        9 bytes
  8425 ;; Hardware stack levels used:    1
  8426 ;; Hardware stack levels required when called:    1
  8427 ;; This function calls:
  8428 ;;		_ADCInit
  8429 ;; This function is called by:
  8430 ;;		_TempSensor
  8431 ;; This function uses a non-reentrant model
  8432 ;;
  8433                           
  8434                           
  8435                           ;psect for function _ADC_Read
  8436  16E0                     _ADC_Read:
  8437  16E0                     i1l2673:	
  8438                           ;incstack = 0
  8439 ;; hardware stack exceeded
  8440                           ; Regs used in _ADC_Read: [wreg+status,2+status,0+pclath+cstack]
  8441                           
  8442                           
  8443                           ;./ADC.h: 12:     ADCInit();
  8444  16E0  160A  118A  254D  160A  118A  	fcall	_ADCInit
  8445  16E5                     i1l2675:
  8446                           
  8447                           ;./ADC.h: 13:    ADCON0=0x11;
  8448  16E5  3011               	movlw	17
  8449  16E6  1283               	bcf	3,5	;RP0=0, select bank0
  8450  16E7  1303               	bcf	3,6	;RP1=0, select bank0
  8451  16E8  009F               	movwf	31	;volatile
  8452  16E9                     i1l2677:
  8453                           
  8454                           ;./ADC.h: 14:     _delay((unsigned long)((1)*(20000000/4000.0)));
  8455  16E9  3007               	movlw	7
  8456  16EA  00F3               	movwf	??_ADC_Read+1
  8457  16EB  307D               	movlw	125
  8458  16EC  00F2               	movwf	??_ADC_Read
  8459  16ED                     u424_27:
  8460  16ED  0BF2               	decfsz	??_ADC_Read,f
  8461  16EE  2EED               	goto	u424_27
  8462  16EF  0BF3               	decfsz	??_ADC_Read+1,f
  8463  16F0  2EED               	goto	u424_27
  8464  16F1                     i1l2679:
  8465                           
  8466                           ;./ADC.h: 15:     ADCON0bits.GO=1;
  8467  16F1  1283               	bcf	3,5	;RP0=0, select bank0
  8468  16F2  1303               	bcf	3,6	;RP1=0, select bank0
  8469  16F3  151F               	bsf	31,2	;volatile
  8470  16F4                     i1l205:	
  8471                           ;./ADC.h: 16:     while(ADCON0bits.GO == 1);
  8472                           
  8473  16F4  191F               	btfsc	31,2	;volatile
  8474  16F5  2EF7               	goto	u341_21
  8475  16F6  2EF8               	goto	u341_20
  8476  16F7                     u341_21:
  8477  16F7  2EF4               	goto	i1l205
  8478  16F8                     u341_20:
  8479  16F8                     i1l2681:
  8480                           
  8481                           ;./ADC.h: 18:    return ((((unsigned int)ADRESH)<<2)|(ADRESL>>6));
  8482  16F8  1683               	bsf	3,5	;RP0=1, select bank1
  8483  16F9  1303               	bcf	3,6	;RP1=0, select bank1
  8484  16FA  081E               	movf	30,w	;volatile
  8485  16FB  00F2               	movwf	??_ADC_Read
  8486  16FC  3006               	movlw	6
  8487  16FD                     u342_25:
  8488  16FD  1003               	clrc
  8489  16FE  0CF2               	rrf	??_ADC_Read,f
  8490  16FF  3EFF               	addlw	-1
  8491  1700  1D03               	skipz
  8492  1701  2EFD               	goto	u342_25
  8493  1702  0872               	movf	??_ADC_Read,w
  8494  1703  00F3               	movwf	??_ADC_Read+1
  8495  1704  01F4               	clrf	??_ADC_Read+2
  8496  1705  1283               	bcf	3,5	;RP0=0, select bank0
  8497  1706  1303               	bcf	3,6	;RP1=0, select bank0
  8498  1707  081E               	movf	30,w	;volatile
  8499  1708  00F5               	movwf	??_ADC_Read+3
  8500  1709  01F6               	clrf	??_ADC_Read+4
  8501  170A  1003               	clrc
  8502  170B  0DF5               	rlf	??_ADC_Read+3,f
  8503  170C  0DF6               	rlf	??_ADC_Read+4,f
  8504  170D  1003               	clrc
  8505  170E  0DF5               	rlf	??_ADC_Read+3,f
  8506  170F  0DF6               	rlf	??_ADC_Read+4,f
  8507  1710  0873               	movf	??_ADC_Read+1,w
  8508  1711  0475               	iorwf	??_ADC_Read+3,w
  8509  1712  00F7               	movwf	??_ADC_Read+5
  8510  1713  0874               	movf	??_ADC_Read+2,w
  8511  1714  0476               	iorwf	??_ADC_Read+4,w
  8512  1715  00F8               	movwf	??_ADC_Read+6
  8513  1716  0877               	movf	??_ADC_Read+5,w
  8514  1717  00F0               	movwf	?_ADC_Read
  8515  1718  0878               	movf	??_ADC_Read+6,w
  8516  1719  00F1               	movwf	?_ADC_Read+1
  8517  171A                     i1l208:
  8518  171A  0008               	return
  8519  171B                     __end_of_ADC_Read:
  8520                           
  8521                           	psect	text40
  8522  154D                     __ptext40:	
  8523 ;; *************** function _ADCInit *****************
  8524 ;; Defined at:
  8525 ;;		line 58 in file "./Init.h"
  8526 ;; Parameters:    Size  Location     Type
  8527 ;;		None
  8528 ;; Auto vars:     Size  Location     Type
  8529 ;;		None
  8530 ;; Return value:  Size  Location     Type
  8531 ;;                  1    wreg      void 
  8532 ;; Registers used:
  8533 ;;		wreg
  8534 ;; Tracked objects:
  8535 ;;		On entry : 0/0
  8536 ;;		On exit  : 0/0
  8537 ;;		Unchanged: 0/0
  8538 ;; Data sizes:     COMMON   BANK0   BANK1   BANK3   BANK2
  8539 ;;      Params:         0       0       0       0       0
  8540 ;;      Locals:         0       0       0       0       0
  8541 ;;      Temps:          0       0       0       0       0
  8542 ;;      Totals:         0       0       0       0       0
  8543 ;;Total ram usage:        0 bytes
  8544 ;; Hardware stack levels used:    1
  8545 ;; This function calls:
  8546 ;;		Nothing
  8547 ;; This function is called by:
  8548 ;;		_ADC_Read
  8549 ;; This function uses a non-reentrant model
  8550 ;;
  8551                           
  8552                           
  8553                           ;psect for function _ADCInit
  8554  154D                     _ADCInit:
  8555  154D                     i1l2113:	
  8556                           ;incstack = 0
  8557 ;; hardware stack exceeded
  8558                           ; Regs used in _ADCInit: [wreg]
  8559                           
  8560                           
  8561                           ;./Init.h: 59:     ADCON1=0x02;
  8562  154D  3002               	movlw	2
  8563  154E  1683               	bsf	3,5	;RP0=1, select bank1
  8564  154F  1303               	bcf	3,6	;RP1=0, select bank1
  8565  1550  009F               	movwf	31	;volatile
  8566                           
  8567                           ;./Init.h: 60:     ADCON0=0x41;
  8568  1551  3041               	movlw	65
  8569  1552  1283               	bcf	3,5	;RP0=0, select bank0
  8570  1553  1303               	bcf	3,6	;RP1=0, select bank0
  8571  1554  009F               	movwf	31	;volatile
  8572  1555                     i1l182:
  8573  1555  0008               	return
  8574  1556                     __end_of_ADCInit:
  8575  007E                     btemp	set	126	;btemp
  8576  007E                     wtemp0	set	126
  8577                           
  8578                           	psect	config
  8579                           
  8580                           ;Config register CONFIG @ 0x2007
  8581                           ;	Oscillator Selection bits
  8582                           ;	FOSC = HS, HS oscillator
  8583                           ;	Watchdog Timer Enable bit
  8584                           ;	WDTE = OFF, WDT disabled
  8585                           ;	Power-up Timer Enable bit
  8586                           ;	PWRTE = OFF, PWRT disabled
  8587                           ;	Brown-out Reset Enable bit
  8588                           ;	BOREN = OFF, BOR disabled
  8589                           ;	Low-Voltage (Single-Supply) In-Circuit Serial Programming Enable bit
  8590                           ;	LVP = ON, RB3/PGM pin has PGM function; low-voltage programming enabled
  8591                           ;	Data EEPROM Memory Code Protection bit
  8592                           ;	CPD = OFF, Data EEPROM code protection off
  8593                           ;	Flash Program Memory Write Enable bits
  8594                           ;	WRT = OFF, Write protection off; all program memory may be written to by EECON control
  8595                           ;	In-Circuit Debugger Mode bit
  8596                           ;	DEBUG = 0x1, unprogrammed default
  8597                           ;	Flash Program Memory Code Protection bit
  8598                           ;	CP = OFF, Code protection off
  8599  2007                     	org	8199
  8600  2007  3FBA               	dw	16314

Data Sizes:
    Strings     0
    Constant    0
    Data        14
    BSS         58
    Persistent  0
    Stack       0

Auto Spaces:
    Space          Size  Autos    Used
    COMMON           14     14      14
    BANK0            80     79      79
    BANK1            80     41      73
    BANK3            96      0      40
    BANK2            96      0       0

Pointer List with Targets:

    EEPROM_Read@data	PTR unsigned char  size(2) Largest target is 512
		 -> RAM(DATA[512]), 

    EEPROM_Write@data	PTR unsigned char  size(2) Largest target is 512
		 -> RAM(DATA[512]), 


Critical Paths under _main in COMMON

    None.

Critical Paths under _ISR in COMMON

    _TempSensor->___xxtofl
    ___flmul->___xxtofl
    _AverageTemp->___xxtofl
    ___fltol->___xxtofl
    ___fldiv->___xxtofl

Critical Paths under _main in BANK0

    None.

Critical Paths under _ISR in BANK0

    _TempSensor->_AverageTemp
    _AverageTemp->___fltol
    ___fltol->___fldiv
    ___fldiv->___flmul

Critical Paths under _main in BANK1

    _main->_SettingMode
    _SettingMode->_TempDisplay
    _SaveTemp->_I2C_Master_Init
    _I2C_Master_Init->___lldiv
    _EEPROM_Write->_I2C_Master_Write
    _FetchTemp->_EEPROM_Read
    _EEPROM_Read->_I2C_Master_Write
    _CurrentTempDisplay->___lwmod
    ___lwmod->___lwdiv

Critical Paths under _ISR in BANK1

    None.

Critical Paths under _main in BANK3

    None.

Critical Paths under _ISR in BANK3

    None.

Critical Paths under _main in BANK2

    None.

Critical Paths under _ISR in BANK2

    None.

Call Graph Tables:

 ---------------------------------------------------------------------------------
 (Depth) Function   	        Calls       Base Space   Used Autos Params    Refs
 ---------------------------------------------------------------------------------
 (0) _main                                                 0     0      0    3832
                 _CurrentTempDisplay
                        _SettingMode
                            _SysInit
 ---------------------------------------------------------------------------------
 (1) _SysInit                                              0     0      0       0
                        _ButtonsInit
                        _ElementInit
                            _LEDInit
                     _OnOff_Int_Init
                       _SevenSegInit
                         _Timer1Init
                         _Timer2Init
 ---------------------------------------------------------------------------------
 (2) _Timer2Init                                           0     0      0       0
 ---------------------------------------------------------------------------------
 (2) _Timer1Init                                           0     0      0       0
 ---------------------------------------------------------------------------------
 (2) _SevenSegInit                                         0     0      0       0
 ---------------------------------------------------------------------------------
 (2) _OnOff_Int_Init                                       0     0      0       0
 ---------------------------------------------------------------------------------
 (2) _LEDInit                                              0     0      0       0
 ---------------------------------------------------------------------------------
 (2) _ElementInit                                          0     0      0       0
 ---------------------------------------------------------------------------------
 (2) _ButtonsInit                                          0     0      0       0
 ---------------------------------------------------------------------------------
 (1) _SettingMode                                          9     9      0    2553
                                             32 BANK1      9     9      0
              _HeatingCoolingElement
                        _TempDisplay
                            _TempSet
 ---------------------------------------------------------------------------------
 (2) _TempSet                                              4     2      2       0
                                              4 BANK1      4     2      2
 ---------------------------------------------------------------------------------
 (2) _TempDisplay                                          6     6      0    2459
                                             26 BANK1      6     6      0
                          _FetchTemp
                           _SaveTemp
                            ___lwdiv
                            ___lwmod
 ---------------------------------------------------------------------------------
 (3) _SaveTemp                                             0     0      0     796
                       _EEPROM_Write
                    _I2C_Master_Init
 ---------------------------------------------------------------------------------
 (4) _I2C_Master_Init                                      8     4      4     412
                                             18 BANK1      8     4      4
                            ___lldiv
 ---------------------------------------------------------------------------------
 (5) ___lldiv                                             14     6      8     314
                                              4 BANK1     14     6      8
 ---------------------------------------------------------------------------------
 (4) _EEPROM_Write                                         9     4      5     384
                                              5 BANK1      9     4      5
           _I2C_Master_RepeatedStart
                   _I2C_Master_Start
                    _I2C_Master_Stop
                   _I2C_Master_Write
 ---------------------------------------------------------------------------------
 (3) _FetchTemp                                            0     0      0     384
                        _EEPROM_Read
 ---------------------------------------------------------------------------------
 (4) _EEPROM_Read                                         10     4      6     384
                                              5 BANK1     10     4      6
                            _I2C_ACK
           _I2C_Master_RepeatedStart
                   _I2C_Master_Start
                    _I2C_Master_Stop
                   _I2C_Master_Write
                      _I2C_Read_Byte
 ---------------------------------------------------------------------------------
 (5) _I2C_Read_Byte                                        0     0      0       0
                    _I2C_Master_Wait
 ---------------------------------------------------------------------------------
 (5) _I2C_Master_Write                                     1     1      0      22
                                              4 BANK1      1     1      0
                    _I2C_Master_Wait
 ---------------------------------------------------------------------------------
 (5) _I2C_Master_Stop                                      0     0      0       0
                    _I2C_Master_Wait
 ---------------------------------------------------------------------------------
 (5) _I2C_Master_Start                                     0     0      0       0
                    _I2C_Master_Wait
 ---------------------------------------------------------------------------------
 (5) _I2C_Master_RepeatedStart                             0     0      0       0
                    _I2C_Master_Wait
 ---------------------------------------------------------------------------------
 (5) _I2C_ACK                                              0     0      0       0
                    _I2C_Master_Wait
 ---------------------------------------------------------------------------------
 (6) _I2C_Master_Wait                                      0     0      0       0
 ---------------------------------------------------------------------------------
 (2) _HeatingCoolingElement                                2     2      0       0
                                              4 BANK1      2     2      0
 ---------------------------------------------------------------------------------
 (1) _CurrentTempDisplay                                   6     6      0    1279
                                             16 BANK1      6     6      0
                            ___lwdiv
                            ___lwmod
 ---------------------------------------------------------------------------------
 (3) ___lwmod                                              5     1      4     767
                                             11 BANK1      5     1      4
                            ___lwdiv (ARG)
 ---------------------------------------------------------------------------------
 (3) ___lwdiv                                              7     3      4     466
                                              4 BANK1      7     3      4
 ---------------------------------------------------------------------------------
 Estimated maximum stack depth 6
 ---------------------------------------------------------------------------------
 (Depth) Function   	        Calls       Base Space   Used Autos Params    Refs
 ---------------------------------------------------------------------------------
 (7) _ISR                                                  4     4      0   10992
                                              0 BANK1      4     4      0
                         _TempSensor
 ---------------------------------------------------------------------------------
 (8) _TempSensor                                           0     0      0   10992
                           _ADC_Read
                        _AverageTemp
                            ___fldiv
                            ___flmul
                            ___fltol
                           ___xxtofl
 ---------------------------------------------------------------------------------
 (9) ___flmul                                             26    18      8    2417
                                              0 BANK0     26    18      8
                          __Umul8_16
                           ___xxtofl (ARG)
 ---------------------------------------------------------------------------------
 (10) __Umul8_16                                           9     7      2     799
                                              0 COMMON     9     7      2
 ---------------------------------------------------------------------------------
 (9) _AverageTemp                                         17    17      0    5763
                                             62 BANK0     17    17      0
                            ___fladd
                            ___fldiv
                            ___fltol
                           ___xxtofl
            i1_HeatingCoolingElement
 ---------------------------------------------------------------------------------
 (10) i1_HeatingCoolingElement                             2     2      0       0
                                              0 COMMON     2     2      0
 ---------------------------------------------------------------------------------
 (9) ___xxtofl                                            14    10      4     550
                                              0 COMMON    14    10      4
 ---------------------------------------------------------------------------------
 (9) ___fltol                                             10     6      4     533
                                             52 BANK0     10     6      4
                            ___fldiv (ARG)
                            ___flmul (ARG)
                           ___xxtofl (ARG)
 ---------------------------------------------------------------------------------
 (9) ___fldiv                                             26    18      8    1729
                                             26 BANK0     26    18      8
                            ___flmul (ARG)
                           ___xxtofl (ARG)
 ---------------------------------------------------------------------------------
 (10) ___fladd                                            20    12      8    2566
                                              0 COMMON    12     4      8
                                              0 BANK0      8     8      0
 ---------------------------------------------------------------------------------
 (9) _ADC_Read                                             9     7      2       0
                                              0 COMMON     9     7      2
                            _ADCInit
 ---------------------------------------------------------------------------------
 (10) _ADCInit                                             0     0      0       0
 ---------------------------------------------------------------------------------
 Estimated maximum stack depth 10
 ---------------------------------------------------------------------------------

 Call Graph Graphs:

 _main (ROOT)
   _CurrentTempDisplay
     ___lwdiv
     ___lwmod
       ___lwdiv (ARG)
   _SettingMode
     _HeatingCoolingElement
     _TempDisplay
       _FetchTemp
         _EEPROM_Read
           _I2C_ACK
             _I2C_Master_Wait
           _I2C_Master_RepeatedStart
             _I2C_Master_Wait
           _I2C_Master_Start
             _I2C_Master_Wait
           _I2C_Master_Stop
             _I2C_Master_Wait
           _I2C_Master_Write
             _I2C_Master_Wait
           _I2C_Read_Byte
             _I2C_Master_Wait
       _SaveTemp
         _EEPROM_Write
           _I2C_Master_RepeatedStart
             _I2C_Master_Wait
           _I2C_Master_Start
             _I2C_Master_Wait
           _I2C_Master_Stop
             _I2C_Master_Wait
           _I2C_Master_Write
             _I2C_Master_Wait
         _I2C_Master_Init
           ___lldiv
       ___lwdiv
       ___lwmod
         ___lwdiv (ARG)
     _TempSet
   _SysInit
     _ButtonsInit
     _ElementInit
     _LEDInit
     _OnOff_Int_Init
     _SevenSegInit
     _Timer1Init
     _Timer2Init

 _ISR (ROOT)
   _TempSensor
     _ADC_Read
       _ADCInit
     _AverageTemp
       ___fladd
       ___fldiv
         ___flmul (ARG)
           __Umul8_16
           ___xxtofl (ARG)
         ___xxtofl (ARG)
       ___fltol
         ___fldiv (ARG)
           ___flmul (ARG)
             __Umul8_16
             ___xxtofl (ARG)
           ___xxtofl (ARG)
         ___flmul (ARG)
           __Umul8_16
           ___xxtofl (ARG)
         ___xxtofl (ARG)
       ___xxtofl
       i1_HeatingCoolingElement
     ___fldiv
       ___flmul (ARG)
         __Umul8_16
         ___xxtofl (ARG)
       ___xxtofl (ARG)
     ___flmul
       __Umul8_16
       ___xxtofl (ARG)
     ___fltol
       ___fldiv (ARG)
         ___flmul (ARG)
           __Umul8_16
           ___xxtofl (ARG)
         ___xxtofl (ARG)
       ___flmul (ARG)
         __Umul8_16
         ___xxtofl (ARG)
       ___xxtofl (ARG)
     ___xxtofl

 Address spaces:
Name               Size   Autos  Total    Cost      Usage
BANK3               60      0      28       9       41.7%
BITBANK3            60      0       0       8        0.0%
SFR3                 0      0       0       4        0.0%
BITSFR3              0      0       0       4        0.0%
BANK2               60      0       0      11        0.0%
BITBANK2            60      0       0      10        0.0%
SFR2                 0      0       0       5        0.0%
BITSFR2              0      0       0       5        0.0%
BANK1               50     29      49       7       91.2%
BITBANK1            50      0       0       6        0.0%
SFR1                 0      0       0       2        0.0%
BITSFR1              0      0       0       2        0.0%
BANK0               50     4F      4F       5       98.8%
BITBANK0            50      0       0       4        0.0%
SFR0                 0      0       0       1        0.0%
BITSFR0              0      0       0       1        0.0%
COMMON               E      E       E       1      100.0%
BITCOMMON            E      0       0       0        0.0%
CODE                 0      0       0       0        0.0%
DATA                 0      0      CE      12        0.0%
ABS                  0      0      CE       3        0.0%
NULL                 0      0       0       0        0.0%
STACK                0      0       0       2        0.0%
EEDATA             100      0       0       0        0.0%


Microchip Technology PIC Macro Assembler V2.20 build 20200408173844 
Symbol Table                                                                                   Tue Jul 14 17:16:32 2020

                     ___fldiv@aexp 0053                       ___fldiv@bexp 0052  
                                _i 00D3                                  _s 00CF  
                                _x 00D1                                  pc 0002  
                     ___fldiv@sign 004B                                 fsr 0004  
              __Umul8_16@word_mpld 0076                                l120 1586  
                              l200 1682                                l123 1592  
                              l132 1570                                l141 15F7  
                              l117 16DF                                l126 1567  
                              l230 15D8                                l135 1614  
                              l143 15FC                                l144 1605  
                              l240 0B24                                l129 155E  
                              l137 1618                                l153 0813  
                              l138 161E                                l162 099F  
                              l234 076F                                l242 0B58  
                              l147 1585                                l227 165E  
                              l237 0A69                                l173 1544  
                              l270 0ADA                                l159 0860  
                              l271 0AE0                                l191 07FE  
                              l280 08B4                                l168 09FD  
                              l176 153E                                l281 08C5  
                              l433 0993                                l185 1579  
                              l194 154C                                l179 15EE  
                              l188 15B1                                l669 179C  
                              l679 1756                                _GIE 005F  
                              _RA4 002C                                _RA5 002D  
                              _PEN 048A                                _ISR 0770  
                              _SEN 0488                    __end_of_I2C_ACK 1586  
                              fsr0 0004                    __end_of_ADCInit 1556  
                              indf 0000                       ___flmul@aexp 0032  
                     ___flmul@bexp 0033                       ___flmul@sign 002D  
                     ___flmul@temp 0038                       ___flmul@prod 0034  
                             ?_ISR 0070                    __end_of_LEDInit 153F  
                     ___fltol@exp1 005D                               l2001 1586  
                             l2003 158C                               l2011 155B  
                             l2005 155F                               l2013 1568  
                             l2021 1619                               l2101 09C5  
                             l2007 1564                               l2015 156D  
                             l2031 1602                               l2111 09F8  
                             l2103 09CA                               l2201 174C  
                             l2009 1556                               l2017 1609  
                             l2025 15EF                               l2105 09E1  
                             l2041 092C                               l2203 1752  
                             l2035 157A                               l2019 160E  
                             l2027 15F4                               l2107 09E6  
                             l2051 0952                               l2043 093E  
                             l2115 163C                               l3011 0AA0  
                             l3003 0A88                               l2037 157D  
                             l2029 15FD                               l2109 09EE  
                             l2061 0985                               l2053 095B  
                             l2045 0941                               l2117 164B  
                             l3013 0AA6                               l3005 0A8D  
                             l3021 0ACD                               l2039 1582  
                             l2119 15C5                               l2055 096D  
                             l2047 094A                               l2063 098B  
                             l2071 16B1                               l3023 0ADB  
                             l3015 0AB3                               l3007 0A98  
                             l2161 175B                               l2081 080E  
                             l2057 097B                               l2049 094E  
                             l2073 16DC                               l3017 0AC1  
                             l3009 0A9E                               l2171 1773  
                             l2163 1761                               l2091 084E  
                             l2083 081E                               l2059 097C  
                             l2075 16DD                               l2067 16AA  
                             l3019 0AC4                               l2173 1784  
                             l2165 1764                               l2181 1798  
                             l2093 085B                               l2085 082E  
                             l2077 16DE                               l2069 16AE  
                             l2175 178A                               l2167 176B  
                             l2159 1757                               l2191 172D  
                             l2095 0994                               l2087 0833  
                             l2079 0808                               l2177 178B  
                             l2169 176F                               l2193 1731  
                             l2185 171B                               l2097 099A  
                             l2089 0846                               l2179 1792  
                             l2195 1735                               l2187 1723  
                             l2099 09AA                               l3091 162F  
                             l2197 173F                               l2189 1726  
                             l2701 0748                               l3093 1633  
                             l3085 161F                               l2199 1745  
                             l2703 0753                               l2711 0AE1  
                             l2631 153B                               l3087 1624  
                             l2801 0861                               l2705 0756  
                             l2721 0B1D                               l2713 0AE7  
                             l2641 15E6                               l2633 15D9  
                             l3089 1629                               l2811 08A3  
                             l2803 0874                               l2707 0761  
                             l2715 0AFD                               l2643 15E9  
                             l2635 15DD                               l2651 15A9  
                             l2813 08BA                               l2805 087A  
                             l2709 076C                               l2725 0B28  
                             l2717 0B08                               l2629 153F  
                             l2645 15EA                               l2637 15E0  
                             l2653 15AC                               l2661 07F6  
                             l2807 088B                               l2727 0B3E  
                             l2719 0B12                               l2647 1571  
                             l2671 1548                               l2639 15E3  
                             l2655 15AD                               l2663 07F9  
                             l2809 0892                               l2729 0B49  
                             l2737 0B54                               l2657 15AE  
                             l2649 15A1                               l2665 07FA  
                             l2691 06FF                               l2667 07FB  
                             l2659 07F0                               l2693 0704  
                             l2685 06EC                               l2669 1545  
                             l2695 0728                               l2687 06F4  
                             l2697 073B                               l2689 06F9  
                             l2961 166E                               l2971 0A42  
                             l2699 073E                               l2963 167D  
                             l2981 0A66                               l2973 0A4D  
                             l2965 09FE                               l2957 165F  
                             l2975 0A50                               l2967 0A35  
                             l2991 0A6F                               l2959 1669  
                             l2977 0A51                               l2969 0A38  
                             l2993 0A74                               l2979 0A5B  
                             l2995 0A7F                               l2997 0A84  
                             l2989 0A6A                               u2100 093E  
                             u2101 093D                               u2200 09AA  
                             u2120 0952                               u2201 09A9  
                             u2121 0951                               u2210 09F8  
                             u2211 09F7                               u2115 0943  
                             u2060 158C                               u2140 096D  
                             u2061 158B                               u2141 096C  
                             u2070 1592                               u2071 1591  
                             u2215 09F4                               u2135 0954  
                             u2320 1761                               u2080 1618  
                             u2160 098B                               u4000 0A9E  
                             u2321 1760                               u2081 1617  
                             u2161 098A                               u2145 0969  
                             u4001 0A9D                               u2410 1735  
                             u2090 15FC                               u2170 16BF  
                             u4010 0AB3                               u2411 1734  
                             u2091 15FB                               u2155 097D  
                             u4011 0AB2                               u2340 1773  
                             u2420 173F                               u2180 081E  
                             u4020 0ADA                               u4100 1633  
                             u2341 1772                               u2421 173E  
                             u2405 1727                               u2181 081D  
                             u4021 0AD9                               u4101 1632  
                             u2190 085B                               u2335 1765  
                             u2191 085A                               u2175 16BA  
                             u4015 0AAF                               u2360 1784  
                             u2440 1752                               u2361 1783  
                             u2441 1751                               u2425 173B  
                             u4025 0AD6                               u2355 1774  
                             u2435 1746                               u2195 0857  
                             u2380 1798                               u2381 1797  
                             u2365 1780                               u4117 0A7A  
                             u2390 1723                               u3430 06F4  
                             u2375 178C                               u2391 1722  
                             u4207 08C0                               u3431 06F3  
                             u4127 0ABB                               u3600 088B  
                             u3440 0AE7                               u4217 0A48  
                             u3601 088A                               u4137 0AED  
                             u3441 0AE6                               u3610 08A3  
                             u3450 0AFD                               u4090 162F  
                             u4227 0A61                               u3611 08A2  
                             u4147 0B03                               u3451 0AFC  
                             u4091 162E                               u3620 08B4  
                             u3460 0B28                               u3621 08B3  
                             u3461 0B27                               u4157 0B18  
                             u3470 0B3E                               u3471 0B3D  
                             u4167 0B2E                               u4177 0B44  
                             u4187 074E                               _PEIE 005E  
                             u4197 0767                               u3590 0874  
                             _INTF 0059                               u3591 0873  
                             _RBIE 005B                               _RCEN 048B  
                             _TMR2 0011                               _RSEN 0489  
                             _Flag 00C9           ?i1_HeatingCoolingElement 0070  
                             _Temp 00E7                    ?_OnOff_Int_Init 0070  
 __end_of_I2C_Master_RepeatedStart 155F                               _main 161F  
                             btemp 007E                   __end_of_ADC_Read 171B  
              __end_of_ElementInit 157A                               start 0016  
                  ___fldiv@new_exp 004C                    EEPROM_Write@add 00A5  
          ??_HeatingCoolingElement 00A4                    EEPROM_Write@len 00A9  
              CurrentTempDisplay@a 00B2                CurrentTempDisplay@b 00B4  
                            ??_ISR 00A0                __end_of_AverageTemp 1000  
             __end_of_EEPROM_Write 0861                    __end_of_TempSet 0B59  
                 ?_I2C_Master_Init 00B2                   ?_I2C_Master_Wait 0070  
                 ?_I2C_Master_Stop 0070                      ___fltol@sign1 005C  
                  __end_of___fladd 0632                              ?_main 0070  
                            _ACKEN 048C                              _ACKDT 048D  
                  __end_of___fldiv 0DB2                      ??_ButtonsInit 00A4  
                  __end_of_SysInit 1683                    __end_of___flmul 039E  
                  __end_of___fltol 0BD5                    __end_of___lldiv 0994  
                            _T1CON 0010                              _T2CON 0012  
                  __end_of___lwdiv 179D                              i1l300 07DF  
                            i1l205 16F4                              i1l208 171A  
                            i1l182 1555                              i1l262 092B  
                            i1l280 17F0                              i1l281 17FF  
                  __end_of___lwmod 1757                              i1l259 0FFF  
                            i1l711 0579                              i1l703 0631  
                            i1l721 05C1                              i1l715 059F  
                            i1l732 0623                              i1l733 0631  
                            i1l805 1697                              i1l590 0BBF  
                            i1l830 0654                              i1l583 0BD4  
                            i1l807 16A9                              i1l832 06EB  
                            i1l593 0BD4                              i1l690 0401  
                            i1l770 0DA5                              i1l762 0D23  
                            i1l746 0C31                              i1l843 06B5  
                            i1l748 0DB1                              i1l844 06C1  
                            i1l694 04A8                              i1l696 047D  
                            i1l792 0309                              i1l786 039D  
                            i1l798 0391                              _TMR1H 000F  
                            _TMR1L 000E                              _PORTA 0005  
                            _PORTB 0006                              _PORTC 0007  
                            _PORTD 0008                              _TRISD 0088  
                            _SSPIF 0063             __size_of_I2C_Read_Byte 0017  
                            _count 00CB                              _value 00CD  
                            pclath 000A                              status 0003  
                            wtemp0 007E                   EEPROM_Write@data 00A7  
             __size_of_EEPROM_Read 006A                    __initialization 0019  
                     __end_of_main 163C                          ??_I2C_ACK 00A4  
                        ??_ADCInit 0070         __end_of_CurrentTempDisplay 0A6A  
                           ??_main 00C9                   __end_of_SaveTemp 165F  
                        ??_LEDInit 00A4                 __size_of_FetchTemp 0014  
                ?_I2C_Master_Start 0070                  ?_I2C_Master_Write 0070  
  __end_ofi1_HeatingCoolingElement 1800                 ??_I2C_Master_Start 00A4  
                           _ADCON0 001F                             _ADCON1 009F  
               ??_I2C_Master_Write 00A4                __end_of_ButtonsInit 1545  
                           _ADRESH 001E                             _ADRESL 009E  
                    ??_TempDisplay 00BA                        _ElementInit 1571  
                           i1l2113 154D                             i1l2121 0B59  
                           i1l2211 03AB                             i1l2131 0B85  
                           i1l2123 0B66                             i1l2301 0492  
                           i1l2221 03C2                             i1l2213 03AF  
                           i1l2133 0B8D                             i1l2311 04B1  
                           i1l2303 0493                             i1l2231 03D8  
                           i1l2223 03C3                             i1l2215 03B0  
                           i1l2207 039E                             i1l2143 0B9B  
                           i1l2135 0B8F                             i1l2127 0B6F  
                           i1l3031 0770                             i1l2401 061D  
                           i1l2321 04D9                             i1l2305 049E  
                           i1l2241 03E9                             i1l2233 03D9  
                           i1l2217 03B5                             i1l2225 03C5  
                           i1l2209 03A3                             i1l2153 0BB4  
                           i1l2145 0BA4                             i1l2137 0B93  
                           i1l2129 0B84                             i1l3041 0782  
                           i1l3033 0776                             i1l2403 061F  
                           i1l2331 04F6                             i1l2323 04E4  
                           i1l2315 04BA                             i1l2307 04A2  
                           i1l2251 0407                             i1l2243 03EE  
                           i1l2235 03DF                             i1l2227 03CD  
                           i1l2219 03BA                             i1l2411 0BDC  
                           i1l2155 0BC4                             i1l2147 0BAD  
                           i1l3051 079C                             i1l3035 077B  
                           i1l3043 0783                             i1l2405 062C  
                           i1l2341 0557                             i1l2325 04E6  
                           i1l2317 04D1                             i1l2309 04AC  
                           i1l2333 04FB                             i1l2261 041B  
                           i1l2253 040B                             i1l2245 03F6  
                           i1l2237 03E3                             i1l2229 03D2  
                           i1l2501 0CF3                             i1l2421 0BF1  
                           i1l2413 0BE2                             i1l2157 0BC9  
                           i1l3053 079E                             i1l3045 0787  
                           i1l3061 07B1                             i1l3037 077F  
                           i1l2407 0630                             i1l2343 055C  
                           i1l2335 0511                             i1l2327 04EA  
                           i1l2319 04D5                             i1l2271 042F  
                           i1l2263 041F                             i1l2255 040F  
                           i1l2247 03F7                             i1l2239 03E4  
                           i1l2511 0D08                             i1l2503 0CF4  
                           i1l2431 0C09                             i1l2423 0BF9  
                           i1l2415 0BE6                             i1l3071 07C7  
                           i1l3063 07B5                             i1l3055 07A6  
                           i1l3047 0789                             i1l3039 0781  
                           i1l2361 05A6                             i1l2353 058F  
                           i1l2337 0551                             i1l2345 056B  
                           i1l2329 04EB                             i1l2281 0443  
                           i1l2273 0433                             i1l2265 0423  
                           i1l2257 0413                             i1l2249 03F9  
                           i1l2521 0D2D                             i1l2513 0D0C  
                           i1l2505 0CFD                             i1l2441 0C1E  
                           i1l2433 0C0F                             i1l2425 0BFA  
                           i1l2417 0BE7                             i1l2409 0BD5  
                           i1l2601 06B9                             i1l3081 07DD  
                           i1l3073 07C8                             i1l3065 07B9  
                           i1l3057 07AE                             i1l3049 0798  
                           i1l2371 05B4                             i1l2363 05A8  
                           i1l2355 059A                             i1l2347 0581  
                           i1l2339 0555                             i1l2291 0470  
                           i1l2283 0447                             i1l2275 0437  
                           i1l2267 0427                             i1l2259 0417  
                           i1l2531 0D6B                             i1l2523 0D3B  
                           i1l2515 0D20                             i1l2507 0D03  
                           i1l2451 0C45                             i1l2443 0C26  
                           i1l2435 0C13                             i1l2419 0BEC  
                           i1l2427 0BFC                             i1l2611 06E3  
                           i1l2603 06C3                             i1l3083 07DE  
                           i1l3067 07BF                             i1l3075 07CB  
                           i1l3059 07B0                             i1l2381 05CB  
                           i1l2373 05B8                             i1l2365 05AD  
                           i1l2357 059E                             i1l2349 0586  
                           i1l2293 0478                             i1l2277 043B  
                           i1l2269 042B                             i1l2285 044B  
                           i1l2541 0D95                             i1l2533 0D79  
                           i1l2525 0D3F                             i1l2509 0D07  
                           i1l2453 0C49                             i1l2445 0C27  
                           i1l2437 0C14                             i1l2429 0C04  
                           i1l2605 06D9                             i1l2621 17C7  
                           i1l3077 07D1                             i1l3069 07C3  
                           i1l2391 0606                             i1l2383 05D9  
                           i1l2375 05BE                             i1l2359 05A3  
                           i1l2367 05AF                             i1l2295 0481  
                           i1l2287 044C                             i1l2279 043F  
                           i1l2543 0D9B                             i1l2535 0D88  
                           i1l2527 0D58                             i1l2519 0D28  
                           i1l2471 0C8A                             i1l2463 0C60  
                           i1l2439 0C19                             i1l2447 0C29  
                           i1l2607 06DE                             i1l2623 17CE  
                           i1l2615 179D                             i1l3079 07D5  
                           i1l2393 060B                             i1l2385 05DD  
                           i1l2369 05B3                             i1l2297 048C  
                           i1l2289 0463                             i1l2545 0D9F  
                           i1l2537 0D8C                             i1l2529 0D5E  
                           i1l2481 0CA8                             i1l2473 0C8C  
                           i1l2465 0C72                             i1l2449 0C39  
                           i1l2457 0C52                             i1l2609 06E2  
                           i1l2625 17DF                             i1l2617 17B0  
                           i1l2561 16A0                             i1l2553 1684  
                           i1l2395 0613                             i1l2387 05FD  
                           i1l2379 05C6                             i1l2299 048E  
                           i1l2547 0DA1                             i1l2539 0D94  
                           i1l2475 0C91                             i1l2483 0CB1  
                           i1l2491 0CD6                             i1l2467 0C7A  
                           i1l2459 0C57                             i1l2571 063C  
                           i1l2627 17F6                             i1l2619 17B6  
                           i1l2563 16A5                             i1l2555 1686  
                           i1l2397 0618                             i1l2389 0601  
                           i1l2493 0CDC                             i1l2485 0CC3  
                           i1l2477 0CA3                             i1l2469 0C82  
                           i1l2581 066A                             i1l2573 064C  
                           i1l2741 0DB2                             i1l2557 168D  
                           i1l2901 02CC                             i1l2821 004E  
                           i1l2399 0619                             i1l2495 0CE4  
                           i1l2487 0CC4                             i1l2479 0CA7  
                           i1l2591 0690                             i1l2583 066E  
                           i1l2575 065C                             i1l2567 0633  
                           i1l2751 0E05                             i1l2743 0DCA  
                           i1l2559 1691                             i1l2903 02D5  
                           i1l2911 02E9                             i1l2831 0063  
                           i1l2823 004F                             i1l2815 003D  
                           i1l2681 16F8                             i1l2673 16E0  
                           i1l2497 0CE6                             i1l2489 0CD2  
                           i1l2593 0699                             i1l2585 0677  
                           i1l2569 0638                             i1l2753 0E0A  
                           i1l2761 0EA5                             i1l2745 0DD2  
                           i1l2913 02ED                             i1l2905 02D9  
                           i1l2841 007B                             i1l2833 006B  
                           i1l2825 0054                             i1l2817 0044  
                           i1l2675 16E5                             i1l2499 0CEF  
                           i1l2595 06A0                             i1l2587 067E  
                           i1l2579 0665                             i1l2763 0EB4  
                           i1l2755 0E3B                             i1l2747 0DE1  
                           i1l2931 033E                             i1l2923 030E  
                           i1l2915 02EE                             i1l2907 02DA  
                           i1l2851 0097                             i1l2843 0080  
                           i1l2835 0070                             i1l2827 0059  
                           i1l2819 004A                             i1l2677 16E9  
                           i1l2597 06AB                             i1l2589 0682  
                           i1l2773 0EDC                             i1l2765 0ED0  
                           i1l2781 0F53                             i1l2757 0E41  
                           i1l2749 0DFD                             i1l2941 0375  
                           i1l2925 0313                             i1l2933 0344  
                           i1l2917 02F2                             i1l2909 02E3  
                           i1l2861 00BA                             i1l2853 009C  
                           i1l2845 0085                             i1l2837 0076  
                           i1l2829 0061                             i1l2679 16F1  
                           i1l2599 06AF                             i1l2791 0F84  
                           i1l2783 0F62                             i1l2775 0F0D  
                           i1l2767 0ED8                             i1l2759 0E5F  
                           i1l2951 038A                             i1l2943 0377  
                           i1l2935 0351                             i1l2927 0321  
                           i1l2919 0306                             i1l2871 0148  
                           i1l2863 00C7                             i1l2855 00A1  
                           i1l2847 008D                             i1l2839 007A  
                           i1l2793 0FB5                             i1l2785 0F80  
                           i1l2777 0F13                             i1l2953 0395  
                           i1l2945 037D                             i1l2937 035C  
                           i1l2929 0325                             i1l2881 01AA  
                           i1l2873 0164                             i1l2865 00E4  
                           i1l2849 008F                             i1l2795 0FBB  
                           i1l2779 0F20                             i1l2947 0385  
                           i1l2939 036B                             i1l2891 023A  
                           i1l2883 01C7                             i1l2875 016D  
                           i1l2867 0100                             i1l2859 00AA  
                           u300_25 0C93                             i1l2797 0FC8  
                           i1l2949 0389                             i1l2893 0267  
                           i1l2885 01E0                             i1l2877 017D  
                           i1l2869 012C                             i1l2799 0FFA  
                           i1l2895 028D                             i1l2887 01FD  
                           i1l2879 019A                             i1l2983 08C6  
                           i1l2897 02B5                             i1l2889 022A  
                           i1l2985 08D1                             i1l2899 02BE  
                           i1l2987 0926                             u301_25 0C9C  
                           u310_20 0D07                             u302_20 0CA7  
                           u230_20 0BC4                             u222_20 0B66  
                           u310_21 0D06                             u302_21 0CA6  
                           u230_21 0BC3                             u222_21 0B65  
                           u311_20 0D0C                             u231_20 0BC9  
                           u223_20 0B7D                             u311_21 0D0B  
                           u231_21 0BC8                             u303_25 0CAA  
                           u223_25 0B78                             u312_20 0D20  
                           u304_20 0CC3                             u224_20 0B93  
                           u320_20 1691                             u312_21 0D1F  
                           u304_21 0CC2                             u224_21 0B92  
                           u320_21 1690                             u304_25 0CBF  
                           u313_20 0D27                             u305_20 0CDC  
                           u225_20 0B9A                             _INTCON 000B  
                           u313_21 0D26                             u305_21 0CDB  
                           u225_21 0B99                             u321_25 1698  
                           u250_20 03E9                             u314_20 0D2D  
                           u306_20 0CE4                             u322_20 16A5  
                           u250_21 03E8                             u314_21 0D2C  
                           u306_21 0CE3                             u322_21 16A4  
                           u226_25 0B9C                             u330_25 06A4  
                           u251_20 03EE                             u315_20 0D3F  
                           u227_20 0BAC                             u331_20 06AF  
                           u323_20 0638                             u403_20 0776  
                           u251_21 03ED                             u315_21 0D3E  
                           u227_21 0BAB                             u331_21 06AE  
                           u323_21 0637                             u403_21 0775  
                           u307_25 0CE8                             u260_20 04A8  
                           u252_20 0407                             u316_20 0D4E  
                           u308_20 0CF3                             u228_20 0BB3  
                           u332_20 06B5                             u324_20 063C  
                           u340_20 17F0                             u404_20 0787  
                           u260_21 04A7                             u252_21 0406  
                           u308_21 0CF2                             u228_21 0BB2  
                           u332_21 06B4                             u324_21 063B  
                           u340_21 17EF                             u404_21 0786  
                           u316_25 0D49                             u341_20 16F8  
                           u261_20 04AC                             u253_20 040B  
                           u245_20 03AF                             u317_20 0D6B  
                           u333_20 06B9                             u325_20 065C  
                           u405_20 0798                             u341_21 16F7  
                           u261_21 04AB                             u253_21 040A  
                           u245_21 03AE                             u317_21 0D6A  
                           u333_21 06B8                             u325_21 065B  
                           u405_21 0797                             u317_25 0D67  
                           u309_25 0CF6                             u229_25 0BB6  
                           u405_25 0794                             u270_20 053E  
                           u262_20 04B1                             u254_20 0463  
                           u246_20 03B5                             u318_20 0D88  
                           u334_20 06CE                             u406_20 07B5  
                           u270_21 053F                             u262_21 04B0  
                           u254_21 0462                             u246_21 03B4  
                           u318_21 0D87                             u406_21 07B4  
                           u270_22 0544                             u270_23 0545  
                           u342_25 16FD                             u254_25 045F  
                           u318_25 0D84                             u334_25 06C9  
                           u326_25 066F                             u350_25 0E0F  
                           u271_20 055C                             u255_20 046C  
                           u247_20 03BA                             u319_20 0D9F  
                           u335_20 06DE                             u327_20 067D  
                           u351_20 0E5F                             u407_20 07BF  
                           u271_21 055B                             u263_21 04C3  
                           u255_21 046A                             u247_21 03B9  
                           u319_21 0D9E                             u335_21 06DD  
                           u327_21 067C                             u351_21 0E5E  
                           u407_21 07BE                             u263_22 04CA  
                           u263_23 04D1                             u351_25 0E5B  
                           u423_27 17FA                             u280_20 05BE  
                           u272_20 0581                             u264_20 04D5  
                           u256_20 046D                             u248_20 03D8  
                           u336_20 06E2                             u352_20 0EB4  
                           u408_20 07D1                             u280_21 05BD  
                           u272_21 0580                             u264_21 04D4  
                           u248_21 03D7                             u336_21 06E1  
                           u352_21 0EB3                             u408_21 07D0  
                           u328_25 0691                             u352_25 0EB0  
                           u424_27 16ED                             u281_20 05C5  
                           u273_20 0586                             u265_20 04D9  
                           u257_20 0481                             u249_20 03E3  
                           u329_20 069F                             u337_20 17B0  
                           u281_21 05C4                             u273_21 0585  
                           u265_21 04D8                             u257_21 0480  
                           u249_21 03E2                             u329_21 069E  
                           u337_21 17AF                             u353_25 0EBB  
                           u290_20 0630                             u282_20 05CB  
                           u266_20 04EA                             u258_20 0492  
                           u338_20 17C7                             u370_20 00A1  
                           u290_21 062F                             u282_21 05CA  
                           u266_21 04E9                             u258_21 0491  
                           u338_21 17C6                             u370_21 00A0  
                           u274_25 0593                             u354_25 0EE1  
                           u283_20 05DD                             u275_20 059E  
                           u291_20 0BE6                             u339_20 17DF  
                           u355_20 0F20                             u363_20 004E  
                           u283_21 05DC                             u275_21 059D  
                           u291_21 0BE5                             u339_21 17DE  
                           u355_21 0F1F                             u371_21 00F2  
                           u363_21 004D                             u371_22 00F9  
                           u371_23 0100                             u267_25 04EF  
                           u259_25 0497                             u355_25 0F1C  
                           u284_20 05EE                             u276_20 05A3  
                           u268_20 0511                             u292_20 0BEC  
                           u356_20 0F62                             u348_20 0DE1  
                           u364_20 0054                             u276_21 05A2  
                           u268_21 0510                             u292_21 0BEB  
                           u356_21 0F61                             u348_21 0DE0  
                           u380_21 021C                             u372_21 010E  
                           u364_21 0053                             u380_22 0223  
                           u372_22 0115                             u268_23 050D  
                           u380_23 022A                             u372_23 011C  
                           u284_25 05E9                             u356_25 0F5E  
                           u348_25 0DDD                             u285_20 05FD  
                           u277_20 05AD                             u293_20 0BF1  
                           u365_20 0059                             u285_21 05FC  
                           u277_21 05AC                             u269_21 052A  
                           u293_21 0BF0                             u381_21 0249  
                           u373_21 013A                             u365_21 0058  
                           u269_22 052B                             u381_22 0250  
                           u373_22 0141                             u269_23 0530  
                           u381_23 0257                             u373_23 0148  
                           u269_24 0531                             u269_25 0536  
                           u357_25 0F89                             u349_25 0DE8  
                           u269_26 0537                             u286_20 0606  
                           u278_20 05B3                             u294_20 0C13  
                           u358_20 0FC8                             u390_20 02ED  
                           u382_20 0273                             u366_20 007A  
                           u286_21 0605                             u278_21 05B2  
                           u294_21 0C12                             u358_21 0FC7  
                           u390_21 02EC                             u374_21 0156  
                           u366_21 0079                             u374_22 015D  
                           u374_23 0164                             u358_25 0FC4  
                           u382_25 026E                             u287_20 060B  
                           u279_20 05B8                             u295_20 0C19  
                           u391_20 02F2                             u367_20 0080  
                           u287_21 060A                             u279_21 05B7  
                           u295_21 0C18                             u391_21 02F1  
                           u383_21 027F                             u367_21 007F  
                           u383_22 0286                             u383_23 028D  
                           u375_25 0166                             u288_20 0618  
                           u296_20 0C1E                             u392_20 0306  
                           u384_20 029B                             u368_20 0085  
                           u288_21 0617                             u296_21 0C1D  
                           u392_21 0305                             u376_21 018C  
                           u368_21 0084                             u376_22 0193  
                           u376_23 019A                             u384_25 0296  
                           u289_20 061D                             u297_20 0C39  
                           u393_20 030D                             u369_20 009C  
                           u289_21 061C                             u297_21 0C38  
                           u393_21 030C                             u385_21 02A7  
                           u377_21 01B9                             u369_21 009B  
                           u385_22 02AE                             u377_22 01C0  
                           u385_23 02B5                             u377_23 01C7  
                           u298_20 0C57                             u394_20 0313  
                           u298_21 0C56                             u394_21 0312  
                           u386_25 02B7                             u378_25 01C9  
                           u299_20 0C91                             u395_20 0325  
                           u299_21 0C90                             u395_21 0324  
                           u379_21 01EF                             u379_22 01F6  
                           u379_23 01FD                             u387_25 02CE  
                           u396_20 0334                             u388_20 02D9  
                           u388_21 02D8                             u396_25 032F  
                           u397_20 0351                             u397_21 0350  
                           u397_25 034D                             u389_25 02DC  
                           u398_20 036B                             u398_21 036A  
                           u398_25 0367                             u399_20 0389  
                           u399_21 0388                             _TMR1IE 0460  
                           _TMR1IF 0060                             _TMR2IE 0461  
                           _TMR2IF 0061                             _TMR1ON 0080  
                           _TMR2ON 0092                             _SSPADD 0093  
                           _TRISB0 0430                             _TRISB1 0431  
                           _TRISA4 042C                             _TRISA5 042D  
                           _TRISB4 0434                             _TRISC2 043A  
                           _TRISC3 043B                             _TRISB5 0435  
                           _TRISC4 043C                             _TRISC5 043D  
                           _SSPCON 0014                             _SSPBUF 0013  
                 __end_of___xxtofl 06EC                        _AverageTemp 0DB2  
                       _TempSensor 08C6                         _Timer1Init 15A1  
                       _Timer2Init 07F0                          ??_TempSet 00A6  
         _I2C_Master_RepeatedStart 1556                      _I2C_Read_Byte 15EF  
                        ??___fladd 0020                          ??___fldiv 0042  
                        ??_SysInit 00A4                          ??___flmul 0028  
                        ??___fltol 0058                          ??___lldiv 00AC  
                        ??___lwdiv 00A8                          ??___lwmod 00AF  
               __size_of__Umul8_16 0027                          ?_ADC_Read 0070  
                    ??_SettingMode 00C0                             saved_w 007E  
                     ___xxtofl@arg 007A                       ___xxtofl@exp 0079  
                     ___xxtofl@val 0070            __end_of__initialization 0039  
                       ___fltol@f1 0054                __end_of_TempDisplay 0770  
                __end_of_FetchTemp 15D9              __size_of_EEPROM_Write 0059  
                   ?_I2C_Read_Byte 0070                     __pcstackCOMMON 0070  
                     __pidataBANK1 1593                        _ButtonsInit 153F  
                       ??_ADC_Read 0072                   ??_OnOff_Int_Init 00A4  
                     _EEPROM_Write 0808                         __pbssBANK1 00C9  
                       __pbssBANK3 0190                __end_of_SettingMode 0AE1  
                        ?_SaveTemp 0070                        ?_TempSensor 0070  
                __end_of__Umul8_16 16AA                        ?_Timer1Init 0070  
                      ?_Timer2Init 0070                         __pmaintext 161F  
                    ?_SevenSegInit 0070     __size_of_HeatingCoolingElement 0065  
    __end_of_HeatingCoolingElement 08C6                         __pintentry 0004  
 __size_ofi1_HeatingCoolingElement 0063                            _I2C_ACK 157A  
                          _ACKSTAT 048E                            _ADCInit 154D  
                          _LEDInit 153B                          ?___xxtofl 0070  
                          _SSPCON2 0091                            _SSPSTAT 0094  
                      _TempDisplay 06EC                            _Address 00E5  
                   _binary_pattern 00DB                    ??_I2C_Read_Byte 00A4  
                       ??_SaveTemp 00BA                          _ADCResult 00D9  
                   ??_SevenSegInit 00A4                            _TempSet 0AE1  
                          ___fladd 039E                            ___fldiv 0BD5  
                          _SysInit 165F                            ___flmul 003D  
                          ___fltol 0B59                            ___lldiv 092C  
                          ___lwdiv 1757                            ___lwmod 171B  
                          __ptext1 165F                            __ptext2 07F0  
                          __ptext3 15A1                            __ptext4 15D9  
                          __ptext5 1545                            __ptext6 153B  
                          __ptext7 1571                            __ptext8 153F  
                          __ptext9 0A6A                       __size_of_ISR 0080  
                       ??___xxtofl 0074                        _SettingMode 0A6A  
         __size_of_I2C_Master_Init 0036                __size_of_TempSensor 0066  
         __size_of_I2C_Master_Wait 000D           __size_of_I2C_Master_Stop 0009  
              __size_of_Timer1Init 0011                __size_of_Timer2Init 000F  
                          clrloop0 0801                       ?_ElementInit 0070  
             end_of_initialization 0039                 _CurrentTempDisplay 09FE  
       ??_I2C_Master_RepeatedStart 00A4                      ??_EEPROM_Read 00AB  
                     ?_AverageTemp 0070          __size_of_I2C_Master_Start 0009  
        __size_of_I2C_Master_Write 0019                    ___lldiv@divisor 00A4  
              ?_CurrentTempDisplay 0070                    ___lldiv@counter 00B1  
                 AverageTemp@j_293 0067                   AverageTemp@j_294 0069  
                        _PORTAbits 0005                          _PORTBbits 0006  
                        _PORTCbits 0007                        ___fladd@grs 007B  
             ??_CurrentTempDisplay 00B0                      ___xxtofl@sign 0078  
                      ___fldiv@grs 004E                        ___fldiv@rem 0047  
                __size_of_ADC_Read 003B                      EEPROM_Write@i 00AC  
                      ___flmul@grs 002E                __end_of_EEPROM_Read 09FE  
          i1_HeatingCoolingElement 179D                          _FetchTemp 15C5  
                     ?_ButtonsInit 0070                start_initialization 0019  
                      __end_of_ISR 07F0               __end_of_SevenSegInit 15EF  
                ??_I2C_Master_Init 00B6                  ??_I2C_Master_Wait 00A4  
                ??_I2C_Master_Stop 00A4                       ??_TempSensor 007E  
                     ??_Timer1Init 00A4                       ??_Timer2Init 00A4  
                __size_of_SaveTemp 0023                         init_fetch0 15B2  
                       ?_FetchTemp 0070                          __Umul8_16 1683  
                      __pdataBANK1 00DB                           ?_I2C_ACK 0070  
                         ?_ADCInit 0070                     AverageTemp@tmp 006B  
                        ___fladd@a 0074                          ___fladd@b 0070  
                        ___fldiv@a 003A                          ___fldiv@b 003E  
                         ?_LEDInit 0070                          ___flmul@a 0024  
                        ___flmul@b 0020                          ___latbits 0002  
                    __pcstackBANK0 0020                      __pcstackBANK1 00A0  
               __end_of_TempSensor 092C                  __size_of___xxtofl 00BA  
               __end_of_Timer1Init 15B2                 __end_of_Timer2Init 07FF  
                     ?_TempDisplay 0070                       TempDisplay@a 00BC  
                     TempDisplay@b 00BE               __size_of_ElementInit 0009  
                      _EEPROM_Read 0994                   _I2C_Master_Start 155F  
                 _I2C_Master_Write 1606          ??i1_HeatingCoolingElement 0070  
                 ___lwdiv@dividend 00A6                           ?_TempSet 00A4  
             __size_of_AverageTemp 024E                           ?___fladd 0070  
                         ?___fldiv 003A                           ?_SysInit 0070  
                         ?___flmul 0020                           ?___fltol 0054  
                         ?___lldiv 00A4                         ?__Umul8_16 0070  
                         ?___lwdiv 00A4                           ?___lwmod 00AB  
            _HeatingCoolingElement 0861               I2C_Master_Write@data 00A4  
                         _ADC_Read 16E0                       ?_SettingMode 0070  
                 ___lwdiv@quotient 00A8                  interrupt_function 0004  
                        clear_ram0 0800            __size_of_OnOff_Int_Init 0008  
            __end_of_I2C_Read_Byte 1606                        _averageTemp 00D5  
                      ??_FetchTemp 00AF                       EEPROM_Read@i 00AD  
                 __size_of_I2C_ACK 000C                   __size_of_ADCInit 0009  
                       _ADCON0bits 001F              __size_of_SevenSegInit 0016  
                 __size_of_LEDInit 0004               __size_of_ButtonsInit 0006  
              I2C_Master_Init@baud 00B2                           _Readings 0190  
                         _SaveTemp 163C                       _SevenSegInit 15D9  
                 __size_of_TempSet 0078             ?_HeatingCoolingElement 0070  
                      ??__Umul8_16 0072  __size_of_I2C_Master_RepeatedStart 0009  
                 __size_of___fladd 0294                   __size_of___fldiv 01DD  
                 __size_of_SysInit 0024                   __size_of___flmul 0361  
        ?_I2C_Master_RepeatedStart 0070                   __size_of___fltol 007C  
                 __size_of___lldiv 0068                   __size_of___lwdiv 0046  
                 __size_of___lwmod 003C                        _currentTemp 00D7  
                  _I2C_Master_Init 16AA                           ___xxtofl 0632  
      __size_of_CurrentTempDisplay 006C                    _I2C_Master_Wait 1586  
                  _I2C_Master_Stop 1568                    ___lwdiv@divisor 00A4  
                  ___lwdiv@counter 00AA                           __ptext10 0AE1  
                         __ptext11 06EC                           __ptext20 1568  
                         __ptext12 163C                           __ptext21 155F  
                         __ptext13 16AA                           __ptext30 08C6  
                         __ptext22 1556                           __ptext14 092C  
                         __ptext31 003D                           __ptext23 157A  
                         __ptext15 0808                           __ptext40 154D  
                         __ptext32 1683                           __ptext24 1586  
                         __ptext16 15C5                           __ptext33 0DB2  
                         __ptext25 0861                           __ptext17 0994  
                         __ptext34 179D                           __ptext26 09FE  
                         __ptext18 15EF                           __ptext35 0632  
                         __ptext27 171B                           __ptext19 1606  
                         __ptext36 0B59                           __ptext28 1757  
                         __ptext37 0BD5                           __ptext29 0770  
                         __ptext38 039E                           __ptext39 16E0  
                    ?_EEPROM_Write 00A5               __size_of_TempDisplay 0084  
                    __size_of_main 001D                       SettingMode@k 00C7  
                     SettingMode@y 00C5                       SettingMode@z 00C3  
               AverageTemp@reading 0063           __end_of_I2C_Master_Start 1568  
         __end_of_I2C_Master_Write 161F                           init_ram0 15B6  
                     AverageTemp@j 0061                     ??_EEPROM_Write 00AA  
             __size_of_SettingMode 0077                           intlevel1 0000  
                 ___lwmod@dividend 00AD                       ?_EEPROM_Read 00A5  
                 ___lldiv@dividend 00A8                     _OnOff_Int_Init 1545  
          __end_of_I2C_Master_Init 16E0            __end_of_I2C_Master_Wait 1593  
          __end_of_I2C_Master_Stop 1571             __Umul8_16@multiplicand 0070  
                       _OPTION_REG 0081                   ___lldiv@quotient 00AD  
                  ___lwmod@divisor 00AB                    ___lwmod@counter 00AF  
                    ??_ElementInit 00A4                      ___fladd@signs 0078  
           __end_of_OnOff_Int_Init 154D                       ___fladd@aexp 0079  
                     ___fladd@bexp 007A               __Umul8_16@multiplier 0078  
                    ??_AverageTemp 005E                    EEPROM_Read@data 00A7  
                   EEPROM_Read@add 00A5                     EEPROM_Read@len 00A9  
                __Umul8_16@product 0074  
