

Microchip MPLAB XC8 Assembler V2.20 build 20200408173844 
                                                                                               Tue Jul 14 15:25:01 2020

Microchip MPLAB XC8 C Compiler v2.20 (Free license) build 20200408173844 Og1 
     1                           	processor	16F877A
     2                           	pagewidth 120
     3                           	opt	flic
     4                           	psect	idataBANK1,global,class=CODE,delta=2,noexec
     5                           	psect	cinit,global,class=CODE,merge=1,delta=2
     6                           	psect	bssBANK1,global,class=BANK1,space=1,delta=1,noexec
     7                           	psect	dataBANK1,global,class=BANK1,space=1,delta=1,noexec
     8                           	psect	bssBANK3,global,class=BANK3,space=1,delta=1,noexec
     9                           	psect	inittext,global,class=CODE,delta=2
    10                           	psect	clrtext,global,class=CODE,delta=2
    11                           	psect	cstackBANK1,global,class=BANK1,space=1,delta=1,noexec
    12                           	psect	cstackCOMMON,global,class=COMMON,space=1,delta=1,noexec
    13                           	psect	cstackBANK0,global,class=BANK0,space=1,delta=1,noexec
    14                           	psect	maintext,global,class=CODE,split=1,delta=2
    15                           	psect	text1,local,class=CODE,merge=1,delta=2
    16                           	psect	text2,local,class=CODE,merge=1,delta=2
    17                           	psect	text3,local,class=CODE,merge=1,delta=2
    18                           	psect	text4,local,class=CODE,merge=1,delta=2
    19                           	psect	text5,local,class=CODE,merge=1,delta=2
    20                           	psect	text6,local,class=CODE,merge=1,delta=2
    21                           	psect	text7,local,class=CODE,merge=1,delta=2
    22                           	psect	text8,local,class=CODE,merge=1,delta=2
    23                           	psect	text9,local,class=CODE,merge=1,delta=2
    24                           	psect	text10,local,class=CODE,merge=1,delta=2
    25                           	psect	text11,local,class=CODE,merge=1,delta=2
    26                           	psect	text12,local,class=CODE,merge=1,delta=2
    27                           	psect	text13,local,class=CODE,merge=1,delta=2
    28                           	psect	text14,local,class=CODE,merge=1,delta=2,group=1
    29                           	psect	text15,local,class=CODE,merge=1,delta=2
    30                           	psect	text16,local,class=CODE,merge=1,delta=2
    31                           	psect	text17,local,class=CODE,merge=1,delta=2
    32                           	psect	text18,local,class=CODE,merge=1,delta=2
    33                           	psect	text19,local,class=CODE,merge=1,delta=2
    34                           	psect	text20,local,class=CODE,merge=1,delta=2
    35                           	psect	text21,local,class=CODE,merge=1,delta=2
    36                           	psect	text22,local,class=CODE,merge=1,delta=2
    37                           	psect	text23,local,class=CODE,merge=1,delta=2
    38                           	psect	text24,local,class=CODE,merge=1,delta=2
    39                           	psect	text25,local,class=CODE,merge=1,delta=2
    40                           	psect	text26,local,class=CODE,merge=1,delta=2
    41                           	psect	text27,local,class=CODE,merge=1,delta=2,group=1
    42                           	psect	text28,local,class=CODE,merge=1,delta=2,group=1
    43                           	psect	text29,local,class=CODE,merge=1,delta=2
    44                           	psect	intentry,global,class=CODE,delta=2
    45                           	psect	text30,local,class=CODE,merge=1,delta=2
    46                           	psect	text31,local,class=CODE,merge=1,delta=2,group=1
    47                           	psect	text32,local,class=CODE,merge=1,delta=2,group=1
    48                           	psect	text33,local,class=CODE,merge=1,delta=2
    49                           	psect	text34,local,class=CODE,merge=1,delta=2
    50                           	psect	text35,local,class=CODE,merge=1,delta=2,group=1
    51                           	psect	text36,local,class=CODE,merge=1,delta=2,group=1
    52                           	psect	text37,local,class=CODE,merge=1,delta=2,group=1
    53                           	psect	text38,local,class=CODE,merge=1,delta=2,group=1
    54                           	psect	text39,local,class=CODE,merge=1,delta=2
    55                           	psect	text40,local,class=CODE,merge=1,delta=2
    56                           	psect	config,global,abs,ovrld,class=CONFIG,space=4,delta=2,noexec
    57                           	dabs	1,0x7E,2
    58  0000                     
    59                           ; Version 2.20
    60                           ; Generated 12/02/2020 GMT
    61                           ; 
    62                           ; Copyright © 2020, Microchip Technology Inc. and its subsidiaries ("Microchip")
    63                           ; All rights reserved.
    64                           ; 
    65                           ; This software is developed by Microchip Technology Inc. and its subsidiaries ("Microch
      +                          ip").
    66                           ; 
    67                           ; Redistribution and use in source and binary forms, with or without modification, are
    68                           ; permitted provided that the following conditions are met:
    69                           ; 
    70                           ;     1. Redistributions of source code must retain the above copyright notice, this lis
      +                          t of
    71                           ;        conditions and the following disclaimer.
    72                           ; 
    73                           ;     2. Redistributions in binary form must reproduce the above copyright notice, this 
      +                          list
    74                           ;        of conditions and the following disclaimer in the documentation and/or other
    75                           ;        materials provided with the distribution.
    76                           ; 
    77                           ;     3. Microchip's name may not be used to endorse or promote products derived from th
      +                          is
    78                           ;        software without specific prior written permission.
    79                           ; 
    80                           ; THIS SOFTWARE IS PROVIDED BY MICROCHIP "AS IS" AND ANY EXPRESS OR IMPLIED WARRANTIES,
    81                           ; INCLUDING, BUT NOT LIMITED TO, THE IMPLIED WARRANTIES OF MERCHANTABILITY AND FITNESS F
      +                          OR
    82                           ; PURPOSE ARE DISCLAIMED.  IN NO EVENT SHALL MICROCHIP BE LIABLE FOR ANY DIRECT, INDIREC
      +                          T,
    83                           ; INCIDENTAL, SPECIAL, EXEMPLARY, OR CONSEQUENTIAL DAMAGES (INCLUDING BUT NOT LIMITED TO
    84                           ; PROCUREMENT OF SUBSTITUTE GOODS OR SERVICES; LOSS OF USE, DATA OR PROFITS; OR BUSINESS
    85                           ; INTERRUPTION) HOWSOEVER CAUSED AND ON ANY THEORY OF LIABILITY, WHETHER IN CONTRACT, ST
      +                          RICT
    86                           ; LIABILITY, OR TORT (INCLUDING NEGLIGENCE OR OTHERWISE) ARISING IN ANY WAY OUT OF THE U
      +                          SE OF
    87                           ; THIS SOFTWARE, EVEN IF ADVISED OF THE POSSIBILITY OF SUCH DAMAGE.
    88                           ; 
    89                           ; 
    90                           ; Code-generator required, PIC16F877A Definitions
    91                           ; 
    92                           ; SFR Addresses
    93  0000                     	;# 
    94  0001                     	;# 
    95  0002                     	;# 
    96  0003                     	;# 
    97  0004                     	;# 
    98  0005                     	;# 
    99  0006                     	;# 
   100  0007                     	;# 
   101  0008                     	;# 
   102  0009                     	;# 
   103  000A                     	;# 
   104  000B                     	;# 
   105  000C                     	;# 
   106  000D                     	;# 
   107  000E                     	;# 
   108  000E                     	;# 
   109  000F                     	;# 
   110  0010                     	;# 
   111  0011                     	;# 
   112  0012                     	;# 
   113  0013                     	;# 
   114  0014                     	;# 
   115  0015                     	;# 
   116  0015                     	;# 
   117  0016                     	;# 
   118  0017                     	;# 
   119  0018                     	;# 
   120  0019                     	;# 
   121  001A                     	;# 
   122  001B                     	;# 
   123  001B                     	;# 
   124  001C                     	;# 
   125  001D                     	;# 
   126  001E                     	;# 
   127  001F                     	;# 
   128  0081                     	;# 
   129  0085                     	;# 
   130  0086                     	;# 
   131  0087                     	;# 
   132  0088                     	;# 
   133  0089                     	;# 
   134  008C                     	;# 
   135  008D                     	;# 
   136  008E                     	;# 
   137  0091                     	;# 
   138  0092                     	;# 
   139  0093                     	;# 
   140  0094                     	;# 
   141  0098                     	;# 
   142  0099                     	;# 
   143  009C                     	;# 
   144  009D                     	;# 
   145  009E                     	;# 
   146  009F                     	;# 
   147  010C                     	;# 
   148  010D                     	;# 
   149  010E                     	;# 
   150  010F                     	;# 
   151  018C                     	;# 
   152  018D                     	;# 
   153  0000                     	;# 
   154  0001                     	;# 
   155  0002                     	;# 
   156  0003                     	;# 
   157  0004                     	;# 
   158  0005                     	;# 
   159  0006                     	;# 
   160  0007                     	;# 
   161  0008                     	;# 
   162  0009                     	;# 
   163  000A                     	;# 
   164  000B                     	;# 
   165  000C                     	;# 
   166  000D                     	;# 
   167  000E                     	;# 
   168  000E                     	;# 
   169  000F                     	;# 
   170  0010                     	;# 
   171  0011                     	;# 
   172  0012                     	;# 
   173  0013                     	;# 
   174  0014                     	;# 
   175  0015                     	;# 
   176  0015                     	;# 
   177  0016                     	;# 
   178  0017                     	;# 
   179  0018                     	;# 
   180  0019                     	;# 
   181  001A                     	;# 
   182  001B                     	;# 
   183  001B                     	;# 
   184  001C                     	;# 
   185  001D                     	;# 
   186  001E                     	;# 
   187  001F                     	;# 
   188  0081                     	;# 
   189  0085                     	;# 
   190  0086                     	;# 
   191  0087                     	;# 
   192  0088                     	;# 
   193  0089                     	;# 
   194  008C                     	;# 
   195  008D                     	;# 
   196  008E                     	;# 
   197  0091                     	;# 
   198  0092                     	;# 
   199  0093                     	;# 
   200  0094                     	;# 
   201  0098                     	;# 
   202  0099                     	;# 
   203  009C                     	;# 
   204  009D                     	;# 
   205  009E                     	;# 
   206  009F                     	;# 
   207  010C                     	;# 
   208  010D                     	;# 
   209  010E                     	;# 
   210  010F                     	;# 
   211  018C                     	;# 
   212  018D                     	;# 
   213                           
   214                           	psect	idataBANK1
   215  159D                     __pidataBANK1:
   216                           
   217                           ;initializer for _binary_pattern
   218  159D  343F               	retlw	63
   219  159E  3406               	retlw	6
   220  159F  345B               	retlw	91
   221  15A0  344F               	retlw	79
   222  15A1  3466               	retlw	102
   223  15A2  346D               	retlw	109
   224  15A3  347D               	retlw	125
   225  15A4  3407               	retlw	7
   226  15A5  347F               	retlw	127
   227  15A6  346F               	retlw	111
   228                           
   229                           ;initializer for _Address
   230  15A7  3420               	retlw	32
   231  15A8  3400               	retlw	0
   232                           
   233                           ;initializer for _Temp
   234  15A9  343C               	retlw	60
   235  15AA  3400               	retlw	0
   236  0007                     _PORTC	set	7
   237  0006                     _PORTB	set	6
   238  0005                     _PORTA	set	5
   239  0006                     _PORTBbits	set	6
   240  001E                     _ADRESH	set	30
   241  001F                     _ADCON0bits	set	31
   242  000B                     _INTCON	set	11
   243  0011                     _TMR2	set	17
   244  0012                     _T2CON	set	18
   245  000E                     _TMR1L	set	14
   246  000F                     _TMR1H	set	15
   247  0010                     _T1CON	set	16
   248  0007                     _PORTCbits	set	7
   249  001F                     _ADCON0	set	31
   250  0008                     _PORTD	set	8
   251  0005                     _PORTAbits	set	5
   252  0013                     _SSPBUF	set	19
   253  0014                     _SSPCON	set	20
   254  0059                     _INTF	set	89
   255  0061                     _TMR2IF	set	97
   256  0060                     _TMR1IF	set	96
   257  002B                     _RA3	set	43
   258  002A                     _RA2	set	42
   259  002D                     _RA5	set	45
   260  002C                     _RA4	set	44
   261  0092                     _TMR2ON	set	146
   262  0080                     _TMR1ON	set	128
   263  005E                     _PEIE	set	94
   264  005F                     _GIE	set	95
   265  0063                     _SSPIF	set	99
   266  009E                     _ADRESL	set	158
   267  0081                     _OPTION_REG	set	129
   268  0088                     _TRISD	set	136
   269  009F                     _ADCON1	set	159
   270  0094                     _SSPSTAT	set	148
   271  0093                     _SSPADD	set	147
   272  0091                     _SSPCON2	set	145
   273  0461                     _TMR2IE	set	1121
   274  0460                     _TMR1IE	set	1120
   275  043A                     _TRISC2	set	1082
   276  043D                     _TRISC5	set	1085
   277  042D                     _TRISA5	set	1069
   278  042C                     _TRISA4	set	1068
   279  0431                     _TRISB1	set	1073
   280  0435                     _TRISB5	set	1077
   281  0434                     _TRISB4	set	1076
   282  0430                     _TRISB0	set	1072
   283  048C                     _ACKEN	set	1164
   284  048D                     _ACKDT	set	1165
   285  048B                     _RCEN	set	1163
   286  048E                     _ACKSTAT	set	1166
   287  048A                     _PEN	set	1162
   288  0489                     _RSEN	set	1161
   289  0488                     _SEN	set	1160
   290  043C                     _TRISC4	set	1084
   291  043B                     _TRISC3	set	1083
   292                           
   293                           	psect	cinit
   294  0019                     start_initialization:	
   295                           ; #config settings
   296                           
   297  0019                     __initialization:
   298                           
   299                           ; Initialize objects allocated to BANK1
   300  0019  1383               	bcf	3,7	;select IRP bank0
   301  001A  30E9               	movlw	low (__pdataBANK1+14)
   302  001B  00FD               	movwf	btemp+-1
   303  001C  3015               	movlw	high __pidataBANK1
   304  001D  00FE               	movwf	btemp
   305  001E  309D               	movlw	low __pidataBANK1
   306  001F  00FF               	movwf	btemp+1
   307  0020  30DB               	movlw	low __pdataBANK1
   308  0021  0084               	movwf	4
   309  0022  160A  118A  25C0  120A  118A  	fcall	init_ram0
   310                           
   311                           ; Clear objects allocated to BANK3
   312  0027  1783               	bsf	3,7	;select IRP bank2
   313  0028  3090               	movlw	low __pbssBANK3
   314  0029  0084               	movwf	4
   315  002A  30B8               	movlw	low (__pbssBANK3+40)
   316  002B  160A  118A  254F  120A  118A  	fcall	clear_ram0
   317                           
   318                           ; Clear objects allocated to BANK1
   319  0030  1383               	bcf	3,7	;select IRP bank0
   320  0031  30C9               	movlw	low __pbssBANK1
   321  0032  0084               	movwf	4
   322  0033  30DB               	movlw	low (__pbssBANK1+18)
   323  0034  160A  118A  254F  120A  118A  	fcall	clear_ram0
   324  0039                     end_of_initialization:	
   325                           ;End of C runtime variable initialization code
   326                           
   327  0039                     __end_of__initialization:
   328  0039  0183               	clrf	3
   329  003A  160A  118A  2E29   	ljmp	_main	;jump to C main() function
   330                           
   331                           	psect	bssBANK1
   332  00C9                     __pbssBANK1:
   333  00C9                     _Flag:
   334  00C9                     	ds	2
   335  00CB                     _count:
   336  00CB                     	ds	2
   337  00CD                     _value:
   338  00CD                     	ds	2
   339  00CF                     _s:
   340  00CF                     	ds	2
   341  00D1                     _x:
   342  00D1                     	ds	2
   343  00D3                     _i:
   344  00D3                     	ds	2
   345  00D5                     _averageTemp:
   346  00D5                     	ds	2
   347  00D7                     _currentTemp:
   348  00D7                     	ds	2
   349  00D9                     _ADCResult:
   350  00D9                     	ds	2
   351                           
   352                           	psect	dataBANK1
   353  00DB                     __pdataBANK1:
   354  00DB                     _binary_pattern:
   355  00DB                     	ds	10
   356  00E5                     _Address:
   357  00E5                     	ds	2
   358  00E7                     _Temp:
   359  00E7                     	ds	2
   360                           
   361                           	psect	bssBANK3
   362  0190                     __pbssBANK3:
   363  0190                     _Readings:
   364  0190                     	ds	40
   365                           
   366                           	psect	inittext
   367  15BC                     init_fetch0:	
   368                           ;	Called with low address in FSR and high address in W
   369                           
   370  15BC  087E               	movf	btemp,w
   371  15BD  008A               	movwf	10
   372  15BE  087F               	movf	btemp+1,w
   373  15BF  0082               	movwf	2
   374  15C0                     init_ram0:	
   375                           ;Called with:
   376                           ;	high address of idata address in btemp 
   377                           ;	low address of idata address in btemp+1 
   378                           ;	low address of data in FSR
   379                           ;	high address + 1 of data in btemp-1
   380                           
   381  15C0  160A  118A  25BC  160A  118A  	fcall	init_fetch0
   382  15C5  0080               	movwf	0
   383  15C6  0A84               	incf	4,f
   384  15C7  0804               	movf	4,w
   385  15C8  067D               	xorwf	btemp+-1,w
   386  15C9  1903               	btfsc	3,2
   387  15CA  3400               	retlw	0
   388  15CB  0AFF               	incf	btemp+1,f
   389  15CC  1903               	btfsc	3,2
   390  15CD  0AFE               	incf	btemp,f
   391  15CE  2DC0               	goto	init_ram0
   392                           
   393                           	psect	clrtext
   394  154F                     clear_ram0:	
   395                           ;	Called with FSR containing the base address, and
   396                           ;	W with the last address+1
   397                           
   398  154F  0064               	clrwdt	;clear the watchdog before getting into this loop
   399  1550                     clrloop0:
   400  1550  0180               	clrf	0	;clear RAM location pointed to by FSR
   401  1551  0A84               	incf	4,f	;increment pointer
   402  1552  0604               	xorwf	4,w	;XOR with final address
   403  1553  1903               	btfsc	3,2	;have we reached the end yet?
   404  1554  3400               	retlw	0	;all done for this memory range, return
   405  1555  0604               	xorwf	4,w	;XOR again to restore value
   406  1556  2D50               	goto	clrloop0	;do the next byte
   407                           
   408                           	psect	cstackBANK1
   409  00A0                     __pcstackBANK1:
   410  00A0                     ??_ISR:
   411                           
   412                           ; 1 bytes @ 0x0
   413  00A0                     	ds	4
   414  00A4                     ??_HeatingCoolingElement:
   415  00A4                     ??_I2C_Master_Wait:	
   416                           ; 1 bytes @ 0x4
   417                           
   418  00A4                     ??_I2C_Master_Start:	
   419                           ; 1 bytes @ 0x4
   420                           
   421  00A4                     ??_I2C_Master_RepeatedStart:	
   422                           ; 1 bytes @ 0x4
   423                           
   424  00A4                     ??_I2C_Master_Stop:	
   425                           ; 1 bytes @ 0x4
   426                           
   427  00A4                     ??_I2C_Master_Write:	
   428                           ; 1 bytes @ 0x4
   429                           
   430  00A4                     ??_I2C_Read_Byte:	
   431                           ; 1 bytes @ 0x4
   432                           
   433  00A4                     ??_I2C_ACK:	
   434                           ; 1 bytes @ 0x4
   435                           
   436  00A4                     ??_ButtonsInit:	
   437                           ; 1 bytes @ 0x4
   438                           
   439  00A4                     ??_LEDInit:	
   440                           ; 1 bytes @ 0x4
   441                           
   442  00A4                     ??_SevenSegInit:	
   443                           ; 1 bytes @ 0x4
   444                           
   445  00A4                     ??_ElementInit:	
   446                           ; 1 bytes @ 0x4
   447                           
   448  00A4                     ??_Timer1Init:	
   449                           ; 1 bytes @ 0x4
   450                           
   451  00A4                     ??_Timer2Init:	
   452                           ; 1 bytes @ 0x4
   453                           
   454  00A4                     ??_OnOff_Int_Init:	
   455                           ; 1 bytes @ 0x4
   456                           
   457  00A4                     ??_SysInit:	
   458                           ; 1 bytes @ 0x4
   459                           
   460  00A4                     ?_TempSet:	
   461                           ; 1 bytes @ 0x4
   462                           
   463  00A4                     ?___lwdiv:	
   464                           ; 2 bytes @ 0x4
   465                           
   466  00A4                     ?___lldiv:	
   467                           ; 2 bytes @ 0x4
   468                           
   469  00A4                     I2C_Master_Write@data:	
   470                           ; 4 bytes @ 0x4
   471                           
   472  00A4                     ___lwdiv@divisor:	
   473                           ; 1 bytes @ 0x4
   474                           
   475  00A4                     ___lldiv@divisor:	
   476                           ; 2 bytes @ 0x4
   477                           
   478                           
   479                           ; 4 bytes @ 0x4
   480  00A4                     	ds	1
   481  00A5                     ?_EEPROM_Write:
   482  00A5                     ?_EEPROM_Read:	
   483                           ; 1 bytes @ 0x5
   484                           
   485  00A5                     EEPROM_Write@add:	
   486                           ; 1 bytes @ 0x5
   487                           
   488  00A5                     EEPROM_Read@add:	
   489                           ; 2 bytes @ 0x5
   490                           
   491                           
   492                           ; 2 bytes @ 0x5
   493  00A5                     	ds	1
   494  00A6                     ??_TempSet:
   495  00A6                     ___lwdiv@dividend:	
   496                           ; 1 bytes @ 0x6
   497                           
   498                           
   499                           ; 2 bytes @ 0x6
   500  00A6                     	ds	1
   501  00A7                     EEPROM_Write@data:
   502  00A7                     EEPROM_Read@data:	
   503                           ; 2 bytes @ 0x7
   504                           
   505                           
   506                           ; 2 bytes @ 0x7
   507  00A7                     	ds	1
   508  00A8                     ??___lwdiv:
   509  00A8                     ___lwdiv@quotient:	
   510                           ; 1 bytes @ 0x8
   511                           
   512  00A8                     ___lldiv@dividend:	
   513                           ; 2 bytes @ 0x8
   514                           
   515                           
   516                           ; 4 bytes @ 0x8
   517  00A8                     	ds	1
   518  00A9                     EEPROM_Write@len:
   519  00A9                     EEPROM_Read@len:	
   520                           ; 1 bytes @ 0x9
   521                           
   522                           
   523                           ; 2 bytes @ 0x9
   524  00A9                     	ds	1
   525  00AA                     ??_EEPROM_Write:
   526  00AA                     ___lwdiv@counter:	
   527                           ; 1 bytes @ 0xA
   528                           
   529                           
   530                           ; 1 bytes @ 0xA
   531  00AA                     	ds	1
   532  00AB                     ??_EEPROM_Read:
   533  00AB                     ?___lwmod:	
   534                           ; 1 bytes @ 0xB
   535                           
   536  00AB                     ___lwmod@divisor:	
   537                           ; 2 bytes @ 0xB
   538                           
   539                           
   540                           ; 2 bytes @ 0xB
   541  00AB                     	ds	1
   542  00AC                     ??___lldiv:
   543  00AC                     EEPROM_Write@i:	
   544                           ; 1 bytes @ 0xC
   545                           
   546                           
   547                           ; 2 bytes @ 0xC
   548  00AC                     	ds	1
   549  00AD                     EEPROM_Read@i:
   550  00AD                     ___lwmod@dividend:	
   551                           ; 2 bytes @ 0xD
   552                           
   553  00AD                     ___lldiv@quotient:	
   554                           ; 2 bytes @ 0xD
   555                           
   556                           
   557                           ; 4 bytes @ 0xD
   558  00AD                     	ds	2
   559  00AF                     ??_FetchTemp:
   560  00AF                     ??___lwmod:	
   561                           ; 1 bytes @ 0xF
   562                           
   563  00AF                     ___lwmod@counter:	
   564                           ; 1 bytes @ 0xF
   565                           
   566                           
   567                           ; 1 bytes @ 0xF
   568  00AF                     	ds	1
   569  00B0                     ??_CurrentTempDisplay:
   570                           
   571                           ; 1 bytes @ 0x10
   572  00B0                     	ds	1
   573  00B1                     ___lldiv@counter:
   574                           
   575                           ; 1 bytes @ 0x11
   576  00B1                     	ds	1
   577  00B2                     ?_I2C_Master_Init:
   578  00B2                     CurrentTempDisplay@a:	
   579                           ; 1 bytes @ 0x12
   580                           
   581  00B2                     I2C_Master_Init@baud:	
   582                           ; 2 bytes @ 0x12
   583                           
   584                           
   585                           ; 4 bytes @ 0x12
   586  00B2                     	ds	2
   587  00B4                     CurrentTempDisplay@b:
   588                           
   589                           ; 2 bytes @ 0x14
   590  00B4                     	ds	2
   591  00B6                     ??_I2C_Master_Init:
   592                           
   593                           ; 1 bytes @ 0x16
   594  00B6                     	ds	4
   595  00BA                     ??_SaveTemp:
   596  00BA                     ??_TempDisplay:	
   597                           ; 1 bytes @ 0x1A
   598                           
   599                           
   600                           ; 1 bytes @ 0x1A
   601  00BA                     	ds	2
   602  00BC                     TempDisplay@a:
   603                           
   604                           ; 2 bytes @ 0x1C
   605  00BC                     	ds	2
   606  00BE                     TempDisplay@b:
   607                           
   608                           ; 2 bytes @ 0x1E
   609  00BE                     	ds	2
   610  00C0                     ??_SettingMode:
   611                           
   612                           ; 1 bytes @ 0x20
   613  00C0                     	ds	3
   614  00C3                     SettingMode@z:
   615                           
   616                           ; 2 bytes @ 0x23
   617  00C3                     	ds	2
   618  00C5                     SettingMode@y:
   619                           
   620                           ; 2 bytes @ 0x25
   621  00C5                     	ds	2
   622  00C7                     SettingMode@k:
   623                           
   624                           ; 2 bytes @ 0x27
   625  00C7                     	ds	2
   626  00C9                     ??_main:
   627                           
   628                           	psect	cstackCOMMON
   629  0070                     __pcstackCOMMON:	
   630                           ; 1 bytes @ 0x29
   631                           
   632  0070                     ?_HeatingCoolingElement:
   633  0070                     ?_I2C_Master_Wait:	
   634                           ; 1 bytes @ 0x0
   635                           
   636  0070                     ?_I2C_Master_Start:	
   637                           ; 1 bytes @ 0x0
   638                           
   639  0070                     ?_I2C_Master_RepeatedStart:	
   640                           ; 1 bytes @ 0x0
   641                           
   642  0070                     ?_I2C_Master_Stop:	
   643                           ; 1 bytes @ 0x0
   644                           
   645  0070                     ?_I2C_Master_Write:	
   646                           ; 1 bytes @ 0x0
   647                           
   648  0070                     ?_I2C_Read_Byte:	
   649                           ; 1 bytes @ 0x0
   650                           
   651  0070                     ?_I2C_ACK:	
   652                           ; 1 bytes @ 0x0
   653                           
   654  0070                     ?_ButtonsInit:	
   655                           ; 1 bytes @ 0x0
   656                           
   657  0070                     ?_LEDInit:	
   658                           ; 1 bytes @ 0x0
   659                           
   660  0070                     ?_SevenSegInit:	
   661                           ; 1 bytes @ 0x0
   662                           
   663  0070                     ?_ADCInit:	
   664                           ; 1 bytes @ 0x0
   665                           
   666  0070                     ??_ADCInit:	
   667                           ; 1 bytes @ 0x0
   668                           
   669  0070                     ?_ElementInit:	
   670                           ; 1 bytes @ 0x0
   671                           
   672  0070                     ?_Timer1Init:	
   673                           ; 1 bytes @ 0x0
   674                           
   675  0070                     ?_Timer2Init:	
   676                           ; 1 bytes @ 0x0
   677                           
   678  0070                     ?_OnOff_Int_Init:	
   679                           ; 1 bytes @ 0x0
   680                           
   681  0070                     ?_SysInit:	
   682                           ; 1 bytes @ 0x0
   683                           
   684  0070                     ?_SaveTemp:	
   685                           ; 1 bytes @ 0x0
   686                           
   687  0070                     ?_FetchTemp:	
   688                           ; 1 bytes @ 0x0
   689                           
   690  0070                     ?_TempDisplay:	
   691                           ; 1 bytes @ 0x0
   692                           
   693  0070                     ?_CurrentTempDisplay:	
   694                           ; 1 bytes @ 0x0
   695                           
   696  0070                     ?_AverageTemp:	
   697                           ; 1 bytes @ 0x0
   698                           
   699  0070                     ?_TempSensor:	
   700                           ; 1 bytes @ 0x0
   701                           
   702  0070                     ?_SettingMode:	
   703                           ; 1 bytes @ 0x0
   704                           
   705  0070                     ?_ISR:	
   706                           ; 1 bytes @ 0x0
   707                           
   708  0070                     ?_main:	
   709                           ; 1 bytes @ 0x0
   710                           
   711  0070                     ?i1_HeatingCoolingElement:	
   712                           ; 1 bytes @ 0x0
   713                           
   714  0070                     ??i1_HeatingCoolingElement:	
   715                           ; 1 bytes @ 0x0
   716                           
   717  0070                     ?__Umul8_16:	
   718                           ; 1 bytes @ 0x0
   719                           
   720  0070                     ?_ADC_Read:	
   721                           ; 2 bytes @ 0x0
   722                           
   723  0070                     ?___fladd:	
   724                           ; 2 bytes @ 0x0
   725                           
   726  0070                     ?___xxtofl:	
   727                           ; 4 bytes @ 0x0
   728                           
   729  0070                     __Umul8_16@multiplicand:	
   730                           ; 4 bytes @ 0x0
   731                           
   732  0070                     ___fladd@b:	
   733                           ; 1 bytes @ 0x0
   734                           
   735  0070                     ___xxtofl@val:	
   736                           ; 4 bytes @ 0x0
   737                           
   738                           
   739                           ; 4 bytes @ 0x0
   740  0070                     	ds	2
   741  0072                     ??__Umul8_16:
   742  0072                     ??_ADC_Read:	
   743                           ; 1 bytes @ 0x2
   744                           
   745                           
   746                           ; 1 bytes @ 0x2
   747  0072                     	ds	2
   748  0074                     ??___xxtofl:
   749  0074                     __Umul8_16@product:	
   750                           ; 1 bytes @ 0x4
   751                           
   752  0074                     ___fladd@a:	
   753                           ; 2 bytes @ 0x4
   754                           
   755                           
   756                           ; 4 bytes @ 0x4
   757  0074                     	ds	2
   758  0076                     __Umul8_16@word_mpld:
   759                           
   760                           ; 2 bytes @ 0x6
   761  0076                     	ds	2
   762  0078                     ___fladd@signs:
   763  0078                     __Umul8_16@multiplier:	
   764                           ; 1 bytes @ 0x8
   765                           
   766  0078                     ___xxtofl@sign:	
   767                           ; 1 bytes @ 0x8
   768                           
   769                           
   770                           ; 1 bytes @ 0x8
   771  0078                     	ds	1
   772  0079                     ___fladd@aexp:
   773  0079                     ___xxtofl@exp:	
   774                           ; 1 bytes @ 0x9
   775                           
   776                           
   777                           ; 1 bytes @ 0x9
   778  0079                     	ds	1
   779  007A                     ___fladd@bexp:
   780  007A                     ___xxtofl@arg:	
   781                           ; 1 bytes @ 0xA
   782                           
   783                           
   784                           ; 4 bytes @ 0xA
   785  007A                     	ds	1
   786  007B                     ___fladd@grs:
   787                           
   788                           ; 1 bytes @ 0xB
   789  007B                     	ds	3
   790  007E                     ??_TempSensor:
   791                           
   792                           	psect	cstackBANK0
   793  0020                     __pcstackBANK0:	
   794                           ; 1 bytes @ 0xE
   795                           
   796  0020                     ??___fladd:
   797  0020                     ?___flmul:	
   798                           ; 1 bytes @ 0x0
   799                           
   800  0020                     ___flmul@b:	
   801                           ; 4 bytes @ 0x0
   802                           
   803                           
   804                           ; 4 bytes @ 0x0
   805  0020                     	ds	4
   806  0024                     ___flmul@a:
   807                           
   808                           ; 4 bytes @ 0x4
   809  0024                     	ds	4
   810  0028                     ??___flmul:
   811                           
   812                           ; 1 bytes @ 0x8
   813  0028                     	ds	5
   814  002D                     ___flmul@sign:
   815                           
   816                           ; 1 bytes @ 0xD
   817  002D                     	ds	1
   818  002E                     ___flmul@grs:
   819                           
   820                           ; 4 bytes @ 0xE
   821  002E                     	ds	4
   822  0032                     ___flmul@aexp:
   823                           
   824                           ; 1 bytes @ 0x12
   825  0032                     	ds	1
   826  0033                     ___flmul@bexp:
   827                           
   828                           ; 1 bytes @ 0x13
   829  0033                     	ds	1
   830  0034                     ___flmul@prod:
   831                           
   832                           ; 4 bytes @ 0x14
   833  0034                     	ds	4
   834  0038                     ___flmul@temp:
   835                           
   836                           ; 2 bytes @ 0x18
   837  0038                     	ds	2
   838  003A                     ?___fldiv:
   839  003A                     ___fldiv@a:	
   840                           ; 4 bytes @ 0x1A
   841                           
   842                           
   843                           ; 4 bytes @ 0x1A
   844  003A                     	ds	4
   845  003E                     ___fldiv@b:
   846                           
   847                           ; 4 bytes @ 0x1E
   848  003E                     	ds	4
   849  0042                     ??___fldiv:
   850                           
   851                           ; 1 bytes @ 0x22
   852  0042                     	ds	5
   853  0047                     ___fldiv@rem:
   854                           
   855                           ; 4 bytes @ 0x27
   856  0047                     	ds	4
   857  004B                     ___fldiv@sign:
   858                           
   859                           ; 1 bytes @ 0x2B
   860  004B                     	ds	1
   861  004C                     ___fldiv@new_exp:
   862                           
   863                           ; 2 bytes @ 0x2C
   864  004C                     	ds	2
   865  004E                     ___fldiv@grs:
   866                           
   867                           ; 4 bytes @ 0x2E
   868  004E                     	ds	4
   869  0052                     ___fldiv@bexp:
   870                           
   871                           ; 1 bytes @ 0x32
   872  0052                     	ds	1
   873  0053                     ___fldiv@aexp:
   874                           
   875                           ; 1 bytes @ 0x33
   876  0053                     	ds	1
   877  0054                     ?___fltol:
   878  0054                     ___fltol@f1:	
   879                           ; 4 bytes @ 0x34
   880                           
   881                           
   882                           ; 4 bytes @ 0x34
   883  0054                     	ds	4
   884  0058                     ??___fltol:
   885                           
   886                           ; 1 bytes @ 0x38
   887  0058                     	ds	4
   888  005C                     ___fltol@sign1:
   889                           
   890                           ; 1 bytes @ 0x3C
   891  005C                     	ds	1
   892  005D                     ___fltol@exp1:
   893                           
   894                           ; 1 bytes @ 0x3D
   895  005D                     	ds	1
   896  005E                     ??_AverageTemp:
   897                           
   898                           ; 1 bytes @ 0x3E
   899  005E                     	ds	3
   900  0061                     AverageTemp@j:
   901                           
   902                           ; 2 bytes @ 0x41
   903  0061                     	ds	2
   904  0063                     AverageTemp@reading:
   905                           
   906                           ; 4 bytes @ 0x43
   907  0063                     	ds	4
   908  0067                     AverageTemp@j_293:
   909                           
   910                           ; 2 bytes @ 0x47
   911  0067                     	ds	2
   912  0069                     AverageTemp@j_294:
   913                           
   914                           ; 2 bytes @ 0x49
   915  0069                     	ds	2
   916  006B                     AverageTemp@tmp:
   917                           
   918                           ; 4 bytes @ 0x4B
   919  006B                     	ds	4
   920                           
   921                           	psect	maintext
   922  1629                     __pmaintext:	
   923 ;;
   924 ;;Main: autosize = 0, tempsize = 0, incstack = 0, save=0
   925 ;;
   926 ;; *************** function _main *****************
   927 ;; Defined at:
   928 ;;		line 3 in file "main.c"
   929 ;; Parameters:    Size  Location     Type
   930 ;;		None
   931 ;; Auto vars:     Size  Location     Type
   932 ;;		None
   933 ;; Return value:  Size  Location     Type
   934 ;;                  1    wreg      void 
   935 ;; Registers used:
   936 ;;		wreg, fsr0l, fsr0h, status,2, status,0, btemp+1, pclath, cstack
   937 ;; Tracked objects:
   938 ;;		On entry : B00/0
   939 ;;		On exit  : 0/0
   940 ;;		Unchanged: 0/0
   941 ;; Data sizes:     COMMON   BANK0   BANK1   BANK3   BANK2
   942 ;;      Params:         0       0       0       0       0
   943 ;;      Locals:         0       0       0       0       0
   944 ;;      Temps:          0       0       0       0       0
   945 ;;      Totals:         0       0       0       0       0
   946 ;;Total ram usage:        0 bytes
   947 ;; Hardware stack levels required when called:   10
   948 ;; This function calls:
   949 ;;		_CurrentTempDisplay
   950 ;;		_SettingMode
   951 ;;		_SysInit
   952 ;; This function is called by:
   953 ;;		Startup code after reset
   954 ;; This function uses a non-reentrant model
   955 ;;
   956                           
   957                           
   958                           ;psect for function _main
   959  1629                     _main:
   960  1629                     l3076:	
   961                           ;incstack = 0
   962 ;; hardware stack exceeded
   963                           ; Regs used in _main: [wreg-fsr0h+status,2+status,0+btemp+1+pclath+cstack]
   964                           
   965                           
   966                           ;main.c: 4:     SysInit();
   967  1629  160A  118A  2669  160A  118A  	fcall	_SysInit
   968  162E                     l3078:
   969                           
   970                           ;main.c: 6:         CurrentTempDisplay();
   971  162E  120A  158A  2204  160A  118A  	fcall	_CurrentTempDisplay
   972  1633                     l3080:
   973                           
   974                           ;main.c: 7:         if(PORTBbits.RB4 == 0 || PORTBbits.RB5 == 0){
   975  1633  1283               	bcf	3,5	;RP0=0, select bank0
   976  1634  1303               	bcf	3,6	;RP1=0, select bank0
   977  1635  1E06               	btfss	6,4	;volatile
   978  1636  2E38               	goto	u4091
   979  1637  2E39               	goto	u4090
   980  1638                     u4091:
   981  1638  2E3D               	goto	l3084
   982  1639                     u4090:
   983  1639                     l3082:
   984  1639  1A86               	btfsc	6,5	;volatile
   985  163A  2E3C               	goto	u4101
   986  163B  2E3D               	goto	u4100
   987  163C                     u4101:
   988  163C  2E2E               	goto	l3078
   989  163D                     u4100:
   990  163D                     l3084:
   991                           
   992                           ;main.c: 8:             SettingMode();
   993  163D  120A  158A  2270  160A  118A  	fcall	_SettingMode
   994  1642  2E2E               	goto	l3078
   995  1643  120A  118A  2816   	ljmp	start
   996  1646                     __end_of_main:
   997                           
   998                           	psect	text1
   999  1669                     __ptext1:	
  1000 ;; *************** function _SysInit *****************
  1001 ;; Defined at:
  1002 ;;		line 88 in file "./Init.h"
  1003 ;; Parameters:    Size  Location     Type
  1004 ;;		None
  1005 ;; Auto vars:     Size  Location     Type
  1006 ;;		None
  1007 ;; Return value:  Size  Location     Type
  1008 ;;                  1    wreg      void 
  1009 ;; Registers used:
  1010 ;;		wreg, status,2, status,0, btemp+1, pclath, cstack
  1011 ;; Tracked objects:
  1012 ;;		On entry : 0/0
  1013 ;;		On exit  : 0/0
  1014 ;;		Unchanged: 0/0
  1015 ;; Data sizes:     COMMON   BANK0   BANK1   BANK3   BANK2
  1016 ;;      Params:         0       0       0       0       0
  1017 ;;      Locals:         0       0       0       0       0
  1018 ;;      Temps:          0       0       0       0       0
  1019 ;;      Totals:         0       0       0       0       0
  1020 ;;Total ram usage:        0 bytes
  1021 ;; Hardware stack levels used:    1
  1022 ;; Hardware stack levels required when called:    5
  1023 ;; This function calls:
  1024 ;;		_ButtonsInit
  1025 ;;		_ElementInit
  1026 ;;		_LEDInit
  1027 ;;		_OnOff_Int_Init
  1028 ;;		_SevenSegInit
  1029 ;;		_Timer1Init
  1030 ;;		_Timer2Init
  1031 ;; This function is called by:
  1032 ;;		_main
  1033 ;; This function uses a non-reentrant model
  1034 ;;
  1035                           
  1036                           
  1037                           ;psect for function _SysInit
  1038  1669                     _SysInit:
  1039  1669                     l2950:	
  1040                           ;incstack = 0
  1041                           ; Regs used in _SysInit: [wreg+status,2+status,0+btemp+1+pclath+cstack]
  1042                           
  1043                           
  1044                           ;./Init.h: 89:     ButtonsInit();
  1045  1669  160A  118A  2541  160A  118A  	fcall	_ButtonsInit
  1046                           
  1047                           ;./Init.h: 90:     LEDInit();
  1048  166E  120A  158A  2000  160A  118A  	fcall	_LEDInit
  1049  1673                     l2952:
  1050                           
  1051                           ;./Init.h: 91:     SevenSegInit();
  1052  1673  160A  118A  25E3  160A  118A  	fcall	_SevenSegInit
  1053  1678                     l2954:
  1054                           
  1055                           ;./Init.h: 92:     ElementInit();
  1056  1678  160A  118A  257B  160A  118A  	fcall	_ElementInit
  1057                           
  1058                           ;./Init.h: 93:     Timer1Init();
  1059  167D  160A  118A  25AB  160A  118A  	fcall	_Timer1Init
  1060                           
  1061                           ;./Init.h: 94:     Timer2Init();
  1062  1682  120A  118A  27F0  160A  118A  	fcall	_Timer2Init
  1063  1687                     l2956:
  1064                           
  1065                           ;./Init.h: 95:     OnOff_Int_Init();
  1066  1687  160A  118A  2547  160A  118A  	fcall	_OnOff_Int_Init
  1067  168C                     l199:
  1068  168C  0008               	return
  1069  168D                     __end_of_SysInit:
  1070                           
  1071                           	psect	text2
  1072  07F0                     __ptext2:	
  1073 ;; *************** function _Timer2Init *****************
  1074 ;; Defined at:
  1075 ;;		line 76 in file "./Init.h"
  1076 ;; Parameters:    Size  Location     Type
  1077 ;;		None
  1078 ;; Auto vars:     Size  Location     Type
  1079 ;;		None
  1080 ;; Return value:  Size  Location     Type
  1081 ;;                  1    wreg      void 
  1082 ;; Registers used:
  1083 ;;		wreg
  1084 ;; Tracked objects:
  1085 ;;		On entry : 0/0
  1086 ;;		On exit  : 0/0
  1087 ;;		Unchanged: 0/0
  1088 ;; Data sizes:     COMMON   BANK0   BANK1   BANK3   BANK2
  1089 ;;      Params:         0       0       0       0       0
  1090 ;;      Locals:         0       0       0       0       0
  1091 ;;      Temps:          0       0       0       0       0
  1092 ;;      Totals:         0       0       0       0       0
  1093 ;;Total ram usage:        0 bytes
  1094 ;; Hardware stack levels used:    1
  1095 ;; Hardware stack levels required when called:    4
  1096 ;; This function calls:
  1097 ;;		Nothing
  1098 ;; This function is called by:
  1099 ;;		_SysInit
  1100 ;; This function uses a non-reentrant model
  1101 ;;
  1102                           
  1103                           
  1104                           ;psect for function _Timer2Init
  1105  07F0                     _Timer2Init:
  1106  07F0                     l2652:	
  1107                           ;incstack = 0
  1108                           ; Regs used in _Timer2Init: [wreg]
  1109                           
  1110                           
  1111                           ;./Init.h: 77:     T2CON = (1<<1);
  1112  07F0  3002               	movlw	2
  1113  07F1  1283               	bcf	3,5	;RP0=0, select bank0
  1114  07F2  1303               	bcf	3,6	;RP1=0, select bank0
  1115  07F3  0092               	movwf	18	;volatile
  1116                           
  1117                           ;./Init.h: 78:     TMR2=100;
  1118  07F4  3064               	movlw	100
  1119  07F5  0091               	movwf	17	;volatile
  1120  07F6                     l2654:
  1121                           
  1122                           ;./Init.h: 79:     TMR2IE=1;
  1123  07F6  1683               	bsf	3,5	;RP0=1, select bank1
  1124  07F7  1303               	bcf	3,6	;RP1=0, select bank1
  1125  07F8  148C               	bsf	12,1	;volatile
  1126  07F9                     l2656:
  1127                           
  1128                           ;./Init.h: 80:     GIE=1;
  1129  07F9  178B               	bsf	11,7	;volatile
  1130  07FA                     l2658:
  1131                           
  1132                           ;./Init.h: 81:     PEIE=1;
  1133  07FA  170B               	bsf	11,6	;volatile
  1134  07FB                     l2660:
  1135                           
  1136                           ;./Init.h: 82:     TMR2ON = 1;
  1137  07FB  1283               	bcf	3,5	;RP0=0, select bank0
  1138  07FC  1303               	bcf	3,6	;RP1=0, select bank0
  1139  07FD  1512               	bsf	18,2	;volatile
  1140  07FE                     l193:
  1141  07FE  0008               	return
  1142  07FF                     __end_of_Timer2Init:
  1143                           
  1144                           	psect	text3
  1145  15AB                     __ptext3:	
  1146 ;; *************** function _Timer1Init *****************
  1147 ;; Defined at:
  1148 ;;		line 67 in file "./Init.h"
  1149 ;; Parameters:    Size  Location     Type
  1150 ;;		None
  1151 ;; Auto vars:     Size  Location     Type
  1152 ;;		None
  1153 ;; Return value:  Size  Location     Type
  1154 ;;                  1    wreg      void 
  1155 ;; Registers used:
  1156 ;;		wreg
  1157 ;; Tracked objects:
  1158 ;;		On entry : 0/0
  1159 ;;		On exit  : 0/0
  1160 ;;		Unchanged: 0/0
  1161 ;; Data sizes:     COMMON   BANK0   BANK1   BANK3   BANK2
  1162 ;;      Params:         0       0       0       0       0
  1163 ;;      Locals:         0       0       0       0       0
  1164 ;;      Temps:          0       0       0       0       0
  1165 ;;      Totals:         0       0       0       0       0
  1166 ;;Total ram usage:        0 bytes
  1167 ;; Hardware stack levels used:    1
  1168 ;; Hardware stack levels required when called:    4
  1169 ;; This function calls:
  1170 ;;		Nothing
  1171 ;; This function is called by:
  1172 ;;		_SysInit
  1173 ;; This function uses a non-reentrant model
  1174 ;;
  1175                           
  1176                           
  1177                           ;psect for function _Timer1Init
  1178  15AB                     _Timer1Init:
  1179  15AB                     l2642:	
  1180                           ;incstack = 0
  1181                           ; Regs used in _Timer1Init: [wreg]
  1182                           
  1183                           
  1184                           ;./Init.h: 68:     T1CON = (1<<5) | (1<<4);
  1185  15AB  3030               	movlw	48
  1186  15AC  1283               	bcf	3,5	;RP0=0, select bank0
  1187  15AD  1303               	bcf	3,6	;RP1=0, select bank0
  1188  15AE  0090               	movwf	16	;volatile
  1189                           
  1190                           ;./Init.h: 69:     TMR1H=0x0B;
  1191  15AF  300B               	movlw	11
  1192  15B0  008F               	movwf	15	;volatile
  1193                           
  1194                           ;./Init.h: 70:     TMR1L=0xDC;
  1195  15B1  30DC               	movlw	220
  1196  15B2  008E               	movwf	14	;volatile
  1197  15B3                     l2644:
  1198                           
  1199                           ;./Init.h: 71:     TMR1IE=1;
  1200  15B3  1683               	bsf	3,5	;RP0=1, select bank1
  1201  15B4  1303               	bcf	3,6	;RP1=0, select bank1
  1202  15B5  140C               	bsf	12,0	;volatile
  1203  15B6                     l2646:
  1204                           
  1205                           ;./Init.h: 72:     GIE=1;
  1206  15B6  178B               	bsf	11,7	;volatile
  1207  15B7                     l2648:
  1208                           
  1209                           ;./Init.h: 73:     PEIE=1;
  1210  15B7  170B               	bsf	11,6	;volatile
  1211  15B8                     l2650:
  1212                           
  1213                           ;./Init.h: 74:     TMR1ON = 1;
  1214  15B8  1283               	bcf	3,5	;RP0=0, select bank0
  1215  15B9  1303               	bcf	3,6	;RP1=0, select bank0
  1216  15BA  1410               	bsf	16,0	;volatile
  1217  15BB                     l190:
  1218  15BB  0008               	return
  1219  15BC                     __end_of_Timer1Init:
  1220                           
  1221                           	psect	text4
  1222  15E3                     __ptext4:	
  1223 ;; *************** function _SevenSegInit *****************
  1224 ;; Defined at:
  1225 ;;		line 48 in file "./Init.h"
  1226 ;; Parameters:    Size  Location     Type
  1227 ;;		None
  1228 ;; Auto vars:     Size  Location     Type
  1229 ;;		None
  1230 ;; Return value:  Size  Location     Type
  1231 ;;                  1    wreg      void 
  1232 ;; Registers used:
  1233 ;;		wreg, status,2
  1234 ;; Tracked objects:
  1235 ;;		On entry : 0/0
  1236 ;;		On exit  : 0/0
  1237 ;;		Unchanged: 0/0
  1238 ;; Data sizes:     COMMON   BANK0   BANK1   BANK3   BANK2
  1239 ;;      Params:         0       0       0       0       0
  1240 ;;      Locals:         0       0       0       0       0
  1241 ;;      Temps:          0       0       0       0       0
  1242 ;;      Totals:         0       0       0       0       0
  1243 ;;Total ram usage:        0 bytes
  1244 ;; Hardware stack levels used:    1
  1245 ;; Hardware stack levels required when called:    4
  1246 ;; This function calls:
  1247 ;;		Nothing
  1248 ;; This function is called by:
  1249 ;;		_SysInit
  1250 ;; This function uses a non-reentrant model
  1251 ;;
  1252                           
  1253                           
  1254                           ;psect for function _SevenSegInit
  1255  15E3                     _SevenSegInit:
  1256  15E3                     l2626:	
  1257                           ;incstack = 0
  1258                           ; Regs used in _SevenSegInit: [wreg+status,2]
  1259                           
  1260                           
  1261                           ;./Init.h: 49:     ADCON1 = 6;
  1262  15E3  3006               	movlw	6
  1263  15E4  1683               	bsf	3,5	;RP0=1, select bank1
  1264  15E5  1303               	bcf	3,6	;RP1=0, select bank1
  1265  15E6  009F               	movwf	31	;volatile
  1266  15E7                     l2628:
  1267                           
  1268                           ;./Init.h: 50:     PORTAbits.RA4 = 0;
  1269  15E7  1283               	bcf	3,5	;RP0=0, select bank0
  1270  15E8  1303               	bcf	3,6	;RP1=0, select bank0
  1271  15E9  1205               	bcf	5,4	;volatile
  1272  15EA                     l2630:
  1273                           
  1274                           ;./Init.h: 51:     TRISA4 = 0;
  1275  15EA  1683               	bsf	3,5	;RP0=1, select bank1
  1276  15EB  1303               	bcf	3,6	;RP1=0, select bank1
  1277  15EC  1205               	bcf	5,4	;volatile
  1278  15ED                     l2632:
  1279                           
  1280                           ;./Init.h: 52:     PORTAbits.RA5 = 0;
  1281  15ED  1283               	bcf	3,5	;RP0=0, select bank0
  1282  15EE  1303               	bcf	3,6	;RP1=0, select bank0
  1283  15EF  1285               	bcf	5,5	;volatile
  1284  15F0                     l2634:
  1285                           
  1286                           ;./Init.h: 53:     TRISA5 = 0;
  1287  15F0  1683               	bsf	3,5	;RP0=1, select bank1
  1288  15F1  1303               	bcf	3,6	;RP1=0, select bank1
  1289  15F2  1285               	bcf	5,5	;volatile
  1290  15F3                     l2636:
  1291                           
  1292                           ;./Init.h: 54:     TRISD = 0;
  1293  15F3  0188               	clrf	8	;volatile
  1294  15F4                     l2638:
  1295                           
  1296                           ;./Init.h: 55:     PORTD = 255;
  1297  15F4  30FF               	movlw	255
  1298  15F5  1283               	bcf	3,5	;RP0=0, select bank0
  1299  15F6  1303               	bcf	3,6	;RP1=0, select bank0
  1300  15F7  0088               	movwf	8	;volatile
  1301  15F8                     l181:
  1302  15F8  0008               	return
  1303  15F9                     __end_of_SevenSegInit:
  1304                           
  1305                           	psect	text5
  1306  1547                     __ptext5:	
  1307 ;; *************** function _OnOff_Int_Init *****************
  1308 ;; Defined at:
  1309 ;;		line 84 in file "./Init.h"
  1310 ;; Parameters:    Size  Location     Type
  1311 ;;		None
  1312 ;; Auto vars:     Size  Location     Type
  1313 ;;		None
  1314 ;; Return value:  Size  Location     Type
  1315 ;;                  1    wreg      void 
  1316 ;; Registers used:
  1317 ;;		wreg, status,2, status,0, btemp+1
  1318 ;; Tracked objects:
  1319 ;;		On entry : 0/0
  1320 ;;		On exit  : 0/0
  1321 ;;		Unchanged: 0/0
  1322 ;; Data sizes:     COMMON   BANK0   BANK1   BANK3   BANK2
  1323 ;;      Params:         0       0       0       0       0
  1324 ;;      Locals:         0       0       0       0       0
  1325 ;;      Temps:          0       0       0       0       0
  1326 ;;      Totals:         0       0       0       0       0
  1327 ;;Total ram usage:        0 bytes
  1328 ;; Hardware stack levels used:    1
  1329 ;; Hardware stack levels required when called:    4
  1330 ;; This function calls:
  1331 ;;		Nothing
  1332 ;; This function is called by:
  1333 ;;		_SysInit
  1334 ;; This function uses a non-reentrant model
  1335 ;;
  1336                           
  1337                           
  1338                           ;psect for function _OnOff_Int_Init
  1339  1547                     _OnOff_Int_Init:
  1340  1547                     l2662:	
  1341                           ;incstack = 0
  1342                           ; Regs used in _OnOff_Int_Init: [wreg+status,2+status,0+btemp+1]
  1343                           
  1344                           
  1345                           ;./Init.h: 85:     OPTION_REG = 0x00;
  1346  1547  1683               	bsf	3,5	;RP0=1, select bank1
  1347  1548  1303               	bcf	3,6	;RP1=0, select bank1
  1348  1549  0181               	clrf	1	;volatile
  1349  154A                     l2664:
  1350                           
  1351                           ;./Init.h: 86:     INTCON |= 0xd0;
  1352  154A  30D0               	movlw	208
  1353  154B  00FF               	movwf	btemp+1
  1354  154C  087F               	movf	btemp+1,w
  1355  154D  048B               	iorwf	11,f	;volatile
  1356  154E                     l196:
  1357  154E  0008               	return
  1358  154F                     __end_of_OnOff_Int_Init:
  1359                           
  1360                           	psect	text6
  1361  0800                     __ptext6:	
  1362 ;; *************** function _LEDInit *****************
  1363 ;; Defined at:
  1364 ;;		line 45 in file "./Init.h"
  1365 ;; Parameters:    Size  Location     Type
  1366 ;;		None
  1367 ;; Auto vars:     Size  Location     Type
  1368 ;;		None
  1369 ;; Return value:  Size  Location     Type
  1370 ;;                  1    wreg      void 
  1371 ;; Registers used:
  1372 ;;		None
  1373 ;; Tracked objects:
  1374 ;;		On entry : 0/0
  1375 ;;		On exit  : 0/0
  1376 ;;		Unchanged: 0/0
  1377 ;; Data sizes:     COMMON   BANK0   BANK1   BANK3   BANK2
  1378 ;;      Params:         0       0       0       0       0
  1379 ;;      Locals:         0       0       0       0       0
  1380 ;;      Temps:          0       0       0       0       0
  1381 ;;      Totals:         0       0       0       0       0
  1382 ;;Total ram usage:        0 bytes
  1383 ;; Hardware stack levels used:    1
  1384 ;; Hardware stack levels required when called:    4
  1385 ;; This function calls:
  1386 ;;		Nothing
  1387 ;; This function is called by:
  1388 ;;		_SysInit
  1389 ;; This function uses a non-reentrant model
  1390 ;;
  1391                           
  1392                           
  1393                           ;psect for function _LEDInit
  1394  0800                     _LEDInit:
  1395  0800                     l2624:	
  1396                           ;incstack = 0
  1397                           ; Regs used in _LEDInit: []
  1398                           
  1399                           
  1400                           ;./Init.h: 46:     TRISB1 = 0x00;
  1401  0800  1683               	bsf	3,5	;RP0=1, select bank1
  1402  0801  1303               	bcf	3,6	;RP1=0, select bank1
  1403  0802  1086               	bcf	6,1	;volatile
  1404  0803                     l178:
  1405  0803  0008               	return
  1406  0804                     __end_of_LEDInit:
  1407                           
  1408                           	psect	text7
  1409  157B                     __ptext7:	
  1410 ;; *************** function _ElementInit *****************
  1411 ;; Defined at:
  1412 ;;		line 61 in file "./Init.h"
  1413 ;; Parameters:    Size  Location     Type
  1414 ;;		None
  1415 ;; Auto vars:     Size  Location     Type
  1416 ;;		None
  1417 ;; Return value:  Size  Location     Type
  1418 ;;                  1    wreg      void 
  1419 ;; Registers used:
  1420 ;;		None
  1421 ;; Tracked objects:
  1422 ;;		On entry : 0/0
  1423 ;;		On exit  : 0/0
  1424 ;;		Unchanged: 0/0
  1425 ;; Data sizes:     COMMON   BANK0   BANK1   BANK3   BANK2
  1426 ;;      Params:         0       0       0       0       0
  1427 ;;      Locals:         0       0       0       0       0
  1428 ;;      Temps:          0       0       0       0       0
  1429 ;;      Totals:         0       0       0       0       0
  1430 ;;Total ram usage:        0 bytes
  1431 ;; Hardware stack levels used:    1
  1432 ;; Hardware stack levels required when called:    4
  1433 ;; This function calls:
  1434 ;;		Nothing
  1435 ;; This function is called by:
  1436 ;;		_SysInit
  1437 ;; This function uses a non-reentrant model
  1438 ;;
  1439                           
  1440                           
  1441                           ;psect for function _ElementInit
  1442  157B                     _ElementInit:
  1443  157B                     l2640:	
  1444                           ;incstack = 0
  1445                           ; Regs used in _ElementInit: []
  1446                           
  1447                           
  1448                           ;./Init.h: 62:     TRISC5 = 0x00;
  1449  157B  1683               	bsf	3,5	;RP0=1, select bank1
  1450  157C  1303               	bcf	3,6	;RP1=0, select bank1
  1451  157D  1287               	bcf	7,5	;volatile
  1452                           
  1453                           ;./Init.h: 63:     TRISC2 = 0x00;
  1454  157E  1107               	bcf	7,2	;volatile
  1455                           
  1456                           ;./Init.h: 64:     PORTCbits.RC5 = 0;
  1457  157F  1283               	bcf	3,5	;RP0=0, select bank0
  1458  1580  1303               	bcf	3,6	;RP1=0, select bank0
  1459  1581  1287               	bcf	7,5	;volatile
  1460                           
  1461                           ;./Init.h: 65:     PORTCbits.RC2 = 0;
  1462  1582  1107               	bcf	7,2	;volatile
  1463  1583                     l187:
  1464  1583  0008               	return
  1465  1584                     __end_of_ElementInit:
  1466                           
  1467                           	psect	text8
  1468  1541                     __ptext8:	
  1469 ;; *************** function _ButtonsInit *****************
  1470 ;; Defined at:
  1471 ;;		line 40 in file "./Init.h"
  1472 ;; Parameters:    Size  Location     Type
  1473 ;;		None
  1474 ;; Auto vars:     Size  Location     Type
  1475 ;;		None
  1476 ;; Return value:  Size  Location     Type
  1477 ;;                  1    wreg      void 
  1478 ;; Registers used:
  1479 ;;		None
  1480 ;; Tracked objects:
  1481 ;;		On entry : 0/0
  1482 ;;		On exit  : 0/0
  1483 ;;		Unchanged: 0/0
  1484 ;; Data sizes:     COMMON   BANK0   BANK1   BANK3   BANK2
  1485 ;;      Params:         0       0       0       0       0
  1486 ;;      Locals:         0       0       0       0       0
  1487 ;;      Temps:          0       0       0       0       0
  1488 ;;      Totals:         0       0       0       0       0
  1489 ;;Total ram usage:        0 bytes
  1490 ;; Hardware stack levels used:    1
  1491 ;; Hardware stack levels required when called:    4
  1492 ;; This function calls:
  1493 ;;		Nothing
  1494 ;; This function is called by:
  1495 ;;		_SysInit
  1496 ;; This function uses a non-reentrant model
  1497 ;;
  1498                           
  1499                           
  1500                           ;psect for function _ButtonsInit
  1501  1541                     _ButtonsInit:
  1502  1541                     l2622:	
  1503                           ;incstack = 0
  1504                           ; Regs used in _ButtonsInit: []
  1505                           
  1506                           
  1507                           ;./Init.h: 41:     TRISB0 = 0x01;
  1508  1541  1683               	bsf	3,5	;RP0=1, select bank1
  1509  1542  1303               	bcf	3,6	;RP1=0, select bank1
  1510  1543  1406               	bsf	6,0	;volatile
  1511                           
  1512                           ;./Init.h: 42:     TRISB4 = 0x01;
  1513  1544  1606               	bsf	6,4	;volatile
  1514                           
  1515                           ;./Init.h: 43:     TRISB5 = 0x01;
  1516  1545  1686               	bsf	6,5	;volatile
  1517  1546                     l175:
  1518  1546  0008               	return
  1519  1547                     __end_of_ButtonsInit:
  1520                           
  1521                           	psect	text9
  1522  0A70                     __ptext9:	
  1523 ;; *************** function _SettingMode *****************
  1524 ;; Defined at:
  1525 ;;		line 116 in file "./Temperature.h"
  1526 ;; Parameters:    Size  Location     Type
  1527 ;;		None
  1528 ;; Auto vars:     Size  Location     Type
  1529 ;;  z               2   35[BANK1 ] int 
  1530 ;;  k               2   39[BANK1 ] int 
  1531 ;;  y               2   37[BANK1 ] int 
  1532 ;; Return value:  Size  Location     Type
  1533 ;;                  1    wreg      void 
  1534 ;; Registers used:
  1535 ;;		wreg, fsr0l, fsr0h, status,2, status,0, btemp+1, pclath, cstack
  1536 ;; Tracked objects:
  1537 ;;		On entry : 0/0
  1538 ;;		On exit  : 0/0
  1539 ;;		Unchanged: 0/0
  1540 ;; Data sizes:     COMMON   BANK0   BANK1   BANK3   BANK2
  1541 ;;      Params:         0       0       0       0       0
  1542 ;;      Locals:         0       0       6       0       0
  1543 ;;      Temps:          0       0       3       0       0
  1544 ;;      Totals:         0       0       9       0       0
  1545 ;;Total ram usage:        9 bytes
  1546 ;; Hardware stack levels used:    1
  1547 ;; Hardware stack levels required when called:    9
  1548 ;; This function calls:
  1549 ;;		_HeatingCoolingElement
  1550 ;;		_TempDisplay
  1551 ;;		_TempSet
  1552 ;; This function is called by:
  1553 ;;		_main
  1554 ;; This function uses a non-reentrant model
  1555 ;;
  1556                           
  1557                           
  1558                           ;psect for function _SettingMode
  1559  0A70                     _SettingMode:
  1560  0A70                     l2982:	
  1561                           ;incstack = 0
  1562 ;; hardware stack exceeded
  1563                           ; Regs used in _SettingMode: [wreg-fsr0h+status,2+status,0+btemp+1+pclath+cstack]
  1564                           
  1565                           
  1566                           ;./Temperature.h: 117:     TempDisplay();
  1567  0A70  120A  118A  26EC  120A  158A  	fcall	_TempDisplay
  1568  0A75                     l2984:
  1569                           
  1570                           ;./Temperature.h: 118:     _delay((unsigned long)((10)*(20000000/4000.0)));
  1571  0A75  3041               	movlw	65
  1572  0A76  1683               	bsf	3,5	;RP0=1, select bank1
  1573  0A77  1303               	bcf	3,6	;RP1=0, select bank1
  1574  0A78  00C1               	movwf	(??_SettingMode^(0+128)+1)
  1575  0A79  30ED               	movlw	237
  1576  0A7A  00C0               	movwf	??_SettingMode^(0+128)
  1577  0A7B                     u4117:
  1578  0A7B  0BC0               	decfsz	??_SettingMode^(0+128),f
  1579  0A7C  2A7B               	goto	u4117
  1580  0A7D  0BC1               	decfsz	(??_SettingMode^(0+128)+1),f
  1581  0A7E  2A7B               	goto	u4117
  1582  0A7F  2A80               	nop2
  1583  0A80                     l2986:
  1584                           
  1585                           ;./Temperature.h: 119:     int y = 0;
  1586  0A80  1683               	bsf	3,5	;RP0=1, select bank1
  1587  0A81  1303               	bcf	3,6	;RP1=0, select bank1
  1588  0A82  01C5               	clrf	SettingMode@y^(0+128)
  1589  0A83  01C6               	clrf	(SettingMode@y+1)^(0+128)
  1590                           
  1591                           ;./Temperature.h: 121:     while(y<5){
  1592  0A84  2ACE               	goto	l3012
  1593  0A85                     l2988:
  1594                           
  1595                           ;./Temperature.h: 122:         for(int k= 0;k<100;k++ ){
  1596  0A85  1683               	bsf	3,5	;RP0=1, select bank1
  1597  0A86  1303               	bcf	3,6	;RP1=0, select bank1
  1598  0A87  01C7               	clrf	SettingMode@k^(0+128)
  1599  0A88  01C8               	clrf	(SettingMode@k+1)^(0+128)
  1600  0A89                     l2994:
  1601                           
  1602                           ;./Temperature.h: 123:             TempDisplay();
  1603  0A89  120A  118A  26EC  120A  158A  	fcall	_TempDisplay
  1604  0A8E                     l2996:
  1605                           
  1606                           ;./Temperature.h: 124:             int z = TempSet();
  1607  0A8E  120A  158A  22E1  120A  158A  	fcall	_TempSet
  1608  0A93  1683               	bsf	3,5	;RP0=1, select bank1
  1609  0A94  1303               	bcf	3,6	;RP1=0, select bank1
  1610  0A95  0825               	movf	(?_TempSet+1)^(0+128),w
  1611  0A96  00C4               	movwf	(SettingMode@z+1)^(0+128)
  1612  0A97  0824               	movf	?_TempSet^(0+128),w
  1613  0A98  00C3               	movwf	SettingMode@z^(0+128)
  1614  0A99                     l2998:
  1615                           
  1616                           ;./Temperature.h: 125:             if(z)
  1617  0A99  0843               	movf	SettingMode@z^(0+128),w
  1618  0A9A  0444               	iorwf	(SettingMode@z+1)^(0+128),w
  1619  0A9B  1903               	btfsc	3,2
  1620  0A9C  2A9E               	goto	u4001
  1621  0A9D  2A9F               	goto	u4000
  1622  0A9E                     u4001:
  1623  0A9E  2AA1               	goto	l3002
  1624  0A9F                     u4000:
  1625  0A9F                     l3000:
  1626                           
  1627                           ;./Temperature.h: 126:                 y=0;
  1628  0A9F  01C5               	clrf	SettingMode@y^(0+128)
  1629  0AA0  01C6               	clrf	(SettingMode@y+1)^(0+128)
  1630  0AA1                     l3002:
  1631                           
  1632                           ;./Temperature.h: 127:         }
  1633  0AA1  3001               	movlw	1
  1634  0AA2  07C7               	addwf	SettingMode@k^(0+128),f
  1635  0AA3  1803               	skipnc
  1636  0AA4  0AC8               	incf	(SettingMode@k+1)^(0+128),f
  1637  0AA5  3000               	movlw	0
  1638  0AA6  07C8               	addwf	(SettingMode@k+1)^(0+128),f
  1639  0AA7                     l3004:
  1640  0AA7  0848               	movf	(SettingMode@k+1)^(0+128),w
  1641  0AA8  3A80               	xorlw	128
  1642  0AA9  00FF               	movwf	btemp+1
  1643  0AAA  3080               	movlw	128
  1644  0AAB  027F               	subwf	btemp+1,w
  1645  0AAC  1D03               	skipz
  1646  0AAD  2AB0               	goto	u4015
  1647  0AAE  3064               	movlw	100
  1648  0AAF  0247               	subwf	SettingMode@k^(0+128),w
  1649  0AB0                     u4015:
  1650  0AB0  1C03               	skipc
  1651  0AB1  2AB3               	goto	u4011
  1652  0AB2  2AB4               	goto	u4010
  1653  0AB3                     u4011:
  1654  0AB3  2A89               	goto	l2994
  1655  0AB4                     u4010:
  1656  0AB4                     l3006:
  1657                           
  1658                           ;./Temperature.h: 128:         _delay((unsigned long)((100)*(20000000/4000.0)));
  1659  0AB4  3003               	movlw	3
  1660  0AB5  1683               	bsf	3,5	;RP0=1, select bank1
  1661  0AB6  1303               	bcf	3,6	;RP1=0, select bank1
  1662  0AB7  00C2               	movwf	(??_SettingMode^(0+128)+2)
  1663  0AB8  308A               	movlw	138
  1664  0AB9  00C1               	movwf	(??_SettingMode^(0+128)+1)
  1665  0ABA  3055               	movlw	85
  1666  0ABB  00C0               	movwf	??_SettingMode^(0+128)
  1667  0ABC                     u4127:
  1668  0ABC  0BC0               	decfsz	??_SettingMode^(0+128),f
  1669  0ABD  2ABC               	goto	u4127
  1670  0ABE  0BC1               	decfsz	(??_SettingMode^(0+128)+1),f
  1671  0ABF  2ABC               	goto	u4127
  1672  0AC0  0BC2               	decfsz	(??_SettingMode^(0+128)+2),f
  1673  0AC1  2ABC               	goto	u4127
  1674  0AC2                     l3008:
  1675                           
  1676                           ;./Temperature.h: 129:         RA2 = 0;
  1677  0AC2  1283               	bcf	3,5	;RP0=0, select bank0
  1678  0AC3  1303               	bcf	3,6	;RP1=0, select bank0
  1679  0AC4  1105               	bcf	5,2	;volatile
  1680  0AC5                     l3010:
  1681                           
  1682                           ;./Temperature.h: 130:         RA3 = 0;
  1683  0AC5  1185               	bcf	5,3	;volatile
  1684                           
  1685                           ;./Temperature.h: 131:         y++;
  1686  0AC6  3001               	movlw	1
  1687  0AC7  1683               	bsf	3,5	;RP0=1, select bank1
  1688  0AC8  1303               	bcf	3,6	;RP1=0, select bank1
  1689  0AC9  07C5               	addwf	SettingMode@y^(0+128),f
  1690  0ACA  1803               	skipnc
  1691  0ACB  0AC6               	incf	(SettingMode@y+1)^(0+128),f
  1692  0ACC  3000               	movlw	0
  1693  0ACD  07C6               	addwf	(SettingMode@y+1)^(0+128),f
  1694  0ACE                     l3012:
  1695                           
  1696                           ;./Temperature.h: 121:     while(y<5){
  1697  0ACE  0846               	movf	(SettingMode@y+1)^(0+128),w
  1698  0ACF  3A80               	xorlw	128
  1699  0AD0  00FF               	movwf	btemp+1
  1700  0AD1  3080               	movlw	128
  1701  0AD2  027F               	subwf	btemp+1,w
  1702  0AD3  1D03               	skipz
  1703  0AD4  2AD7               	goto	u4025
  1704  0AD5  3005               	movlw	5
  1705  0AD6  0245               	subwf	SettingMode@y^(0+128),w
  1706  0AD7                     u4025:
  1707  0AD7  1C03               	skipc
  1708  0AD8  2ADA               	goto	u4021
  1709  0AD9  2ADB               	goto	u4020
  1710  0ADA                     u4021:
  1711  0ADA  2A85               	goto	l2988
  1712  0ADB                     u4020:
  1713  0ADB                     l3014:
  1714                           
  1715                           ;./Temperature.h: 133:     HeatingCoolingElement();
  1716  0ADB  120A  158A  2067  120A  158A  	fcall	_HeatingCoolingElement
  1717  0AE0                     l270:
  1718  0AE0  0008               	return
  1719  0AE1                     __end_of_SettingMode:
  1720                           
  1721                           	psect	text10
  1722  0AE1                     __ptext10:	
  1723 ;; *************** function _TempSet *****************
  1724 ;; Defined at:
  1725 ;;		line 64 in file "./Temperature.h"
  1726 ;; Parameters:    Size  Location     Type
  1727 ;;		None
  1728 ;; Auto vars:     Size  Location     Type
  1729 ;;		None
  1730 ;; Return value:  Size  Location     Type
  1731 ;;                  2    4[BANK1 ] int 
  1732 ;; Registers used:
  1733 ;;		wreg, status,2, status,0
  1734 ;; Tracked objects:
  1735 ;;		On entry : 0/0
  1736 ;;		On exit  : 0/0
  1737 ;;		Unchanged: 0/0
  1738 ;; Data sizes:     COMMON   BANK0   BANK1   BANK3   BANK2
  1739 ;;      Params:         0       0       2       0       0
  1740 ;;      Locals:         0       0       0       0       0
  1741 ;;      Temps:          0       0       2       0       0
  1742 ;;      Totals:         0       0       4       0       0
  1743 ;;Total ram usage:        4 bytes
  1744 ;; Hardware stack levels used:    1
  1745 ;; Hardware stack levels required when called:    4
  1746 ;; This function calls:
  1747 ;;		Nothing
  1748 ;; This function is called by:
  1749 ;;		_SettingMode
  1750 ;; This function uses a non-reentrant model
  1751 ;;
  1752                           
  1753                           
  1754                           ;psect for function _TempSet
  1755  0AE1                     _TempSet:
  1756  0AE1                     l2704:	
  1757                           ;incstack = 0
  1758                           ; Regs used in _TempSet: [wreg+status,2+status,0]
  1759                           
  1760                           
  1761                           ;./Temperature.h: 65:     if(PORTBbits.RB4 == 0){
  1762  0AE1  1283               	bcf	3,5	;RP0=0, select bank0
  1763  0AE2  1303               	bcf	3,6	;RP1=0, select bank0
  1764  0AE3  1A06               	btfsc	6,4	;volatile
  1765  0AE4  2AE6               	goto	u3441
  1766  0AE5  2AE7               	goto	u3440
  1767  0AE6                     u3441:
  1768  0AE6  2B24               	goto	l239
  1769  0AE7                     u3440:
  1770  0AE7                     l2706:
  1771                           
  1772                           ;./Temperature.h: 66:         _delay((unsigned long)((5)*(20000000/4000.0)));
  1773  0AE7  3021               	movlw	33
  1774  0AE8  1683               	bsf	3,5	;RP0=1, select bank1
  1775  0AE9  1303               	bcf	3,6	;RP1=0, select bank1
  1776  0AEA  00A7               	movwf	(??_TempSet^(0+128)+1)
  1777  0AEB  3075               	movlw	117
  1778  0AEC  00A6               	movwf	??_TempSet^(0+128)
  1779  0AED                     u4137:
  1780  0AED  0BA6               	decfsz	??_TempSet^(0+128),f
  1781  0AEE  2AED               	goto	u4137
  1782  0AEF  0BA7               	decfsz	(??_TempSet^(0+128)+1),f
  1783  0AF0  2AED               	goto	u4137
  1784  0AF1  2AF2               	nop2
  1785                           
  1786                           ;./Temperature.h: 67:         if(Temp < 75){
  1787  0AF2  3000               	movlw	0
  1788  0AF3  1683               	bsf	3,5	;RP0=1, select bank1
  1789  0AF4  1303               	bcf	3,6	;RP1=0, select bank1
  1790  0AF5  0268               	subwf	(_Temp+1)^(0+128),w
  1791  0AF6  304B               	movlw	75
  1792  0AF7  1903               	skipnz
  1793  0AF8  0267               	subwf	_Temp^(0+128),w
  1794  0AF9  1803               	skipnc
  1795  0AFA  2AFC               	goto	u3451
  1796  0AFB  2AFD               	goto	u3450
  1797  0AFC                     u3451:
  1798  0AFC  2B1D               	goto	l2714
  1799  0AFD                     u3450:
  1800  0AFD                     l2708:
  1801                           
  1802                           ;./Temperature.h: 68:             _delay((unsigned long)((5)*(20000000/4000.0)));
  1803  0AFD  3021               	movlw	33
  1804  0AFE  1683               	bsf	3,5	;RP0=1, select bank1
  1805  0AFF  1303               	bcf	3,6	;RP1=0, select bank1
  1806  0B00  00A7               	movwf	(??_TempSet^(0+128)+1)
  1807  0B01  3075               	movlw	117
  1808  0B02  00A6               	movwf	??_TempSet^(0+128)
  1809  0B03                     u4147:
  1810  0B03  0BA6               	decfsz	??_TempSet^(0+128),f
  1811  0B04  2B03               	goto	u4147
  1812  0B05  0BA7               	decfsz	(??_TempSet^(0+128)+1),f
  1813  0B06  2B03               	goto	u4147
  1814  0B07  2B08               	nop2
  1815  0B08                     l2710:
  1816                           
  1817                           ;./Temperature.h: 69:             Temp = Temp + 5;
  1818  0B08  1683               	bsf	3,5	;RP0=1, select bank1
  1819  0B09  1303               	bcf	3,6	;RP1=0, select bank1
  1820  0B0A  0867               	movf	_Temp^(0+128),w
  1821  0B0B  3E05               	addlw	5
  1822  0B0C  00E7               	movwf	_Temp^(0+128)
  1823  0B0D  0868               	movf	(_Temp+1)^(0+128),w
  1824  0B0E  1803               	skipnc
  1825  0B0F  3E01               	addlw	1
  1826  0B10  3E00               	addlw	0
  1827  0B11  00E8               	movwf	(_Temp+1)^(0+128)
  1828  0B12                     l2712:
  1829                           
  1830                           ;./Temperature.h: 70:             _delay((unsigned long)((5)*(20000000/4000.0)));
  1831  0B12  3021               	movlw	33
  1832  0B13  1683               	bsf	3,5	;RP0=1, select bank1
  1833  0B14  1303               	bcf	3,6	;RP1=0, select bank1
  1834  0B15  00A7               	movwf	(??_TempSet^(0+128)+1)
  1835  0B16  3075               	movlw	117
  1836  0B17  00A6               	movwf	??_TempSet^(0+128)
  1837  0B18                     u4157:
  1838  0B18  0BA6               	decfsz	??_TempSet^(0+128),f
  1839  0B19  2B18               	goto	u4157
  1840  0B1A  0BA7               	decfsz	(??_TempSet^(0+128)+1),f
  1841  0B1B  2B18               	goto	u4157
  1842  0B1C  2B1D               	nop2
  1843  0B1D                     l2714:
  1844                           
  1845                           ;./Temperature.h: 72:         return 1;
  1846  0B1D  3001               	movlw	1
  1847  0B1E  1683               	bsf	3,5	;RP0=1, select bank1
  1848  0B1F  1303               	bcf	3,6	;RP1=0, select bank1
  1849  0B20  00A4               	movwf	?_TempSet^(0+128)
  1850  0B21  3000               	movlw	0
  1851  0B22  00A5               	movwf	(?_TempSet^(0+128)+1)
  1852  0B23  2B58               	goto	l241
  1853  0B24                     l239:	
  1854                           ;./Temperature.h: 73:     }
  1855                           
  1856                           
  1857                           ;./Temperature.h: 74:     if(PORTBbits.RB5 == 0){
  1858  0B24  1A86               	btfsc	6,5	;volatile
  1859  0B25  2B27               	goto	u3461
  1860  0B26  2B28               	goto	u3460
  1861  0B27                     u3461:
  1862  0B27  2B54               	goto	l2730
  1863  0B28                     u3460:
  1864  0B28                     l2718:
  1865                           
  1866                           ;./Temperature.h: 75:         _delay((unsigned long)((5)*(20000000/4000.0)));
  1867  0B28  3021               	movlw	33
  1868  0B29  1683               	bsf	3,5	;RP0=1, select bank1
  1869  0B2A  1303               	bcf	3,6	;RP1=0, select bank1
  1870  0B2B  00A7               	movwf	(??_TempSet^(0+128)+1)
  1871  0B2C  3075               	movlw	117
  1872  0B2D  00A6               	movwf	??_TempSet^(0+128)
  1873  0B2E                     u4167:
  1874  0B2E  0BA6               	decfsz	??_TempSet^(0+128),f
  1875  0B2F  2B2E               	goto	u4167
  1876  0B30  0BA7               	decfsz	(??_TempSet^(0+128)+1),f
  1877  0B31  2B2E               	goto	u4167
  1878  0B32  2B33               	nop2
  1879                           
  1880                           ;./Temperature.h: 76:         if(Temp > 35){
  1881  0B33  3000               	movlw	0
  1882  0B34  1683               	bsf	3,5	;RP0=1, select bank1
  1883  0B35  1303               	bcf	3,6	;RP1=0, select bank1
  1884  0B36  0268               	subwf	(_Temp+1)^(0+128),w
  1885  0B37  3024               	movlw	36
  1886  0B38  1903               	skipnz
  1887  0B39  0267               	subwf	_Temp^(0+128),w
  1888  0B3A  1C03               	skipc
  1889  0B3B  2B3D               	goto	u3471
  1890  0B3C  2B3E               	goto	u3470
  1891  0B3D                     u3471:
  1892  0B3D  2B1D               	goto	l2714
  1893  0B3E                     u3470:
  1894  0B3E                     l2720:
  1895                           
  1896                           ;./Temperature.h: 77:             _delay((unsigned long)((5)*(20000000/4000.0)));
  1897  0B3E  3021               	movlw	33
  1898  0B3F  1683               	bsf	3,5	;RP0=1, select bank1
  1899  0B40  1303               	bcf	3,6	;RP1=0, select bank1
  1900  0B41  00A7               	movwf	(??_TempSet^(0+128)+1)
  1901  0B42  3075               	movlw	117
  1902  0B43  00A6               	movwf	??_TempSet^(0+128)
  1903  0B44                     u4177:
  1904  0B44  0BA6               	decfsz	??_TempSet^(0+128),f
  1905  0B45  2B44               	goto	u4177
  1906  0B46  0BA7               	decfsz	(??_TempSet^(0+128)+1),f
  1907  0B47  2B44               	goto	u4177
  1908  0B48  2B49               	nop2
  1909  0B49                     l2722:
  1910                           
  1911                           ;./Temperature.h: 78:             Temp = Temp - 5;
  1912  0B49  1683               	bsf	3,5	;RP0=1, select bank1
  1913  0B4A  1303               	bcf	3,6	;RP1=0, select bank1
  1914  0B4B  0867               	movf	_Temp^(0+128),w
  1915  0B4C  3EFB               	addlw	251
  1916  0B4D  00E7               	movwf	_Temp^(0+128)
  1917  0B4E  0868               	movf	(_Temp+1)^(0+128),w
  1918  0B4F  1803               	skipnc
  1919  0B50  3E01               	addlw	1
  1920  0B51  3EFF               	addlw	255
  1921  0B52  00E8               	movwf	(_Temp+1)^(0+128)
  1922  0B53  2B12               	goto	l2712
  1923  0B54                     l2730:
  1924                           
  1925                           ;./Temperature.h: 83:     return 0;
  1926  0B54  1683               	bsf	3,5	;RP0=1, select bank1
  1927  0B55  1303               	bcf	3,6	;RP1=0, select bank1
  1928  0B56  01A4               	clrf	?_TempSet^(0+128)
  1929  0B57  01A5               	clrf	(?_TempSet+1)^(0+128)
  1930  0B58                     l241:
  1931  0B58  0008               	return
  1932  0B59                     __end_of_TempSet:
  1933                           
  1934                           	psect	text11
  1935  06EC                     __ptext11:	
  1936 ;; *************** function _TempDisplay *****************
  1937 ;; Defined at:
  1938 ;;		line 31 in file "./Temperature.h"
  1939 ;; Parameters:    Size  Location     Type
  1940 ;;		None
  1941 ;; Auto vars:     Size  Location     Type
  1942 ;;  b               2   30[BANK1 ] unsigned int 
  1943 ;;  a               2   28[BANK1 ] unsigned int 
  1944 ;; Return value:  Size  Location     Type
  1945 ;;                  1    wreg      void 
  1946 ;; Registers used:
  1947 ;;		wreg, fsr0l, fsr0h, status,2, status,0, btemp+1, pclath, cstack
  1948 ;; Tracked objects:
  1949 ;;		On entry : 0/0
  1950 ;;		On exit  : 0/0
  1951 ;;		Unchanged: 0/0
  1952 ;; Data sizes:     COMMON   BANK0   BANK1   BANK3   BANK2
  1953 ;;      Params:         0       0       0       0       0
  1954 ;;      Locals:         0       0       4       0       0
  1955 ;;      Temps:          0       0       2       0       0
  1956 ;;      Totals:         0       0       6       0       0
  1957 ;;Total ram usage:        6 bytes
  1958 ;; Hardware stack levels used:    1
  1959 ;; Hardware stack levels required when called:    8
  1960 ;; This function calls:
  1961 ;;		_FetchTemp
  1962 ;;		_SaveTemp
  1963 ;;		___lwdiv
  1964 ;;		___lwmod
  1965 ;; This function is called by:
  1966 ;;		_SettingMode
  1967 ;; This function uses a non-reentrant model
  1968 ;;
  1969                           
  1970                           
  1971                           ;psect for function _TempDisplay
  1972  06EC                     _TempDisplay:
  1973  06EC                     l2678:	
  1974                           ;incstack = 0
  1975 ;; hardware stack exceeded
  1976                           ; Regs used in _TempDisplay: [wreg-fsr0h+status,2+status,0+btemp+1+pclath+cstack]
  1977                           
  1978                           
  1979                           ;./Temperature.h: 32:     unsigned int a,b;;./Temperature.h: 33:     if(s==0){
  1980  06EC  1683               	bsf	3,5	;RP0=1, select bank1
  1981  06ED  1303               	bcf	3,6	;RP1=0, select bank1
  1982  06EE  084F               	movf	_s^(0+128),w
  1983  06EF  0450               	iorwf	(_s+1)^(0+128),w
  1984  06F0  1D03               	btfss	3,2
  1985  06F1  2EF3               	goto	u3431
  1986  06F2  2EF4               	goto	u3430
  1987  06F3                     u3431:
  1988  06F3  2EFF               	goto	l2684
  1989  06F4                     u3430:
  1990  06F4                     l2680:
  1991                           
  1992                           ;./Temperature.h: 34:         SaveTemp();
  1993  06F4  160A  118A  2646  120A  118A  	fcall	_SaveTemp
  1994  06F9                     l2682:
  1995                           
  1996                           ;./Temperature.h: 35:         s = 1;
  1997  06F9  3001               	movlw	1
  1998  06FA  1683               	bsf	3,5	;RP0=1, select bank1
  1999  06FB  1303               	bcf	3,6	;RP1=0, select bank1
  2000  06FC  00CF               	movwf	_s^(0+128)
  2001  06FD  3000               	movlw	0
  2002  06FE  00D0               	movwf	(_s^(0+128)+1)
  2003  06FF                     l2684:
  2004                           
  2005                           ;./Temperature.h: 37:     FetchTemp();
  2006  06FF  160A  118A  25CF  120A  118A  	fcall	_FetchTemp
  2007  0704                     l2686:
  2008                           
  2009                           ;./Temperature.h: 38:     a = ((Temp/10)%10);
  2010  0704  300A               	movlw	10
  2011  0705  1683               	bsf	3,5	;RP0=1, select bank1
  2012  0706  1303               	bcf	3,6	;RP1=0, select bank1
  2013  0707  00AB               	movwf	___lwmod@divisor^(0+128)
  2014  0708  3000               	movlw	0
  2015  0709  00AC               	movwf	(___lwmod@divisor^(0+128)+1)
  2016  070A  300A               	movlw	10
  2017  070B  00A4               	movwf	___lwdiv@divisor^(0+128)
  2018  070C  3000               	movlw	0
  2019  070D  00A5               	movwf	(___lwdiv@divisor^(0+128)+1)
  2020  070E  0868               	movf	(_Temp+1)^(0+128),w
  2021  070F  00A7               	movwf	(___lwdiv@dividend+1)^(0+128)
  2022  0710  0867               	movf	_Temp^(0+128),w
  2023  0711  00A6               	movwf	___lwdiv@dividend^(0+128)
  2024  0712  160A  118A  2761  120A  118A  	fcall	___lwdiv
  2025  0717  1683               	bsf	3,5	;RP0=1, select bank1
  2026  0718  1303               	bcf	3,6	;RP1=0, select bank1
  2027  0719  0825               	movf	(?___lwdiv+1)^(0+128),w
  2028  071A  00AE               	movwf	(___lwmod@dividend+1)^(0+128)
  2029  071B  0824               	movf	?___lwdiv^(0+128),w
  2030  071C  00AD               	movwf	___lwmod@dividend^(0+128)
  2031  071D  160A  118A  2725  120A  118A  	fcall	___lwmod
  2032  0722  1683               	bsf	3,5	;RP0=1, select bank1
  2033  0723  1303               	bcf	3,6	;RP1=0, select bank1
  2034  0724  082C               	movf	(?___lwmod+1)^(0+128),w
  2035  0725  00BD               	movwf	(TempDisplay@a+1)^(0+128)
  2036  0726  082B               	movf	?___lwmod^(0+128),w
  2037  0727  00BC               	movwf	TempDisplay@a^(0+128)
  2038  0728                     l2688:
  2039                           
  2040                           ;./Temperature.h: 39:     b = (Temp%10);
  2041  0728  300A               	movlw	10
  2042  0729  00AB               	movwf	___lwmod@divisor^(0+128)
  2043  072A  3000               	movlw	0
  2044  072B  00AC               	movwf	(___lwmod@divisor^(0+128)+1)
  2045  072C  0868               	movf	(_Temp+1)^(0+128),w
  2046  072D  00AE               	movwf	(___lwmod@dividend+1)^(0+128)
  2047  072E  0867               	movf	_Temp^(0+128),w
  2048  072F  00AD               	movwf	___lwmod@dividend^(0+128)
  2049  0730  160A  118A  2725  120A  118A  	fcall	___lwmod
  2050  0735  1683               	bsf	3,5	;RP0=1, select bank1
  2051  0736  1303               	bcf	3,6	;RP1=0, select bank1
  2052  0737  082C               	movf	(?___lwmod+1)^(0+128),w
  2053  0738  00BF               	movwf	(TempDisplay@b+1)^(0+128)
  2054  0739  082B               	movf	?___lwmod^(0+128),w
  2055  073A  00BE               	movwf	TempDisplay@b^(0+128)
  2056  073B                     l2690:
  2057                           
  2058                           ;./Temperature.h: 41:     RA4 = 1;
  2059  073B  1283               	bcf	3,5	;RP0=0, select bank0
  2060  073C  1303               	bcf	3,6	;RP1=0, select bank0
  2061  073D  1605               	bsf	5,4	;volatile
  2062  073E                     l2692:
  2063                           
  2064                           ;./Temperature.h: 42:     PORTD = binary_pattern[a];
  2065  073E  1683               	bsf	3,5	;RP0=1, select bank1
  2066  073F  1303               	bcf	3,6	;RP1=0, select bank1
  2067  0740  083C               	movf	TempDisplay@a^(0+128),w
  2068  0741  3EDB               	addlw	(low (_binary_pattern| 0))& (0+255)
  2069  0742  0084               	movwf	4
  2070  0743  1383               	bcf	3,7	;select IRP bank1
  2071  0744  0800               	movf	0,w
  2072  0745  1283               	bcf	3,5	;RP0=0, select bank0
  2073  0746  1303               	bcf	3,6	;RP1=0, select bank0
  2074  0747  0088               	movwf	8	;volatile
  2075  0748                     l2694:
  2076                           
  2077                           ;./Temperature.h: 43:     _delay((unsigned long)((1)*(20000000/4000.0)));
  2078  0748  3007               	movlw	7
  2079  0749  1683               	bsf	3,5	;RP0=1, select bank1
  2080  074A  1303               	bcf	3,6	;RP1=0, select bank1
  2081  074B  00BB               	movwf	(??_TempDisplay^(0+128)+1)
  2082  074C  307C               	movlw	124
  2083  074D  00BA               	movwf	??_TempDisplay^(0+128)
  2084  074E                     u4187:
  2085  074E  0BBA               	decfsz	??_TempDisplay^(0+128),f
  2086  074F  2F4E               	goto	u4187
  2087  0750  0BBB               	decfsz	(??_TempDisplay^(0+128)+1),f
  2088  0751  2F4E               	goto	u4187
  2089  0752  0000               	nop
  2090  0753                     l2696:
  2091                           
  2092                           ;./Temperature.h: 44:     RA4 = 0;
  2093  0753  1283               	bcf	3,5	;RP0=0, select bank0
  2094  0754  1303               	bcf	3,6	;RP1=0, select bank0
  2095  0755  1205               	bcf	5,4	;volatile
  2096  0756                     l2698:
  2097                           
  2098                           ;./Temperature.h: 45:     RA5 = 1;
  2099  0756  1685               	bsf	5,5	;volatile
  2100                           
  2101                           ;./Temperature.h: 46:     PORTD = binary_pattern[b];
  2102  0757  1683               	bsf	3,5	;RP0=1, select bank1
  2103  0758  1303               	bcf	3,6	;RP1=0, select bank1
  2104  0759  083E               	movf	TempDisplay@b^(0+128),w
  2105  075A  3EDB               	addlw	(low (_binary_pattern| 0))& (0+255)
  2106  075B  0084               	movwf	4
  2107  075C  1383               	bcf	3,7	;select IRP bank1
  2108  075D  0800               	movf	0,w
  2109  075E  1283               	bcf	3,5	;RP0=0, select bank0
  2110  075F  1303               	bcf	3,6	;RP1=0, select bank0
  2111  0760  0088               	movwf	8	;volatile
  2112  0761                     l2700:
  2113                           
  2114                           ;./Temperature.h: 47:     _delay((unsigned long)((1)*(20000000/4000.0)));
  2115  0761  3007               	movlw	7
  2116  0762  1683               	bsf	3,5	;RP0=1, select bank1
  2117  0763  1303               	bcf	3,6	;RP1=0, select bank1
  2118  0764  00BB               	movwf	(??_TempDisplay^(0+128)+1)
  2119  0765  307C               	movlw	124
  2120  0766  00BA               	movwf	??_TempDisplay^(0+128)
  2121  0767                     u4197:
  2122  0767  0BBA               	decfsz	??_TempDisplay^(0+128),f
  2123  0768  2F67               	goto	u4197
  2124  0769  0BBB               	decfsz	(??_TempDisplay^(0+128)+1),f
  2125  076A  2F67               	goto	u4197
  2126  076B  0000               	nop
  2127  076C                     l2702:
  2128                           
  2129                           ;./Temperature.h: 48:     RA5 = 0;
  2130  076C  1283               	bcf	3,5	;RP0=0, select bank0
  2131  076D  1303               	bcf	3,6	;RP1=0, select bank0
  2132  076E  1285               	bcf	5,5	;volatile
  2133  076F                     l233:
  2134  076F  0008               	return
  2135  0770                     __end_of_TempDisplay:
  2136                           
  2137                           	psect	text12
  2138  1646                     __ptext12:	
  2139 ;; *************** function _SaveTemp *****************
  2140 ;; Defined at:
  2141 ;;		line 24 in file "./Temperature.h"
  2142 ;; Parameters:    Size  Location     Type
  2143 ;;		None
  2144 ;; Auto vars:     Size  Location     Type
  2145 ;;		None
  2146 ;; Return value:  Size  Location     Type
  2147 ;;                  1    wreg      void 
  2148 ;; Registers used:
  2149 ;;		wreg, fsr0l, fsr0h, status,2, status,0, btemp+1, pclath, cstack
  2150 ;; Tracked objects:
  2151 ;;		On entry : 0/0
  2152 ;;		On exit  : 0/0
  2153 ;;		Unchanged: 0/0
  2154 ;; Data sizes:     COMMON   BANK0   BANK1   BANK3   BANK2
  2155 ;;      Params:         0       0       0       0       0
  2156 ;;      Locals:         0       0       0       0       0
  2157 ;;      Temps:          0       0       0       0       0
  2158 ;;      Totals:         0       0       0       0       0
  2159 ;;Total ram usage:        0 bytes
  2160 ;; Hardware stack levels used:    1
  2161 ;; Hardware stack levels required when called:    7
  2162 ;; This function calls:
  2163 ;;		_EEPROM_Write
  2164 ;;		_I2C_Master_Init
  2165 ;; This function is called by:
  2166 ;;		_TempDisplay
  2167 ;; This function uses a non-reentrant model
  2168 ;;
  2169                           
  2170                           
  2171                           ;psect for function _SaveTemp
  2172  1646                     _SaveTemp:
  2173  1646                     l2108:	
  2174                           ;incstack = 0
  2175 ;; hardware stack exceeded
  2176                           ; Regs used in _SaveTemp: [wreg-fsr0h+status,2+status,0+btemp+1+pclath+cstack]
  2177                           
  2178                           
  2179                           ;./Temperature.h: 25:  I2C_Master_Init(100000);
  2180  1646  3000               	movlw	0
  2181  1647  1683               	bsf	3,5	;RP0=1, select bank1
  2182  1648  1303               	bcf	3,6	;RP1=0, select bank1
  2183  1649  00B5               	movwf	(I2C_Master_Init@baud+3)^(0+128)
  2184  164A  3001               	movlw	1
  2185  164B  00B4               	movwf	(I2C_Master_Init@baud+2)^(0+128)
  2186  164C  3086               	movlw	134
  2187  164D  00B3               	movwf	(I2C_Master_Init@baud+1)^(0+128)
  2188  164E  30A0               	movlw	160
  2189  164F  00B2               	movwf	I2C_Master_Init@baud^(0+128)
  2190  1650  160A  118A  26B4  160A  118A  	fcall	_I2C_Master_Init
  2191  1655                     l2110:
  2192                           
  2193                           ;./Temperature.h: 26:     EEPROM_Write(Address, Temp, 2);
  2194  1655  3020               	movlw	32
  2195  1656  1683               	bsf	3,5	;RP0=1, select bank1
  2196  1657  1303               	bcf	3,6	;RP1=0, select bank1
  2197  1658  00A5               	movwf	EEPROM_Write@add^(0+128)
  2198  1659  3000               	movlw	0
  2199  165A  00A6               	movwf	(EEPROM_Write@add^(0+128)+1)
  2200  165B  0867               	movf	_Temp^(0+128),w
  2201  165C  00A7               	movwf	EEPROM_Write@data^(0+128)
  2202  165D  0868               	movf	(_Temp+1)^(0+128),w
  2203  165E  00A8               	movwf	(EEPROM_Write@data+1)^(0+128)
  2204  165F  3002               	movlw	2
  2205  1660  00FF               	movwf	btemp+1
  2206  1661  087F               	movf	btemp+1,w
  2207  1662  00A9               	movwf	EEPROM_Write@len^(0+128)
  2208  1663  160A  118A  27A7  160A  118A  	fcall	_EEPROM_Write
  2209  1668                     l226:
  2210  1668  0008               	return
  2211  1669                     __end_of_SaveTemp:
  2212                           
  2213                           	psect	text13
  2214  16B4                     __ptext13:	
  2215 ;; *************** function _I2C_Master_Init *****************
  2216 ;; Defined at:
  2217 ;;		line 23 in file "./I2C_EEPROM.h"
  2218 ;; Parameters:    Size  Location     Type
  2219 ;;  baud            4   18[BANK1 ] const unsigned long 
  2220 ;; Auto vars:     Size  Location     Type
  2221 ;;		None
  2222 ;; Return value:  Size  Location     Type
  2223 ;;                  1    wreg      void 
  2224 ;; Registers used:
  2225 ;;		wreg, status,2, status,0, btemp+1, pclath, cstack
  2226 ;; Tracked objects:
  2227 ;;		On entry : 0/0
  2228 ;;		On exit  : 0/0
  2229 ;;		Unchanged: 0/0
  2230 ;; Data sizes:     COMMON   BANK0   BANK1   BANK3   BANK2
  2231 ;;      Params:         0       0       4       0       0
  2232 ;;      Locals:         0       0       0       0       0
  2233 ;;      Temps:          0       0       4       0       0
  2234 ;;      Totals:         0       0       8       0       0
  2235 ;;Total ram usage:        8 bytes
  2236 ;; Hardware stack levels used:    1
  2237 ;; Hardware stack levels required when called:    5
  2238 ;; This function calls:
  2239 ;;		___lldiv
  2240 ;; This function is called by:
  2241 ;;		_SaveTemp
  2242 ;; This function uses a non-reentrant model
  2243 ;;
  2244                           
  2245                           
  2246                           ;psect for function _I2C_Master_Init
  2247  16B4                     _I2C_Master_Init:
  2248  16B4                     l2060:	
  2249                           ;incstack = 0
  2250 ;; hardware stack exceeded
  2251                           ; Regs used in _I2C_Master_Init: [wreg+status,2+status,0+btemp+1+pclath+cstack]
  2252                           
  2253                           
  2254                           ;./I2C_EEPROM.h: 24:  SSPCON = 0b00101000;
  2255  16B4  3028               	movlw	40
  2256  16B5  1283               	bcf	3,5	;RP0=0, select bank0
  2257  16B6  1303               	bcf	3,6	;RP1=0, select bank0
  2258  16B7  0094               	movwf	20	;volatile
  2259  16B8                     l2062:
  2260                           
  2261                           ;./I2C_EEPROM.h: 25:  SSPCON2 = 0;
  2262  16B8  1683               	bsf	3,5	;RP0=1, select bank1
  2263  16B9  1303               	bcf	3,6	;RP1=0, select bank1
  2264  16BA  0191               	clrf	17	;volatile
  2265  16BB                     l2064:
  2266                           
  2267                           ;./I2C_EEPROM.h: 26:  SSPADD = (20000000 / (4 * baud)) - 1;
  2268  16BB  0832               	movf	I2C_Master_Init@baud^(0+128),w
  2269  16BC  00B6               	movwf	??_I2C_Master_Init^(0+128)
  2270  16BD  0833               	movf	(I2C_Master_Init@baud+1)^(0+128),w
  2271  16BE  00B7               	movwf	(??_I2C_Master_Init^(0+128)+1)
  2272  16BF  0834               	movf	(I2C_Master_Init@baud+2)^(0+128),w
  2273  16C0  00B8               	movwf	(??_I2C_Master_Init^(0+128)+2)
  2274  16C1  0835               	movf	(I2C_Master_Init@baud+3)^(0+128),w
  2275  16C2  00B9               	movwf	(??_I2C_Master_Init^(0+128)+3)
  2276  16C3  3002               	movlw	2
  2277  16C4                     u2175:
  2278  16C4  1003               	clrc
  2279  16C5  0DB6               	rlf	??_I2C_Master_Init^(0+128),f
  2280  16C6  0DB7               	rlf	(??_I2C_Master_Init^(0+128)+1),f
  2281  16C7  0DB8               	rlf	(??_I2C_Master_Init^(0+128)+2),f
  2282  16C8  0DB9               	rlf	(??_I2C_Master_Init^(0+128)+3),f
  2283  16C9                     u2170:
  2284  16C9  3EFF               	addlw	-1
  2285  16CA  1D03               	skipz
  2286  16CB  2EC4               	goto	u2175
  2287  16CC  0839               	movf	(??_I2C_Master_Init+3)^(0+128),w
  2288  16CD  00A7               	movwf	(___lldiv@divisor+3)^(0+128)
  2289  16CE  0838               	movf	(??_I2C_Master_Init+2)^(0+128),w
  2290  16CF  00A6               	movwf	(___lldiv@divisor+2)^(0+128)
  2291  16D0  0837               	movf	(??_I2C_Master_Init+1)^(0+128),w
  2292  16D1  00A5               	movwf	(___lldiv@divisor+1)^(0+128)
  2293  16D2  0836               	movf	??_I2C_Master_Init^(0+128),w
  2294  16D3  00A4               	movwf	___lldiv@divisor^(0+128)
  2295  16D4  3001               	movlw	1
  2296  16D5  00AB               	movwf	(___lldiv@dividend+3)^(0+128)
  2297  16D6  3031               	movlw	49
  2298  16D7  00AA               	movwf	(___lldiv@dividend+2)^(0+128)
  2299  16D8  302D               	movlw	45
  2300  16D9  00A9               	movwf	(___lldiv@dividend+1)^(0+128)
  2301  16DA  3000               	movlw	0
  2302  16DB  00A8               	movwf	___lldiv@dividend^(0+128)
  2303  16DC  120A  158A  2132  160A  118A  	fcall	___lldiv
  2304  16E1  1683               	bsf	3,5	;RP0=1, select bank1
  2305  16E2  1303               	bcf	3,6	;RP1=0, select bank1
  2306  16E3  0824               	movf	?___lldiv^(0+128),w
  2307  16E4  3EFF               	addlw	255
  2308  16E5  0093               	movwf	19	;volatile
  2309  16E6                     l2066:
  2310                           
  2311                           ;./I2C_EEPROM.h: 27:  SSPSTAT = 0;
  2312  16E6  0194               	clrf	20	;volatile
  2313  16E7                     l2068:
  2314                           
  2315                           ;./I2C_EEPROM.h: 28:  TRISC3 = 1;
  2316  16E7  1587               	bsf	7,3	;volatile
  2317  16E8                     l2070:
  2318                           
  2319                           ;./I2C_EEPROM.h: 29:  TRISC4 = 1;
  2320  16E8  1607               	bsf	7,4	;volatile
  2321  16E9                     l119:
  2322  16E9  0008               	return
  2323  16EA                     __end_of_I2C_Master_Init:
  2324                           
  2325                           	psect	text14
  2326  0932                     __ptext14:	
  2327 ;; *************** function ___lldiv *****************
  2328 ;; Defined at:
  2329 ;;		line 5 in file "C:\Program Files\Microchip\xc8\v2.20\pic\sources\c90\common\__lldiv.c"
  2330 ;; Parameters:    Size  Location     Type
  2331 ;;  divisor         4    4[BANK1 ] unsigned long 
  2332 ;;  dividend        4    8[BANK1 ] unsigned long 
  2333 ;; Auto vars:     Size  Location     Type
  2334 ;;  quotient        4   13[BANK1 ] unsigned long 
  2335 ;;  counter         1   17[BANK1 ] unsigned char 
  2336 ;; Return value:  Size  Location     Type
  2337 ;;                  4    4[BANK1 ] unsigned long 
  2338 ;; Registers used:
  2339 ;;		wreg, status,2, status,0, btemp+1
  2340 ;; Tracked objects:
  2341 ;;		On entry : 0/0
  2342 ;;		On exit  : 0/0
  2343 ;;		Unchanged: 0/0
  2344 ;; Data sizes:     COMMON   BANK0   BANK1   BANK3   BANK2
  2345 ;;      Params:         0       0       8       0       0
  2346 ;;      Locals:         0       0       5       0       0
  2347 ;;      Temps:          0       0       1       0       0
  2348 ;;      Totals:         0       0      14       0       0
  2349 ;;Total ram usage:       14 bytes
  2350 ;; Hardware stack levels used:    1
  2351 ;; Hardware stack levels required when called:    4
  2352 ;; This function calls:
  2353 ;;		Nothing
  2354 ;; This function is called by:
  2355 ;;		_I2C_Master_Init
  2356 ;; This function uses a non-reentrant model
  2357 ;;
  2358                           
  2359                           
  2360                           ;psect for function ___lldiv
  2361  0932                     ___lldiv:
  2362  0932                     l2034:	
  2363                           ;incstack = 0
  2364 ;; hardware stack exceeded
  2365                           ; Regs used in ___lldiv: [wreg+status,2+status,0+btemp+1]
  2366                           
  2367  0932  3000               	movlw	0
  2368  0933  1683               	bsf	3,5	;RP0=1, select bank1
  2369  0934  1303               	bcf	3,6	;RP1=0, select bank1
  2370  0935  00B0               	movwf	(___lldiv@quotient+3)^(0+128)
  2371  0936  3000               	movlw	0
  2372  0937  00AF               	movwf	(___lldiv@quotient+2)^(0+128)
  2373  0938  3000               	movlw	0
  2374  0939  00AE               	movwf	(___lldiv@quotient+1)^(0+128)
  2375  093A  3000               	movlw	0
  2376  093B  00AD               	movwf	___lldiv@quotient^(0+128)
  2377  093C  0827               	movf	(___lldiv@divisor+3)^(0+128),w
  2378  093D  0426               	iorwf	(___lldiv@divisor+2)^(0+128),w
  2379  093E  0425               	iorwf	(___lldiv@divisor+1)^(0+128),w
  2380  093F  0424               	iorwf	___lldiv@divisor^(0+128),w
  2381  0940  1903               	skipnz
  2382  0941  2943               	goto	u2101
  2383  0942  2944               	goto	u2100
  2384  0943                     u2101:
  2385  0943  2991               	goto	l2056
  2386  0944                     u2100:
  2387  0944                     l2036:
  2388  0944  01B1               	clrf	___lldiv@counter^(0+128)
  2389  0945  0AB1               	incf	___lldiv@counter^(0+128),f
  2390  0946  2954               	goto	l2042
  2391  0947                     l2038:
  2392  0947  3001               	movlw	1
  2393  0948  00AC               	movwf	??___lldiv^(0+128)
  2394  0949                     u2115:
  2395  0949  1003               	clrc
  2396  094A  0DA4               	rlf	___lldiv@divisor^(0+128),f
  2397  094B  0DA5               	rlf	(___lldiv@divisor+1)^(0+128),f
  2398  094C  0DA6               	rlf	(___lldiv@divisor+2)^(0+128),f
  2399  094D  0DA7               	rlf	(___lldiv@divisor+3)^(0+128),f
  2400  094E  0BAC               	decfsz	??___lldiv^(0+128),f
  2401  094F  2949               	goto	u2115
  2402  0950                     l2040:
  2403  0950  3001               	movlw	1
  2404  0951  00FF               	movwf	btemp+1
  2405  0952  087F               	movf	btemp+1,w
  2406  0953  07B1               	addwf	___lldiv@counter^(0+128),f
  2407  0954                     l2042:
  2408  0954  1FA7               	btfss	(___lldiv@divisor+3)^(0+128),7
  2409  0955  2957               	goto	u2121
  2410  0956  2958               	goto	u2120
  2411  0957                     u2121:
  2412  0957  2947               	goto	l2038
  2413  0958                     u2120:
  2414  0958                     l2044:
  2415  0958  3001               	movlw	1
  2416  0959  00AC               	movwf	??___lldiv^(0+128)
  2417  095A                     u2135:
  2418  095A  1003               	clrc
  2419  095B  0DAD               	rlf	___lldiv@quotient^(0+128),f
  2420  095C  0DAE               	rlf	(___lldiv@quotient+1)^(0+128),f
  2421  095D  0DAF               	rlf	(___lldiv@quotient+2)^(0+128),f
  2422  095E  0DB0               	rlf	(___lldiv@quotient+3)^(0+128),f
  2423  095F  0BAC               	decfsz	??___lldiv^(0+128),f
  2424  0960  295A               	goto	u2135
  2425  0961                     l2046:
  2426  0961  0827               	movf	(___lldiv@divisor+3)^(0+128),w
  2427  0962  022B               	subwf	(___lldiv@dividend+3)^(0+128),w
  2428  0963  1D03               	skipz
  2429  0964  296F               	goto	u2145
  2430  0965  0826               	movf	(___lldiv@divisor+2)^(0+128),w
  2431  0966  022A               	subwf	(___lldiv@dividend+2)^(0+128),w
  2432  0967  1D03               	skipz
  2433  0968  296F               	goto	u2145
  2434  0969  0825               	movf	(___lldiv@divisor+1)^(0+128),w
  2435  096A  0229               	subwf	(___lldiv@dividend+1)^(0+128),w
  2436  096B  1D03               	skipz
  2437  096C  296F               	goto	u2145
  2438  096D  0824               	movf	___lldiv@divisor^(0+128),w
  2439  096E  0228               	subwf	___lldiv@dividend^(0+128),w
  2440  096F                     u2145:
  2441  096F  1C03               	skipc
  2442  0970  2972               	goto	u2141
  2443  0971  2973               	goto	u2140
  2444  0972                     u2141:
  2445  0972  2982               	goto	l2052
  2446  0973                     u2140:
  2447  0973                     l2048:
  2448  0973  0824               	movf	___lldiv@divisor^(0+128),w
  2449  0974  02A8               	subwf	___lldiv@dividend^(0+128),f
  2450  0975  0825               	movf	(___lldiv@divisor+1)^(0+128),w
  2451  0976  1C03               	skipc
  2452  0977  0F25               	incfsz	(___lldiv@divisor+1)^(0+128),w
  2453  0978  02A9               	subwf	(___lldiv@dividend+1)^(0+128),f
  2454  0979  0826               	movf	(___lldiv@divisor+2)^(0+128),w
  2455  097A  1C03               	skipc
  2456  097B  0F26               	incfsz	(___lldiv@divisor+2)^(0+128),w
  2457  097C  02AA               	subwf	(___lldiv@dividend+2)^(0+128),f
  2458  097D  0827               	movf	(___lldiv@divisor+3)^(0+128),w
  2459  097E  1C03               	skipc
  2460  097F  0F27               	incfsz	(___lldiv@divisor+3)^(0+128),w
  2461  0980  02AB               	subwf	(___lldiv@dividend+3)^(0+128),f
  2462  0981                     l2050:
  2463  0981  142D               	bsf	___lldiv@quotient^(0+128),0
  2464  0982                     l2052:
  2465  0982  3001               	movlw	1
  2466  0983                     u2155:
  2467  0983  1003               	clrc
  2468  0984  0CA7               	rrf	(___lldiv@divisor+3)^(0+128),f
  2469  0985  0CA6               	rrf	(___lldiv@divisor+2)^(0+128),f
  2470  0986  0CA5               	rrf	(___lldiv@divisor+1)^(0+128),f
  2471  0987  0CA4               	rrf	___lldiv@divisor^(0+128),f
  2472  0988  3EFF               	addlw	-1
  2473  0989  1D03               	skipz
  2474  098A  2983               	goto	u2155
  2475  098B                     l2054:
  2476  098B  3001               	movlw	1
  2477  098C  02B1               	subwf	___lldiv@counter^(0+128),f
  2478  098D  1D03               	btfss	3,2
  2479  098E  2990               	goto	u2161
  2480  098F  2991               	goto	u2160
  2481  0990                     u2161:
  2482  0990  2958               	goto	l2044
  2483  0991                     u2160:
  2484  0991                     l2056:
  2485  0991  0830               	movf	(___lldiv@quotient+3)^(0+128),w
  2486  0992  00A7               	movwf	(?___lldiv+3)^(0+128)
  2487  0993  082F               	movf	(___lldiv@quotient+2)^(0+128),w
  2488  0994  00A6               	movwf	(?___lldiv+2)^(0+128)
  2489  0995  082E               	movf	(___lldiv@quotient+1)^(0+128),w
  2490  0996  00A5               	movwf	(?___lldiv+1)^(0+128)
  2491  0997  082D               	movf	___lldiv@quotient^(0+128),w
  2492  0998  00A4               	movwf	?___lldiv^(0+128)
  2493  0999                     l432:
  2494  0999  0008               	return
  2495  099A                     __end_of___lldiv:
  2496                           
  2497                           	psect	text15
  2498  17A7                     __ptext15:	
  2499 ;; *************** function _EEPROM_Write *****************
  2500 ;; Defined at:
  2501 ;;		line 72 in file "./I2C_EEPROM.h"
  2502 ;; Parameters:    Size  Location     Type
  2503 ;;  add             2    5[BANK1 ] unsigned int 
  2504 ;;  data            2    7[BANK1 ] PTR unsigned char 
  2505 ;;		 -> RAM(512), 
  2506 ;;  len             1    9[BANK1 ] unsigned char 
  2507 ;; Auto vars:     Size  Location     Type
  2508 ;;  i               2   12[BANK1 ] unsigned int 
  2509 ;; Return value:  Size  Location     Type
  2510 ;;                  1    wreg      void 
  2511 ;; Registers used:
  2512 ;;		wreg, fsr0l, fsr0h, status,2, status,0, pclath, cstack
  2513 ;; Tracked objects:
  2514 ;;		On entry : 0/0
  2515 ;;		On exit  : 0/0
  2516 ;;		Unchanged: 0/0
  2517 ;; Data sizes:     COMMON   BANK0   BANK1   BANK3   BANK2
  2518 ;;      Params:         0       0       5       0       0
  2519 ;;      Locals:         0       0       2       0       0
  2520 ;;      Temps:          0       0       2       0       0
  2521 ;;      Totals:         0       0       9       0       0
  2522 ;;Total ram usage:        9 bytes
  2523 ;; Hardware stack levels used:    1
  2524 ;; Hardware stack levels required when called:    6
  2525 ;; This function calls:
  2526 ;;		_I2C_Master_RepeatedStart
  2527 ;;		_I2C_Master_Start
  2528 ;;		_I2C_Master_Stop
  2529 ;;		_I2C_Master_Write
  2530 ;; This function is called by:
  2531 ;;		_SaveTemp
  2532 ;; This function uses a non-reentrant model
  2533 ;;
  2534                           
  2535                           
  2536                           ;psect for function _EEPROM_Write
  2537  17A7                     _EEPROM_Write:
  2538  17A7                     l2072:	
  2539                           ;incstack = 0
  2540 ;; hardware stack exceeded
  2541                           ; Regs used in _EEPROM_Write: [wreg-fsr0h+status,2+status,0+pclath+cstack]
  2542                           
  2543                           
  2544                           ;./I2C_EEPROM.h: 73:  I2C_Master_Start();
  2545  17A7  160A  118A  2569  160A  118A  	fcall	_I2C_Master_Start
  2546                           
  2547                           ;./I2C_EEPROM.h: 75:  while (I2C_Master_Write(0xA0))
  2548  17AC  2FB2               	goto	l155
  2549  17AD                     l2074:
  2550                           
  2551                           ;./I2C_EEPROM.h: 76:   I2C_Master_RepeatedStart();
  2552  17AD  160A  118A  2560  160A  118A  	fcall	_I2C_Master_RepeatedStart
  2553  17B2                     l155:
  2554                           
  2555                           ;./I2C_EEPROM.h: 75:  while (I2C_Master_Write(0xA0))
  2556  17B2  30A0               	movlw	160
  2557  17B3  160A  118A  2610  160A  118A  	fcall	_I2C_Master_Write
  2558  17B8  3A00               	xorlw	0
  2559  17B9  1D03               	skipz
  2560  17BA  2FBC               	goto	u2181
  2561  17BB  2FBD               	goto	u2180
  2562  17BC                     u2181:
  2563  17BC  2FAD               	goto	l2074
  2564  17BD                     u2180:
  2565  17BD                     l2076:
  2566                           
  2567                           ;./I2C_EEPROM.h: 77:  I2C_Master_Write(add >> 8);
  2568  17BD  1683               	bsf	3,5	;RP0=1, select bank1
  2569  17BE  1303               	bcf	3,6	;RP1=0, select bank1
  2570  17BF  0826               	movf	(EEPROM_Write@add+1)^(0+128),w
  2571  17C0  160A  118A  2610  160A  118A  	fcall	_I2C_Master_Write
  2572                           
  2573                           ;./I2C_EEPROM.h: 78:  I2C_Master_Write((unsigned char)add);
  2574  17C5  1683               	bsf	3,5	;RP0=1, select bank1
  2575  17C6  1303               	bcf	3,6	;RP1=0, select bank1
  2576  17C7  0825               	movf	EEPROM_Write@add^(0+128),w
  2577  17C8  160A  118A  2610  160A  118A  	fcall	_I2C_Master_Write
  2578  17CD                     l2078:
  2579                           
  2580                           ;./I2C_EEPROM.h: 79:  for (unsigned int i = 0; i < len; i++)
  2581  17CD  1683               	bsf	3,5	;RP0=1, select bank1
  2582  17CE  1303               	bcf	3,6	;RP1=0, select bank1
  2583  17CF  01AC               	clrf	EEPROM_Write@i^(0+128)
  2584  17D0  01AD               	clrf	(EEPROM_Write@i+1)^(0+128)
  2585  17D1  2FED               	goto	l2084
  2586  17D2                     l2080:
  2587                           
  2588                           ;./I2C_EEPROM.h: 80:   I2C_Master_Write(data[i]);
  2589  17D2  082C               	movf	EEPROM_Write@i^(0+128),w
  2590  17D3  0727               	addwf	EEPROM_Write@data^(0+128),w
  2591  17D4  00AA               	movwf	??_EEPROM_Write^(0+128)
  2592  17D5  082D               	movf	(EEPROM_Write@i+1)^(0+128),w
  2593  17D6  1803               	skipnc
  2594  17D7  0A2D               	incf	(EEPROM_Write@i+1)^(0+128),w
  2595  17D8  0728               	addwf	(EEPROM_Write@data+1)^(0+128),w
  2596  17D9  00AB               	movwf	(??_EEPROM_Write+1)^(0+128)
  2597  17DA  082A               	movf	??_EEPROM_Write^(0+128),w
  2598  17DB  0084               	movwf	4
  2599  17DC  1783               	bsf	3,7
  2600  17DD  1C2B               	btfss	(??_EEPROM_Write+1)^(0+128),0
  2601  17DE  1383               	bcf	3,7
  2602  17DF  0800               	movf	0,w
  2603  17E0  160A  118A  2610  160A  118A  	fcall	_I2C_Master_Write
  2604  17E5                     l2082:
  2605  17E5  3001               	movlw	1
  2606  17E6  1683               	bsf	3,5	;RP0=1, select bank1
  2607  17E7  1303               	bcf	3,6	;RP1=0, select bank1
  2608  17E8  07AC               	addwf	EEPROM_Write@i^(0+128),f
  2609  17E9  1803               	skipnc
  2610  17EA  0AAD               	incf	(EEPROM_Write@i+1)^(0+128),f
  2611  17EB  3000               	movlw	0
  2612  17EC  07AD               	addwf	(EEPROM_Write@i+1)^(0+128),f
  2613  17ED                     l2084:
  2614  17ED  0829               	movf	EEPROM_Write@len^(0+128),w
  2615  17EE  00AA               	movwf	??_EEPROM_Write^(0+128)
  2616  17EF  01AB               	clrf	(??_EEPROM_Write^(0+128)+1)
  2617  17F0  082B               	movf	(??_EEPROM_Write+1)^(0+128),w
  2618  17F1  022D               	subwf	(EEPROM_Write@i+1)^(0+128),w
  2619  17F2  1D03               	skipz
  2620  17F3  2FF6               	goto	u2195
  2621  17F4  082A               	movf	??_EEPROM_Write^(0+128),w
  2622  17F5  022C               	subwf	EEPROM_Write@i^(0+128),w
  2623  17F6                     u2195:
  2624  17F6  1C03               	skipc
  2625  17F7  2FF9               	goto	u2191
  2626  17F8  2FFA               	goto	u2190
  2627  17F9                     u2191:
  2628  17F9  2FD2               	goto	l2080
  2629  17FA                     u2190:
  2630  17FA                     l2086:
  2631                           
  2632                           ;./I2C_EEPROM.h: 81:  I2C_Master_Stop();
  2633  17FA  160A  118A  2572  160A  118A  	fcall	_I2C_Master_Stop
  2634  17FF                     l161:
  2635  17FF  0008               	return
  2636  1800                     __end_of_EEPROM_Write:
  2637                           
  2638                           	psect	text16
  2639  15CF                     __ptext16:	
  2640 ;; *************** function _FetchTemp *****************
  2641 ;; Defined at:
  2642 ;;		line 28 in file "./Temperature.h"
  2643 ;; Parameters:    Size  Location     Type
  2644 ;;		None
  2645 ;; Auto vars:     Size  Location     Type
  2646 ;;		None
  2647 ;; Return value:  Size  Location     Type
  2648 ;;                  1    wreg      void 
  2649 ;; Registers used:
  2650 ;;		wreg, fsr0l, fsr0h, status,2, status,0, btemp+1, pclath, cstack
  2651 ;; Tracked objects:
  2652 ;;		On entry : 0/0
  2653 ;;		On exit  : 0/0
  2654 ;;		Unchanged: 0/0
  2655 ;; Data sizes:     COMMON   BANK0   BANK1   BANK3   BANK2
  2656 ;;      Params:         0       0       0       0       0
  2657 ;;      Locals:         0       0       0       0       0
  2658 ;;      Temps:          0       0       0       0       0
  2659 ;;      Totals:         0       0       0       0       0
  2660 ;;Total ram usage:        0 bytes
  2661 ;; Hardware stack levels used:    1
  2662 ;; Hardware stack levels required when called:    7
  2663 ;; This function calls:
  2664 ;;		_EEPROM_Read
  2665 ;; This function is called by:
  2666 ;;		_TempDisplay
  2667 ;; This function uses a non-reentrant model
  2668 ;;
  2669                           
  2670                           
  2671                           ;psect for function _FetchTemp
  2672  15CF                     _FetchTemp:
  2673  15CF                     l2112:	
  2674                           ;incstack = 0
  2675 ;; hardware stack exceeded
  2676                           ; Regs used in _FetchTemp: [wreg-fsr0h+status,2+status,0+btemp+1+pclath+cstack]
  2677                           
  2678                           
  2679                           ;./Temperature.h: 29:     EEPROM_Read(Address, Temp, 2);
  2680  15CF  3020               	movlw	32
  2681  15D0  1683               	bsf	3,5	;RP0=1, select bank1
  2682  15D1  1303               	bcf	3,6	;RP1=0, select bank1
  2683  15D2  00A5               	movwf	EEPROM_Read@add^(0+128)
  2684  15D3  3000               	movlw	0
  2685  15D4  00A6               	movwf	(EEPROM_Read@add^(0+128)+1)
  2686  15D5  0867               	movf	_Temp^(0+128),w
  2687  15D6  00A7               	movwf	EEPROM_Read@data^(0+128)
  2688  15D7  0868               	movf	(_Temp+1)^(0+128),w
  2689  15D8  00A8               	movwf	(EEPROM_Read@data+1)^(0+128)
  2690  15D9  3002               	movlw	2
  2691  15DA  00A9               	movwf	EEPROM_Read@len^(0+128)
  2692  15DB  3000               	movlw	0
  2693  15DC  00AA               	movwf	(EEPROM_Read@len^(0+128)+1)
  2694  15DD  120A  158A  219A  160A  118A  	fcall	_EEPROM_Read
  2695  15E2                     l229:
  2696  15E2  0008               	return
  2697  15E3                     __end_of_FetchTemp:
  2698                           
  2699                           	psect	text17
  2700  099A                     __ptext17:	
  2701 ;; *************** function _EEPROM_Read *****************
  2702 ;; Defined at:
  2703 ;;		line 83 in file "./I2C_EEPROM.h"
  2704 ;; Parameters:    Size  Location     Type
  2705 ;;  add             2    5[BANK1 ] unsigned int 
  2706 ;;  data            2    7[BANK1 ] PTR unsigned char 
  2707 ;;		 -> RAM(512), 
  2708 ;;  len             2    9[BANK1 ] unsigned int 
  2709 ;; Auto vars:     Size  Location     Type
  2710 ;;  i               2   13[BANK1 ] unsigned int 
  2711 ;; Return value:  Size  Location     Type
  2712 ;;                  1    wreg      void 
  2713 ;; Registers used:
  2714 ;;		wreg, fsr0l, fsr0h, status,2, status,0, btemp+1, pclath, cstack
  2715 ;; Tracked objects:
  2716 ;;		On entry : 0/0
  2717 ;;		On exit  : 0/0
  2718 ;;		Unchanged: 0/0
  2719 ;; Data sizes:     COMMON   BANK0   BANK1   BANK3   BANK2
  2720 ;;      Params:         0       0       6       0       0
  2721 ;;      Locals:         0       0       2       0       0
  2722 ;;      Temps:          0       0       2       0       0
  2723 ;;      Totals:         0       0      10       0       0
  2724 ;;Total ram usage:       10 bytes
  2725 ;; Hardware stack levels used:    1
  2726 ;; Hardware stack levels required when called:    6
  2727 ;; This function calls:
  2728 ;;		_I2C_ACK
  2729 ;;		_I2C_Master_RepeatedStart
  2730 ;;		_I2C_Master_Start
  2731 ;;		_I2C_Master_Stop
  2732 ;;		_I2C_Master_Write
  2733 ;;		_I2C_Read_Byte
  2734 ;; This function is called by:
  2735 ;;		_FetchTemp
  2736 ;; This function uses a non-reentrant model
  2737 ;;
  2738                           
  2739                           
  2740                           ;psect for function _EEPROM_Read
  2741  099A                     _EEPROM_Read:
  2742  099A                     l2088:	
  2743                           ;incstack = 0
  2744 ;; hardware stack exceeded
  2745                           ; Regs used in _EEPROM_Read: [wreg-fsr0h+status,2+status,0+btemp+1+pclath+cstack]
  2746                           
  2747                           
  2748                           ;./I2C_EEPROM.h: 84:  I2C_Master_Start();
  2749  099A  160A  118A  2569  120A  158A  	fcall	_I2C_Master_Start
  2750                           
  2751                           ;./I2C_EEPROM.h: 86:  while (I2C_Master_Write(0xA0))
  2752  099F  29A5               	goto	l164
  2753  09A0                     l2090:
  2754                           
  2755                           ;./I2C_EEPROM.h: 87:   I2C_Master_RepeatedStart();
  2756  09A0  160A  118A  2560  120A  158A  	fcall	_I2C_Master_RepeatedStart
  2757  09A5                     l164:
  2758                           
  2759                           ;./I2C_EEPROM.h: 86:  while (I2C_Master_Write(0xA0))
  2760  09A5  30A0               	movlw	160
  2761  09A6  160A  118A  2610  120A  158A  	fcall	_I2C_Master_Write
  2762  09AB  3A00               	xorlw	0
  2763  09AC  1D03               	skipz
  2764  09AD  29AF               	goto	u2201
  2765  09AE  29B0               	goto	u2200
  2766  09AF                     u2201:
  2767  09AF  29A0               	goto	l2090
  2768  09B0                     u2200:
  2769  09B0                     l2092:
  2770                           
  2771                           ;./I2C_EEPROM.h: 88:  I2C_Master_Write(add >> 8);
  2772  09B0  1683               	bsf	3,5	;RP0=1, select bank1
  2773  09B1  1303               	bcf	3,6	;RP1=0, select bank1
  2774  09B2  0826               	movf	(EEPROM_Read@add+1)^(0+128),w
  2775  09B3  160A  118A  2610  120A  158A  	fcall	_I2C_Master_Write
  2776                           
  2777                           ;./I2C_EEPROM.h: 89:  I2C_Master_Write((unsigned char)add);
  2778  09B8  1683               	bsf	3,5	;RP0=1, select bank1
  2779  09B9  1303               	bcf	3,6	;RP1=0, select bank1
  2780  09BA  0825               	movf	EEPROM_Read@add^(0+128),w
  2781  09BB  160A  118A  2610  120A  158A  	fcall	_I2C_Master_Write
  2782                           
  2783                           ;./I2C_EEPROM.h: 90:  I2C_Master_RepeatedStart();
  2784  09C0  160A  118A  2560  120A  158A  	fcall	_I2C_Master_RepeatedStart
  2785                           
  2786                           ;./I2C_EEPROM.h: 91:  I2C_Master_Write(0xA1);
  2787  09C5  30A1               	movlw	161
  2788  09C6  160A  118A  2610  120A  158A  	fcall	_I2C_Master_Write
  2789  09CB                     l2094:
  2790                           
  2791                           ;./I2C_EEPROM.h: 92:  for (unsigned int i = 0; i < len; i++)
  2792  09CB  1683               	bsf	3,5	;RP0=1, select bank1
  2793  09CC  1303               	bcf	3,6	;RP1=0, select bank1
  2794  09CD  01AD               	clrf	EEPROM_Read@i^(0+128)
  2795  09CE  01AE               	clrf	(EEPROM_Read@i+1)^(0+128)
  2796  09CF  29F4               	goto	l2102
  2797  09D0                     l2096:
  2798                           
  2799                           ;./I2C_EEPROM.h: 93:  {;./I2C_EEPROM.h: 94:   data[i] = I2C_Read_Byte();
  2800  09D0  160A  118A  25F9  120A  158A  	fcall	_I2C_Read_Byte
  2801  09D5  00FF               	movwf	btemp+1
  2802  09D6  1683               	bsf	3,5	;RP0=1, select bank1
  2803  09D7  1303               	bcf	3,6	;RP1=0, select bank1
  2804  09D8  082D               	movf	EEPROM_Read@i^(0+128),w
  2805  09D9  0727               	addwf	EEPROM_Read@data^(0+128),w
  2806  09DA  00AB               	movwf	??_EEPROM_Read^(0+128)
  2807  09DB  082E               	movf	(EEPROM_Read@i+1)^(0+128),w
  2808  09DC  1803               	skipnc
  2809  09DD  0A2E               	incf	(EEPROM_Read@i+1)^(0+128),w
  2810  09DE  0728               	addwf	(EEPROM_Read@data+1)^(0+128),w
  2811  09DF  00AC               	movwf	(??_EEPROM_Read+1)^(0+128)
  2812  09E0  082B               	movf	??_EEPROM_Read^(0+128),w
  2813  09E1  0084               	movwf	4
  2814  09E2  1783               	bsf	3,7
  2815  09E3  1C2C               	btfss	(??_EEPROM_Read+1)^(0+128),0
  2816  09E4  1383               	bcf	3,7
  2817  09E5  087F               	movf	btemp+1,w
  2818  09E6  0080               	movwf	0
  2819  09E7                     l2098:
  2820                           
  2821                           ;./I2C_EEPROM.h: 95:   I2C_ACK();
  2822  09E7  160A  118A  2584  120A  158A  	fcall	_I2C_ACK
  2823  09EC                     l2100:
  2824                           
  2825                           ;./I2C_EEPROM.h: 96:  }
  2826  09EC  3001               	movlw	1
  2827  09ED  1683               	bsf	3,5	;RP0=1, select bank1
  2828  09EE  1303               	bcf	3,6	;RP1=0, select bank1
  2829  09EF  07AD               	addwf	EEPROM_Read@i^(0+128),f
  2830  09F0  1803               	skipnc
  2831  09F1  0AAE               	incf	(EEPROM_Read@i+1)^(0+128),f
  2832  09F2  3000               	movlw	0
  2833  09F3  07AE               	addwf	(EEPROM_Read@i+1)^(0+128),f
  2834  09F4                     l2102:
  2835  09F4  082A               	movf	(EEPROM_Read@len+1)^(0+128),w
  2836  09F5  022E               	subwf	(EEPROM_Read@i+1)^(0+128),w
  2837  09F6  1D03               	skipz
  2838  09F7  29FA               	goto	u2215
  2839  09F8  0829               	movf	EEPROM_Read@len^(0+128),w
  2840  09F9  022D               	subwf	EEPROM_Read@i^(0+128),w
  2841  09FA                     u2215:
  2842  09FA  1C03               	skipc
  2843  09FB  29FD               	goto	u2211
  2844  09FC  29FE               	goto	u2210
  2845  09FD                     u2211:
  2846  09FD  29D0               	goto	l2096
  2847  09FE                     u2210:
  2848  09FE                     l2104:
  2849                           
  2850                           ;./I2C_EEPROM.h: 97:  I2C_Master_Stop();
  2851  09FE  160A  118A  2572  120A  158A  	fcall	_I2C_Master_Stop
  2852  0A03                     l170:
  2853  0A03  0008               	return
  2854  0A04                     __end_of_EEPROM_Read:
  2855                           
  2856                           	psect	text18
  2857  15F9                     __ptext18:	
  2858 ;; *************** function _I2C_Read_Byte *****************
  2859 ;; Defined at:
  2860 ;;		line 53 in file "./I2C_EEPROM.h"
  2861 ;; Parameters:    Size  Location     Type
  2862 ;;		None
  2863 ;; Auto vars:     Size  Location     Type
  2864 ;;		None
  2865 ;; Return value:  Size  Location     Type
  2866 ;;                  1    wreg      unsigned char 
  2867 ;; Registers used:
  2868 ;;		wreg, status,2, status,0, pclath, cstack
  2869 ;; Tracked objects:
  2870 ;;		On entry : 0/0
  2871 ;;		On exit  : 0/0
  2872 ;;		Unchanged: 0/0
  2873 ;; Data sizes:     COMMON   BANK0   BANK1   BANK3   BANK2
  2874 ;;      Params:         0       0       0       0       0
  2875 ;;      Locals:         0       0       0       0       0
  2876 ;;      Temps:          0       0       0       0       0
  2877 ;;      Totals:         0       0       0       0       0
  2878 ;;Total ram usage:        0 bytes
  2879 ;; Hardware stack levels used:    1
  2880 ;; Hardware stack levels required when called:    5
  2881 ;; This function calls:
  2882 ;;		_I2C_Master_Wait
  2883 ;; This function is called by:
  2884 ;;		_EEPROM_Read
  2885 ;; This function uses a non-reentrant model
  2886 ;;
  2887                           
  2888                           
  2889                           ;psect for function _I2C_Read_Byte
  2890  15F9                     _I2C_Read_Byte:
  2891  15F9                     l2018:	
  2892                           ;incstack = 0
  2893 ;; hardware stack exceeded
  2894                           ; Regs used in _I2C_Read_Byte: [wreg+status,2+status,0+pclath+cstack]
  2895                           
  2896                           
  2897                           ;./I2C_EEPROM.h: 55:  I2C_Master_Wait();
  2898  15F9  160A  118A  2590  160A  118A  	fcall	_I2C_Master_Wait
  2899  15FE                     l2020:
  2900                           
  2901                           ;./I2C_EEPROM.h: 56:  RCEN = 1;
  2902  15FE  1683               	bsf	3,5	;RP0=1, select bank1
  2903  15FF  1303               	bcf	3,6	;RP1=0, select bank1
  2904  1600  1591               	bsf	17,3	;volatile
  2905  1601                     l143:	
  2906                           ;./I2C_EEPROM.h: 57:  while (!SSPIF);
  2907                           
  2908  1601  1283               	bcf	3,5	;RP0=0, select bank0
  2909  1602  1D8C               	btfss	12,3	;volatile
  2910  1603  2E05               	goto	u2091
  2911  1604  2E06               	goto	u2090
  2912  1605                     u2091:
  2913  1605  2E01               	goto	l143
  2914  1606                     u2090:
  2915  1606                     l145:
  2916                           
  2917                           ;./I2C_EEPROM.h: 58:  SSPIF = 0;
  2918  1606  118C               	bcf	12,3	;volatile
  2919  1607                     l2022:
  2920                           
  2921                           ;./I2C_EEPROM.h: 59:  I2C_Master_Wait();
  2922  1607  160A  118A  2590  160A  118A  	fcall	_I2C_Master_Wait
  2923  160C                     l2024:
  2924                           
  2925                           ;./I2C_EEPROM.h: 60:  return SSPBUF;
  2926  160C  1283               	bcf	3,5	;RP0=0, select bank0
  2927  160D  1303               	bcf	3,6	;RP1=0, select bank0
  2928  160E  0813               	movf	19,w	;volatile
  2929  160F                     l146:
  2930  160F  0008               	return
  2931  1610                     __end_of_I2C_Read_Byte:
  2932                           
  2933                           	psect	text19
  2934  1610                     __ptext19:	
  2935 ;; *************** function _I2C_Master_Write *****************
  2936 ;; Defined at:
  2937 ;;		line 46 in file "./I2C_EEPROM.h"
  2938 ;; Parameters:    Size  Location     Type
  2939 ;;  data            1    wreg     unsigned char 
  2940 ;; Auto vars:     Size  Location     Type
  2941 ;;  data            1    4[BANK1 ] unsigned char 
  2942 ;; Return value:  Size  Location     Type
  2943 ;;                  1    wreg      unsigned char 
  2944 ;; Registers used:
  2945 ;;		wreg, status,2, status,0, pclath, cstack
  2946 ;; Tracked objects:
  2947 ;;		On entry : 0/0
  2948 ;;		On exit  : 0/0
  2949 ;;		Unchanged: 0/0
  2950 ;; Data sizes:     COMMON   BANK0   BANK1   BANK3   BANK2
  2951 ;;      Params:         0       0       0       0       0
  2952 ;;      Locals:         0       0       1       0       0
  2953 ;;      Temps:          0       0       0       0       0
  2954 ;;      Totals:         0       0       1       0       0
  2955 ;;Total ram usage:        1 bytes
  2956 ;; Hardware stack levels used:    1
  2957 ;; Hardware stack levels required when called:    5
  2958 ;; This function calls:
  2959 ;;		_I2C_Master_Wait
  2960 ;; This function is called by:
  2961 ;;		_EEPROM_Write
  2962 ;;		_EEPROM_Read
  2963 ;; This function uses a non-reentrant model
  2964 ;;
  2965                           
  2966                           
  2967                           ;psect for function _I2C_Master_Write
  2968  1610                     _I2C_Master_Write:
  2969                           
  2970                           ;incstack = 0
  2971 ;; hardware stack exceeded
  2972                           ; Regs used in _I2C_Master_Write: [wreg+status,2+status,0+pclath+cstack]
  2973                           ;I2C_Master_Write@data stored from wreg
  2974  1610  1683               	bsf	3,5	;RP0=1, select bank1
  2975  1611  1303               	bcf	3,6	;RP1=0, select bank1
  2976  1612  00A4               	movwf	I2C_Master_Write@data^(0+128)
  2977  1613                     l2010:
  2978                           
  2979                           ;./I2C_EEPROM.h: 47:  I2C_Master_Wait();
  2980  1613  160A  118A  2590  160A  118A  	fcall	_I2C_Master_Wait
  2981  1618                     l2012:
  2982                           
  2983                           ;./I2C_EEPROM.h: 48:  SSPBUF = data;
  2984  1618  1683               	bsf	3,5	;RP0=1, select bank1
  2985  1619  1303               	bcf	3,6	;RP1=0, select bank1
  2986  161A  0824               	movf	I2C_Master_Write@data^(0+128),w
  2987  161B  1283               	bcf	3,5	;RP0=0, select bank0
  2988  161C  1303               	bcf	3,6	;RP1=0, select bank0
  2989  161D  0093               	movwf	19	;volatile
  2990  161E                     l137:	
  2991                           ;./I2C_EEPROM.h: 49:  while (!SSPIF);
  2992                           
  2993  161E  1D8C               	btfss	12,3	;volatile
  2994  161F  2E21               	goto	u2081
  2995  1620  2E22               	goto	u2080
  2996  1621                     u2081:
  2997  1621  2E1E               	goto	l137
  2998  1622                     u2080:
  2999  1622                     l139:
  3000                           
  3001                           ;./I2C_EEPROM.h: 50:  SSPIF = 0;
  3002  1622  118C               	bcf	12,3	;volatile
  3003  1623                     l2014:
  3004                           
  3005                           ;./I2C_EEPROM.h: 51:  return ACKSTAT;
  3006  1623  3000               	movlw	0
  3007  1624  1683               	bsf	3,5	;RP0=1, select bank1
  3008  1625  1303               	bcf	3,6	;RP1=0, select bank1
  3009  1626  1B11               	btfsc	17,6	;volatile
  3010  1627  3001               	movlw	1
  3011  1628                     l140:
  3012  1628  0008               	return
  3013  1629                     __end_of_I2C_Master_Write:
  3014                           
  3015                           	psect	text20
  3016  1572                     __ptext20:	
  3017 ;; *************** function _I2C_Master_Stop *****************
  3018 ;; Defined at:
  3019 ;;		line 42 in file "./I2C_EEPROM.h"
  3020 ;; Parameters:    Size  Location     Type
  3021 ;;		None
  3022 ;; Auto vars:     Size  Location     Type
  3023 ;;		None
  3024 ;; Return value:  Size  Location     Type
  3025 ;;                  1    wreg      void 
  3026 ;; Registers used:
  3027 ;;		wreg, status,2, status,0, pclath, cstack
  3028 ;; Tracked objects:
  3029 ;;		On entry : 0/0
  3030 ;;		On exit  : 0/0
  3031 ;;		Unchanged: 0/0
  3032 ;; Data sizes:     COMMON   BANK0   BANK1   BANK3   BANK2
  3033 ;;      Params:         0       0       0       0       0
  3034 ;;      Locals:         0       0       0       0       0
  3035 ;;      Temps:          0       0       0       0       0
  3036 ;;      Totals:         0       0       0       0       0
  3037 ;;Total ram usage:        0 bytes
  3038 ;; Hardware stack levels used:    1
  3039 ;; Hardware stack levels required when called:    5
  3040 ;; This function calls:
  3041 ;;		_I2C_Master_Wait
  3042 ;; This function is called by:
  3043 ;;		_EEPROM_Write
  3044 ;;		_EEPROM_Read
  3045 ;; This function uses a non-reentrant model
  3046 ;;
  3047                           
  3048                           
  3049                           ;psect for function _I2C_Master_Stop
  3050  1572                     _I2C_Master_Stop:
  3051  1572                     l2006:	
  3052                           ;incstack = 0
  3053 ;; hardware stack exceeded
  3054                           ; Regs used in _I2C_Master_Stop: [wreg+status,2+status,0+pclath+cstack]
  3055                           
  3056                           
  3057                           ;./I2C_EEPROM.h: 43:  I2C_Master_Wait();
  3058  1572  160A  118A  2590  160A  118A  	fcall	_I2C_Master_Wait
  3059  1577                     l2008:
  3060                           
  3061                           ;./I2C_EEPROM.h: 44:  PEN = 1;
  3062  1577  1683               	bsf	3,5	;RP0=1, select bank1
  3063  1578  1303               	bcf	3,6	;RP1=0, select bank1
  3064  1579  1511               	bsf	17,2	;volatile
  3065  157A                     l134:
  3066  157A  0008               	return
  3067  157B                     __end_of_I2C_Master_Stop:
  3068                           
  3069                           	psect	text21
  3070  1569                     __ptext21:	
  3071 ;; *************** function _I2C_Master_Start *****************
  3072 ;; Defined at:
  3073 ;;		line 34 in file "./I2C_EEPROM.h"
  3074 ;; Parameters:    Size  Location     Type
  3075 ;;		None
  3076 ;; Auto vars:     Size  Location     Type
  3077 ;;		None
  3078 ;; Return value:  Size  Location     Type
  3079 ;;                  1    wreg      void 
  3080 ;; Registers used:
  3081 ;;		wreg, status,2, status,0, pclath, cstack
  3082 ;; Tracked objects:
  3083 ;;		On entry : 0/0
  3084 ;;		On exit  : 0/0
  3085 ;;		Unchanged: 0/0
  3086 ;; Data sizes:     COMMON   BANK0   BANK1   BANK3   BANK2
  3087 ;;      Params:         0       0       0       0       0
  3088 ;;      Locals:         0       0       0       0       0
  3089 ;;      Temps:          0       0       0       0       0
  3090 ;;      Totals:         0       0       0       0       0
  3091 ;;Total ram usage:        0 bytes
  3092 ;; Hardware stack levels used:    1
  3093 ;; Hardware stack levels required when called:    5
  3094 ;; This function calls:
  3095 ;;		_I2C_Master_Wait
  3096 ;; This function is called by:
  3097 ;;		_EEPROM_Write
  3098 ;;		_EEPROM_Read
  3099 ;; This function uses a non-reentrant model
  3100 ;;
  3101                           
  3102                           
  3103                           ;psect for function _I2C_Master_Start
  3104  1569                     _I2C_Master_Start:
  3105  1569                     l1998:	
  3106                           ;incstack = 0
  3107 ;; hardware stack exceeded
  3108                           ; Regs used in _I2C_Master_Start: [wreg+status,2+status,0+pclath+cstack]
  3109                           
  3110                           
  3111                           ;./I2C_EEPROM.h: 35:  I2C_Master_Wait();
  3112  1569  160A  118A  2590  160A  118A  	fcall	_I2C_Master_Wait
  3113  156E                     l2000:
  3114                           
  3115                           ;./I2C_EEPROM.h: 36:  SEN = 1;
  3116  156E  1683               	bsf	3,5	;RP0=1, select bank1
  3117  156F  1303               	bcf	3,6	;RP1=0, select bank1
  3118  1570  1411               	bsf	17,0	;volatile
  3119  1571                     l128:
  3120  1571  0008               	return
  3121  1572                     __end_of_I2C_Master_Start:
  3122                           
  3123                           	psect	text22
  3124  1560                     __ptext22:	
  3125 ;; *************** function _I2C_Master_RepeatedStart *****************
  3126 ;; Defined at:
  3127 ;;		line 38 in file "./I2C_EEPROM.h"
  3128 ;; Parameters:    Size  Location     Type
  3129 ;;		None
  3130 ;; Auto vars:     Size  Location     Type
  3131 ;;		None
  3132 ;; Return value:  Size  Location     Type
  3133 ;;                  1    wreg      void 
  3134 ;; Registers used:
  3135 ;;		wreg, status,2, status,0, pclath, cstack
  3136 ;; Tracked objects:
  3137 ;;		On entry : 0/0
  3138 ;;		On exit  : 0/0
  3139 ;;		Unchanged: 0/0
  3140 ;; Data sizes:     COMMON   BANK0   BANK1   BANK3   BANK2
  3141 ;;      Params:         0       0       0       0       0
  3142 ;;      Locals:         0       0       0       0       0
  3143 ;;      Temps:          0       0       0       0       0
  3144 ;;      Totals:         0       0       0       0       0
  3145 ;;Total ram usage:        0 bytes
  3146 ;; Hardware stack levels used:    1
  3147 ;; Hardware stack levels required when called:    5
  3148 ;; This function calls:
  3149 ;;		_I2C_Master_Wait
  3150 ;; This function is called by:
  3151 ;;		_EEPROM_Write
  3152 ;;		_EEPROM_Read
  3153 ;; This function uses a non-reentrant model
  3154 ;;
  3155                           
  3156                           
  3157                           ;psect for function _I2C_Master_RepeatedStart
  3158  1560                     _I2C_Master_RepeatedStart:
  3159  1560                     l2002:	
  3160                           ;incstack = 0
  3161 ;; hardware stack exceeded
  3162                           ; Regs used in _I2C_Master_RepeatedStart: [wreg+status,2+status,0+pclath+cstack]
  3163                           
  3164                           
  3165                           ;./I2C_EEPROM.h: 39:  I2C_Master_Wait();
  3166  1560  160A  118A  2590  160A  118A  	fcall	_I2C_Master_Wait
  3167  1565                     l2004:
  3168                           
  3169                           ;./I2C_EEPROM.h: 40:  RSEN = 1;
  3170  1565  1683               	bsf	3,5	;RP0=1, select bank1
  3171  1566  1303               	bcf	3,6	;RP1=0, select bank1
  3172  1567  1491               	bsf	17,1	;volatile
  3173  1568                     l131:
  3174  1568  0008               	return
  3175  1569                     __end_of_I2C_Master_RepeatedStart:
  3176                           
  3177                           	psect	text23
  3178  1584                     __ptext23:	
  3179 ;; *************** function _I2C_ACK *****************
  3180 ;; Defined at:
  3181 ;;		line 62 in file "./I2C_EEPROM.h"
  3182 ;; Parameters:    Size  Location     Type
  3183 ;;		None
  3184 ;; Auto vars:     Size  Location     Type
  3185 ;;		None
  3186 ;; Return value:  Size  Location     Type
  3187 ;;                  1    wreg      void 
  3188 ;; Registers used:
  3189 ;;		wreg, status,2, status,0, pclath, cstack
  3190 ;; Tracked objects:
  3191 ;;		On entry : 0/0
  3192 ;;		On exit  : 0/0
  3193 ;;		Unchanged: 0/0
  3194 ;; Data sizes:     COMMON   BANK0   BANK1   BANK3   BANK2
  3195 ;;      Params:         0       0       0       0       0
  3196 ;;      Locals:         0       0       0       0       0
  3197 ;;      Temps:          0       0       0       0       0
  3198 ;;      Totals:         0       0       0       0       0
  3199 ;;Total ram usage:        0 bytes
  3200 ;; Hardware stack levels used:    1
  3201 ;; Hardware stack levels required when called:    5
  3202 ;; This function calls:
  3203 ;;		_I2C_Master_Wait
  3204 ;; This function is called by:
  3205 ;;		_EEPROM_Read
  3206 ;; This function uses a non-reentrant model
  3207 ;;
  3208                           
  3209                           
  3210                           ;psect for function _I2C_ACK
  3211  1584                     _I2C_ACK:
  3212  1584                     l2028:	
  3213                           ;incstack = 0
  3214 ;; hardware stack exceeded
  3215                           ; Regs used in _I2C_ACK: [wreg+status,2+status,0+pclath+cstack]
  3216                           
  3217                           
  3218                           ;./I2C_EEPROM.h: 63:  ACKDT = 0;
  3219  1584  1683               	bsf	3,5	;RP0=1, select bank1
  3220  1585  1303               	bcf	3,6	;RP1=0, select bank1
  3221  1586  1291               	bcf	17,5	;volatile
  3222  1587                     l2030:
  3223                           
  3224                           ;./I2C_EEPROM.h: 64:  I2C_Master_Wait();
  3225  1587  160A  118A  2590  160A  118A  	fcall	_I2C_Master_Wait
  3226  158C                     l2032:
  3227                           
  3228                           ;./I2C_EEPROM.h: 65:  ACKEN = 1;
  3229  158C  1683               	bsf	3,5	;RP0=1, select bank1
  3230  158D  1303               	bcf	3,6	;RP1=0, select bank1
  3231  158E  1611               	bsf	17,4	;volatile
  3232  158F                     l149:
  3233  158F  0008               	return
  3234  1590                     __end_of_I2C_ACK:
  3235                           
  3236                           	psect	text24
  3237  1590                     __ptext24:	
  3238 ;; *************** function _I2C_Master_Wait *****************
  3239 ;; Defined at:
  3240 ;;		line 31 in file "./I2C_EEPROM.h"
  3241 ;; Parameters:    Size  Location     Type
  3242 ;;		None
  3243 ;; Auto vars:     Size  Location     Type
  3244 ;;		None
  3245 ;; Return value:  Size  Location     Type
  3246 ;;                  1    wreg      void 
  3247 ;; Registers used:
  3248 ;;		wreg, status,2
  3249 ;; Tracked objects:
  3250 ;;		On entry : 0/0
  3251 ;;		On exit  : 0/0
  3252 ;;		Unchanged: 0/0
  3253 ;; Data sizes:     COMMON   BANK0   BANK1   BANK3   BANK2
  3254 ;;      Params:         0       0       0       0       0
  3255 ;;      Locals:         0       0       0       0       0
  3256 ;;      Temps:          0       0       0       0       0
  3257 ;;      Totals:         0       0       0       0       0
  3258 ;;Total ram usage:        0 bytes
  3259 ;; Hardware stack levels used:    1
  3260 ;; Hardware stack levels required when called:    4
  3261 ;; This function calls:
  3262 ;;		Nothing
  3263 ;; This function is called by:
  3264 ;;		_I2C_Master_Start
  3265 ;;		_I2C_Master_RepeatedStart
  3266 ;;		_I2C_Master_Stop
  3267 ;;		_I2C_Master_Write
  3268 ;;		_I2C_Read_Byte
  3269 ;;		_I2C_ACK
  3270 ;;		_I2C_NACK
  3271 ;; This function uses a non-reentrant model
  3272 ;;
  3273                           
  3274                           
  3275                           ;psect for function _I2C_Master_Wait
  3276  1590                     _I2C_Master_Wait:
  3277  1590                     l1994:	
  3278                           ;incstack = 0
  3279 ;; hardware stack exceeded
  3280                           ; Regs used in _I2C_Master_Wait: [wreg+status,2]
  3281                           
  3282  1590                     l122:	
  3283                           ;./I2C_EEPROM.h: 32:  while ((SSPSTAT & 0x04) || (SSPCON2 & 0x1F));
  3284                           
  3285  1590  1683               	bsf	3,5	;RP0=1, select bank1
  3286  1591  1303               	bcf	3,6	;RP1=0, select bank1
  3287  1592  1914               	btfsc	20,2	;volatile
  3288  1593  2D95               	goto	u2061
  3289  1594  2D96               	goto	u2060
  3290  1595                     u2061:
  3291  1595  2D90               	goto	l122
  3292  1596                     u2060:
  3293  1596                     l1996:
  3294  1596  0811               	movf	17,w	;volatile
  3295  1597  391F               	andlw	31
  3296  1598  1D03               	btfss	3,2
  3297  1599  2D9B               	goto	u2071
  3298  159A  2D9C               	goto	u2070
  3299  159B                     u2071:
  3300  159B  2D90               	goto	l122
  3301  159C                     u2070:
  3302  159C                     l125:
  3303  159C  0008               	return
  3304  159D                     __end_of_I2C_Master_Wait:
  3305                           
  3306                           	psect	text25
  3307  0867                     __ptext25:	
  3308 ;; *************** function _HeatingCoolingElement *****************
  3309 ;; Defined at:
  3310 ;;		line 135 in file "./Temperature.h"
  3311 ;; Parameters:    Size  Location     Type
  3312 ;;		None
  3313 ;; Auto vars:     Size  Location     Type
  3314 ;;		None
  3315 ;; Return value:  Size  Location     Type
  3316 ;;                  1    wreg      void 
  3317 ;; Registers used:
  3318 ;;		wreg, status,2, status,0
  3319 ;; Tracked objects:
  3320 ;;		On entry : 0/0
  3321 ;;		On exit  : 0/0
  3322 ;;		Unchanged: 0/0
  3323 ;; Data sizes:     COMMON   BANK0   BANK1   BANK3   BANK2
  3324 ;;      Params:         0       0       0       0       0
  3325 ;;      Locals:         0       0       0       0       0
  3326 ;;      Temps:          0       0       2       0       0
  3327 ;;      Totals:         0       0       2       0       0
  3328 ;;Total ram usage:        2 bytes
  3329 ;; Hardware stack levels used:    1
  3330 ;; Hardware stack levels required when called:    4
  3331 ;; This function calls:
  3332 ;;		Nothing
  3333 ;; This function is called by:
  3334 ;;		_SettingMode
  3335 ;; This function uses a non-reentrant model
  3336 ;;
  3337                           
  3338                           
  3339                           ;psect for function _HeatingCoolingElement
  3340  0867                     _HeatingCoolingElement:
  3341  0867                     l2794:	
  3342                           ;incstack = 0
  3343                           ; Regs used in _HeatingCoolingElement: [wreg+status,2+status,0]
  3344                           
  3345                           
  3346                           ;./Temperature.h: 137:     if ((Temp - averageTemp) >= 5){
  3347  0867  1683               	bsf	3,5	;RP0=1, select bank1
  3348  0868  1303               	bcf	3,6	;RP1=0, select bank1
  3349  0869  0855               	movf	_averageTemp^(0+128),w
  3350  086A  0267               	subwf	_Temp^(0+128),w
  3351  086B  00A4               	movwf	??_HeatingCoolingElement^(0+128)
  3352  086C  0856               	movf	(_averageTemp+1)^(0+128),w
  3353  086D  1C03               	skipc
  3354  086E  0A56               	incf	(_averageTemp+1)^(0+128),w
  3355  086F  0268               	subwf	(_Temp+1)^(0+128),w
  3356  0870  00A5               	movwf	(??_HeatingCoolingElement+1)^(0+128)
  3357  0871  3000               	movlw	0
  3358  0872  0225               	subwf	(??_HeatingCoolingElement+1)^(0+128),w
  3359  0873  3005               	movlw	5
  3360  0874  1903               	skipnz
  3361  0875  0224               	subwf	??_HeatingCoolingElement^(0+128),w
  3362  0876  1C03               	skipc
  3363  0877  2879               	goto	u3591
  3364  0878  287A               	goto	u3590
  3365  0879                     u3591:
  3366  0879  2880               	goto	l2798
  3367  087A                     u3590:
  3368  087A                     l2796:
  3369                           
  3370                           ;./Temperature.h: 138:         PORTCbits.RC5 = 1;
  3371  087A  1283               	bcf	3,5	;RP0=0, select bank0
  3372  087B  1303               	bcf	3,6	;RP1=0, select bank0
  3373  087C  1687               	bsf	7,5	;volatile
  3374                           
  3375                           ;./Temperature.h: 139:         PORTCbits.RC2 = 0;
  3376  087D  1107               	bcf	7,2	;volatile
  3377                           
  3378                           ;./Temperature.h: 140:         TMR2ON =1;
  3379  087E  1512               	bsf	18,2	;volatile
  3380                           
  3381                           ;./Temperature.h: 141:     }
  3382  087F  28C0               	goto	l2806
  3383  0880                     l2798:
  3384  0880  0867               	movf	_Temp^(0+128),w
  3385  0881  0255               	subwf	_averageTemp^(0+128),w
  3386  0882  00A4               	movwf	??_HeatingCoolingElement^(0+128)
  3387  0883  0868               	movf	(_Temp+1)^(0+128),w
  3388  0884  1C03               	skipc
  3389  0885  0A68               	incf	(_Temp+1)^(0+128),w
  3390  0886  0256               	subwf	(_averageTemp+1)^(0+128),w
  3391  0887  00A5               	movwf	(??_HeatingCoolingElement+1)^(0+128)
  3392  0888  3000               	movlw	0
  3393  0889  0225               	subwf	(??_HeatingCoolingElement+1)^(0+128),w
  3394  088A  3005               	movlw	5
  3395  088B  1903               	skipnz
  3396  088C  0224               	subwf	??_HeatingCoolingElement^(0+128),w
  3397  088D  1C03               	skipc
  3398  088E  2890               	goto	u3601
  3399  088F  2891               	goto	u3600
  3400  0890                     u3601:
  3401  0890  2898               	goto	l2802
  3402  0891                     u3600:
  3403  0891                     l2800:
  3404                           
  3405                           ;./Temperature.h: 143:         PORTCbits.RC5 = 0,
  3406  0891  1283               	bcf	3,5	;RP0=0, select bank0
  3407  0892  1303               	bcf	3,6	;RP1=0, select bank0
  3408  0893  1287               	bcf	7,5	;volatile
  3409  0894  1507               	bsf	7,2	;volatile
  3410                           
  3411                           ;./Temperature.h: 145:         TMR2ON =0;
  3412  0895  1112               	bcf	18,2	;volatile
  3413                           
  3414                           ;./Temperature.h: 146:         PORTBbits.RB1 = 1;
  3415  0896  1486               	bsf	6,1	;volatile
  3416                           
  3417                           ;./Temperature.h: 147:     }
  3418  0897  28C0               	goto	l2806
  3419  0898                     l2802:
  3420  0898  0867               	movf	_Temp^(0+128),w
  3421  0899  0255               	subwf	_averageTemp^(0+128),w
  3422  089A  00A4               	movwf	??_HeatingCoolingElement^(0+128)
  3423  089B  0868               	movf	(_Temp+1)^(0+128),w
  3424  089C  1C03               	skipc
  3425  089D  0A68               	incf	(_Temp+1)^(0+128),w
  3426  089E  0256               	subwf	(_averageTemp+1)^(0+128),w
  3427  089F  00A5               	movwf	(??_HeatingCoolingElement+1)^(0+128)
  3428  08A0  3000               	movlw	0
  3429  08A1  0225               	subwf	(??_HeatingCoolingElement+1)^(0+128),w
  3430  08A2  3006               	movlw	6
  3431  08A3  1903               	skipnz
  3432  08A4  0224               	subwf	??_HeatingCoolingElement^(0+128),w
  3433  08A5  1C03               	skipc
  3434  08A6  28A8               	goto	u3611
  3435  08A7  28A9               	goto	u3610
  3436  08A8                     u3611:
  3437  08A8  28BA               	goto	l279
  3438  08A9                     u3610:
  3439  08A9                     l2804:
  3440  08A9  0855               	movf	_averageTemp^(0+128),w
  3441  08AA  0267               	subwf	_Temp^(0+128),w
  3442  08AB  00A4               	movwf	??_HeatingCoolingElement^(0+128)
  3443  08AC  0856               	movf	(_averageTemp+1)^(0+128),w
  3444  08AD  1C03               	skipc
  3445  08AE  0A56               	incf	(_averageTemp+1)^(0+128),w
  3446  08AF  0268               	subwf	(_Temp+1)^(0+128),w
  3447  08B0  00A5               	movwf	(??_HeatingCoolingElement+1)^(0+128)
  3448  08B1  3000               	movlw	0
  3449  08B2  0225               	subwf	(??_HeatingCoolingElement+1)^(0+128),w
  3450  08B3  3005               	movlw	5
  3451  08B4  1903               	skipnz
  3452  08B5  0224               	subwf	??_HeatingCoolingElement^(0+128),w
  3453  08B6  1C03               	skipc
  3454  08B7  28B9               	goto	u3621
  3455  08B8  28BA               	goto	u3620
  3456  08B9                     u3621:
  3457  08B9  28C0               	goto	l2806
  3458  08BA                     u3620:
  3459  08BA                     l279:
  3460                           
  3461                           ;./Temperature.h: 149:         PORTCbits.RC5 = 0,
  3462  08BA  1283               	bcf	3,5	;RP0=0, select bank0
  3463  08BB  1303               	bcf	3,6	;RP1=0, select bank0
  3464  08BC  1287               	bcf	7,5	;volatile
  3465  08BD  1107               	bcf	7,2	;volatile
  3466                           
  3467                           ;./Temperature.h: 151:         TMR2ON =0;
  3468  08BE  1112               	bcf	18,2	;volatile
  3469                           
  3470                           ;./Temperature.h: 152:         PORTBbits.RB1 = 0;
  3471  08BF  1086               	bcf	6,1	;volatile
  3472  08C0                     l2806:
  3473                           
  3474                           ;./Temperature.h: 154:     _delay((unsigned long)((10)*(20000000/4000.0)));
  3475  08C0  3041               	movlw	65
  3476  08C1  1683               	bsf	3,5	;RP0=1, select bank1
  3477  08C2  1303               	bcf	3,6	;RP1=0, select bank1
  3478  08C3  00A5               	movwf	(??_HeatingCoolingElement^(0+128)+1)
  3479  08C4  30ED               	movlw	237
  3480  08C5  00A4               	movwf	??_HeatingCoolingElement^(0+128)
  3481  08C6                     u4207:
  3482  08C6  0BA4               	decfsz	??_HeatingCoolingElement^(0+128),f
  3483  08C7  28C6               	goto	u4207
  3484  08C8  0BA5               	decfsz	(??_HeatingCoolingElement^(0+128)+1),f
  3485  08C9  28C6               	goto	u4207
  3486  08CA  28CB               	nop2
  3487  08CB                     l280:
  3488  08CB  0008               	return
  3489  08CC                     __end_of_HeatingCoolingElement:
  3490                           
  3491                           	psect	text26
  3492  0A04                     __ptext26:	
  3493 ;; *************** function _CurrentTempDisplay *****************
  3494 ;; Defined at:
  3495 ;;		line 50 in file "./Temperature.h"
  3496 ;; Parameters:    Size  Location     Type
  3497 ;;		None
  3498 ;; Auto vars:     Size  Location     Type
  3499 ;;  b               2   20[BANK1 ] unsigned int 
  3500 ;;  a               2   18[BANK1 ] unsigned int 
  3501 ;; Return value:  Size  Location     Type
  3502 ;;                  1    wreg      void 
  3503 ;; Registers used:
  3504 ;;		wreg, fsr0l, fsr0h, status,2, status,0, btemp+1, pclath, cstack
  3505 ;; Tracked objects:
  3506 ;;		On entry : 0/0
  3507 ;;		On exit  : 0/0
  3508 ;;		Unchanged: 0/0
  3509 ;; Data sizes:     COMMON   BANK0   BANK1   BANK3   BANK2
  3510 ;;      Params:         0       0       0       0       0
  3511 ;;      Locals:         0       0       4       0       0
  3512 ;;      Temps:          0       0       2       0       0
  3513 ;;      Totals:         0       0       6       0       0
  3514 ;;Total ram usage:        6 bytes
  3515 ;; Hardware stack levels used:    1
  3516 ;; Hardware stack levels required when called:    5
  3517 ;; This function calls:
  3518 ;;		___lwdiv
  3519 ;;		___lwmod
  3520 ;; This function is called by:
  3521 ;;		_main
  3522 ;; This function uses a non-reentrant model
  3523 ;;
  3524                           
  3525                           
  3526                           ;psect for function _CurrentTempDisplay
  3527  0A04                     _CurrentTempDisplay:
  3528  0A04                     l2958:	
  3529                           ;incstack = 0
  3530                           ; Regs used in _CurrentTempDisplay: [wreg-fsr0h+status,2+status,0+btemp+1+pclath+cstack]
  3531                           
  3532                           
  3533                           ;./Temperature.h: 51:     unsigned int a,b;;./Temperature.h: 52:     a = ((currentTemp/1
      +                          0)%10);
  3534  0A04  300A               	movlw	10
  3535  0A05  1683               	bsf	3,5	;RP0=1, select bank1
  3536  0A06  1303               	bcf	3,6	;RP1=0, select bank1
  3537  0A07  00AB               	movwf	___lwmod@divisor^(0+128)
  3538  0A08  3000               	movlw	0
  3539  0A09  00AC               	movwf	(___lwmod@divisor^(0+128)+1)
  3540  0A0A  300A               	movlw	10
  3541  0A0B  00A4               	movwf	___lwdiv@divisor^(0+128)
  3542  0A0C  3000               	movlw	0
  3543  0A0D  00A5               	movwf	(___lwdiv@divisor^(0+128)+1)
  3544  0A0E  0858               	movf	(_currentTemp+1)^(0+128),w
  3545  0A0F  00A7               	movwf	(___lwdiv@dividend+1)^(0+128)
  3546  0A10  0857               	movf	_currentTemp^(0+128),w
  3547  0A11  00A6               	movwf	___lwdiv@dividend^(0+128)
  3548  0A12  160A  118A  2761  120A  158A  	fcall	___lwdiv
  3549  0A17  1683               	bsf	3,5	;RP0=1, select bank1
  3550  0A18  1303               	bcf	3,6	;RP1=0, select bank1
  3551  0A19  0825               	movf	(?___lwdiv+1)^(0+128),w
  3552  0A1A  00AE               	movwf	(___lwmod@dividend+1)^(0+128)
  3553  0A1B  0824               	movf	?___lwdiv^(0+128),w
  3554  0A1C  00AD               	movwf	___lwmod@dividend^(0+128)
  3555  0A1D  160A  118A  2725  120A  158A  	fcall	___lwmod
  3556  0A22  1683               	bsf	3,5	;RP0=1, select bank1
  3557  0A23  1303               	bcf	3,6	;RP1=0, select bank1
  3558  0A24  082C               	movf	(?___lwmod+1)^(0+128),w
  3559  0A25  00B3               	movwf	(CurrentTempDisplay@a+1)^(0+128)
  3560  0A26  082B               	movf	?___lwmod^(0+128),w
  3561  0A27  00B2               	movwf	CurrentTempDisplay@a^(0+128)
  3562                           
  3563                           ;./Temperature.h: 53:     b = (currentTemp%10);
  3564  0A28  300A               	movlw	10
  3565  0A29  00AB               	movwf	___lwmod@divisor^(0+128)
  3566  0A2A  3000               	movlw	0
  3567  0A2B  00AC               	movwf	(___lwmod@divisor^(0+128)+1)
  3568  0A2C  0858               	movf	(_currentTemp+1)^(0+128),w
  3569  0A2D  00AE               	movwf	(___lwmod@dividend+1)^(0+128)
  3570  0A2E  0857               	movf	_currentTemp^(0+128),w
  3571  0A2F  00AD               	movwf	___lwmod@dividend^(0+128)
  3572  0A30  160A  118A  2725  120A  158A  	fcall	___lwmod
  3573  0A35  1683               	bsf	3,5	;RP0=1, select bank1
  3574  0A36  1303               	bcf	3,6	;RP1=0, select bank1
  3575  0A37  082C               	movf	(?___lwmod+1)^(0+128),w
  3576  0A38  00B5               	movwf	(CurrentTempDisplay@b+1)^(0+128)
  3577  0A39  082B               	movf	?___lwmod^(0+128),w
  3578  0A3A  00B4               	movwf	CurrentTempDisplay@b^(0+128)
  3579  0A3B                     l2960:
  3580                           
  3581                           ;./Temperature.h: 55:     RA4 = 1;
  3582  0A3B  1283               	bcf	3,5	;RP0=0, select bank0
  3583  0A3C  1303               	bcf	3,6	;RP1=0, select bank0
  3584  0A3D  1605               	bsf	5,4	;volatile
  3585  0A3E                     l2962:
  3586                           
  3587                           ;./Temperature.h: 56:     PORTD = binary_pattern[a];
  3588  0A3E  1683               	bsf	3,5	;RP0=1, select bank1
  3589  0A3F  1303               	bcf	3,6	;RP1=0, select bank1
  3590  0A40  0832               	movf	CurrentTempDisplay@a^(0+128),w
  3591  0A41  3EDB               	addlw	(low (_binary_pattern| 0))& (0+255)
  3592  0A42  0084               	movwf	4
  3593  0A43  1383               	bcf	3,7	;select IRP bank1
  3594  0A44  0800               	movf	0,w
  3595  0A45  1283               	bcf	3,5	;RP0=0, select bank0
  3596  0A46  1303               	bcf	3,6	;RP1=0, select bank0
  3597  0A47  0088               	movwf	8	;volatile
  3598  0A48                     l2964:
  3599                           
  3600                           ;./Temperature.h: 57:     _delay((unsigned long)((1)*(20000000/4000.0)));
  3601  0A48  3007               	movlw	7
  3602  0A49  1683               	bsf	3,5	;RP0=1, select bank1
  3603  0A4A  1303               	bcf	3,6	;RP1=0, select bank1
  3604  0A4B  00B1               	movwf	(??_CurrentTempDisplay^(0+128)+1)
  3605  0A4C  307C               	movlw	124
  3606  0A4D  00B0               	movwf	??_CurrentTempDisplay^(0+128)
  3607  0A4E                     u4217:
  3608  0A4E  0BB0               	decfsz	??_CurrentTempDisplay^(0+128),f
  3609  0A4F  2A4E               	goto	u4217
  3610  0A50  0BB1               	decfsz	(??_CurrentTempDisplay^(0+128)+1),f
  3611  0A51  2A4E               	goto	u4217
  3612  0A52  0000               	nop
  3613  0A53                     l2966:
  3614                           
  3615                           ;./Temperature.h: 58:     RA4 = 0;
  3616  0A53  1283               	bcf	3,5	;RP0=0, select bank0
  3617  0A54  1303               	bcf	3,6	;RP1=0, select bank0
  3618  0A55  1205               	bcf	5,4	;volatile
  3619  0A56                     l2968:
  3620                           
  3621                           ;./Temperature.h: 59:     RA5 = 1;
  3622  0A56  1685               	bsf	5,5	;volatile
  3623  0A57                     l2970:
  3624                           
  3625                           ;./Temperature.h: 60:     PORTD = binary_pattern[b];
  3626  0A57  1683               	bsf	3,5	;RP0=1, select bank1
  3627  0A58  1303               	bcf	3,6	;RP1=0, select bank1
  3628  0A59  0834               	movf	CurrentTempDisplay@b^(0+128),w
  3629  0A5A  3EDB               	addlw	(low (_binary_pattern| 0))& (0+255)
  3630  0A5B  0084               	movwf	4
  3631  0A5C  1383               	bcf	3,7	;select IRP bank1
  3632  0A5D  0800               	movf	0,w
  3633  0A5E  1283               	bcf	3,5	;RP0=0, select bank0
  3634  0A5F  1303               	bcf	3,6	;RP1=0, select bank0
  3635  0A60  0088               	movwf	8	;volatile
  3636  0A61                     l2972:
  3637                           
  3638                           ;./Temperature.h: 61:     _delay((unsigned long)((1)*(20000000/4000.0)));
  3639  0A61  3007               	movlw	7
  3640  0A62  1683               	bsf	3,5	;RP0=1, select bank1
  3641  0A63  1303               	bcf	3,6	;RP1=0, select bank1
  3642  0A64  00B1               	movwf	(??_CurrentTempDisplay^(0+128)+1)
  3643  0A65  307C               	movlw	124
  3644  0A66  00B0               	movwf	??_CurrentTempDisplay^(0+128)
  3645  0A67                     u4227:
  3646  0A67  0BB0               	decfsz	??_CurrentTempDisplay^(0+128),f
  3647  0A68  2A67               	goto	u4227
  3648  0A69  0BB1               	decfsz	(??_CurrentTempDisplay^(0+128)+1),f
  3649  0A6A  2A67               	goto	u4227
  3650  0A6B  0000               	nop
  3651  0A6C                     l2974:
  3652                           
  3653                           ;./Temperature.h: 62:     RA5 = 0;
  3654  0A6C  1283               	bcf	3,5	;RP0=0, select bank0
  3655  0A6D  1303               	bcf	3,6	;RP1=0, select bank0
  3656  0A6E  1285               	bcf	5,5	;volatile
  3657  0A6F                     l236:
  3658  0A6F  0008               	return
  3659  0A70                     __end_of_CurrentTempDisplay:
  3660                           
  3661                           	psect	text27
  3662  1725                     __ptext27:	
  3663 ;; *************** function ___lwmod *****************
  3664 ;; Defined at:
  3665 ;;		line 5 in file "C:\Program Files\Microchip\xc8\v2.20\pic\sources\c90\common\lwmod.c"
  3666 ;; Parameters:    Size  Location     Type
  3667 ;;  divisor         2   11[BANK1 ] unsigned int 
  3668 ;;  dividend        2   13[BANK1 ] unsigned int 
  3669 ;; Auto vars:     Size  Location     Type
  3670 ;;  counter         1   15[BANK1 ] unsigned char 
  3671 ;; Return value:  Size  Location     Type
  3672 ;;                  2   11[BANK1 ] unsigned int 
  3673 ;; Registers used:
  3674 ;;		wreg, status,2, status,0, btemp+1
  3675 ;; Tracked objects:
  3676 ;;		On entry : 0/0
  3677 ;;		On exit  : 0/0
  3678 ;;		Unchanged: 0/0
  3679 ;; Data sizes:     COMMON   BANK0   BANK1   BANK3   BANK2
  3680 ;;      Params:         0       0       4       0       0
  3681 ;;      Locals:         0       0       1       0       0
  3682 ;;      Temps:          0       0       0       0       0
  3683 ;;      Totals:         0       0       5       0       0
  3684 ;;Total ram usage:        5 bytes
  3685 ;; Hardware stack levels used:    1
  3686 ;; Hardware stack levels required when called:    4
  3687 ;; This function calls:
  3688 ;;		Nothing
  3689 ;; This function is called by:
  3690 ;;		_TempDisplay
  3691 ;;		_CurrentTempDisplay
  3692 ;; This function uses a non-reentrant model
  3693 ;;
  3694                           
  3695                           
  3696                           ;psect for function ___lwmod
  3697  1725                     ___lwmod:
  3698  1725                     l2178:	
  3699                           ;incstack = 0
  3700                           ; Regs used in ___lwmod: [wreg+status,2+status,0+btemp+1]
  3701                           
  3702  1725  1683               	bsf	3,5	;RP0=1, select bank1
  3703  1726  1303               	bcf	3,6	;RP1=0, select bank1
  3704  1727  082B               	movf	___lwmod@divisor^(0+128),w
  3705  1728  042C               	iorwf	(___lwmod@divisor+1)^(0+128),w
  3706  1729  1903               	btfsc	3,2
  3707  172A  2F2C               	goto	u2391
  3708  172B  2F2D               	goto	u2390
  3709  172C                     u2391:
  3710  172C  2F5C               	goto	l2196
  3711  172D                     u2390:
  3712  172D                     l2180:
  3713  172D  01AF               	clrf	___lwmod@counter^(0+128)
  3714  172E  0AAF               	incf	___lwmod@counter^(0+128),f
  3715  172F  2F3B               	goto	l2186
  3716  1730                     l2182:
  3717  1730  3001               	movlw	1
  3718  1731                     u2405:
  3719  1731  1003               	clrc
  3720  1732  0DAB               	rlf	___lwmod@divisor^(0+128),f
  3721  1733  0DAC               	rlf	(___lwmod@divisor+1)^(0+128),f
  3722  1734  3EFF               	addlw	-1
  3723  1735  1D03               	skipz
  3724  1736  2F31               	goto	u2405
  3725  1737                     l2184:
  3726  1737  3001               	movlw	1
  3727  1738  00FF               	movwf	btemp+1
  3728  1739  087F               	movf	btemp+1,w
  3729  173A  07AF               	addwf	___lwmod@counter^(0+128),f
  3730  173B                     l2186:
  3731  173B  1FAC               	btfss	(___lwmod@divisor+1)^(0+128),7
  3732  173C  2F3E               	goto	u2411
  3733  173D  2F3F               	goto	u2410
  3734  173E                     u2411:
  3735  173E  2F30               	goto	l2182
  3736  173F                     u2410:
  3737  173F                     l2188:
  3738  173F  082C               	movf	(___lwmod@divisor+1)^(0+128),w
  3739  1740  022E               	subwf	(___lwmod@dividend+1)^(0+128),w
  3740  1741  1D03               	skipz
  3741  1742  2F45               	goto	u2425
  3742  1743  082B               	movf	___lwmod@divisor^(0+128),w
  3743  1744  022D               	subwf	___lwmod@dividend^(0+128),w
  3744  1745                     u2425:
  3745  1745  1C03               	skipc
  3746  1746  2F48               	goto	u2421
  3747  1747  2F49               	goto	u2420
  3748  1748                     u2421:
  3749  1748  2F4F               	goto	l2192
  3750  1749                     u2420:
  3751  1749                     l2190:
  3752  1749  082B               	movf	___lwmod@divisor^(0+128),w
  3753  174A  02AD               	subwf	___lwmod@dividend^(0+128),f
  3754  174B  082C               	movf	(___lwmod@divisor+1)^(0+128),w
  3755  174C  1C03               	skipc
  3756  174D  03AE               	decf	(___lwmod@dividend+1)^(0+128),f
  3757  174E  02AE               	subwf	(___lwmod@dividend+1)^(0+128),f
  3758  174F                     l2192:
  3759  174F  3001               	movlw	1
  3760  1750                     u2435:
  3761  1750  1003               	clrc
  3762  1751  0CAC               	rrf	(___lwmod@divisor+1)^(0+128),f
  3763  1752  0CAB               	rrf	___lwmod@divisor^(0+128),f
  3764  1753  3EFF               	addlw	-1
  3765  1754  1D03               	skipz
  3766  1755  2F50               	goto	u2435
  3767  1756                     l2194:
  3768  1756  3001               	movlw	1
  3769  1757  02AF               	subwf	___lwmod@counter^(0+128),f
  3770  1758  1D03               	btfss	3,2
  3771  1759  2F5B               	goto	u2441
  3772  175A  2F5C               	goto	u2440
  3773  175B                     u2441:
  3774  175B  2F3F               	goto	l2188
  3775  175C                     u2440:
  3776  175C                     l2196:
  3777  175C  082E               	movf	(___lwmod@dividend+1)^(0+128),w
  3778  175D  00AC               	movwf	(?___lwmod+1)^(0+128)
  3779  175E  082D               	movf	___lwmod@dividend^(0+128),w
  3780  175F  00AB               	movwf	?___lwmod^(0+128)
  3781  1760                     l678:
  3782  1760  0008               	return
  3783  1761                     __end_of___lwmod:
  3784                           
  3785                           	psect	text28
  3786  1761                     __ptext28:	
  3787 ;; *************** function ___lwdiv *****************
  3788 ;; Defined at:
  3789 ;;		line 5 in file "C:\Program Files\Microchip\xc8\v2.20\pic\sources\c90\common\lwdiv.c"
  3790 ;; Parameters:    Size  Location     Type
  3791 ;;  divisor         2    4[BANK1 ] unsigned int 
  3792 ;;  dividend        2    6[BANK1 ] unsigned int 
  3793 ;; Auto vars:     Size  Location     Type
  3794 ;;  quotient        2    8[BANK1 ] unsigned int 
  3795 ;;  counter         1   10[BANK1 ] unsigned char 
  3796 ;; Return value:  Size  Location     Type
  3797 ;;                  2    4[BANK1 ] unsigned int 
  3798 ;; Registers used:
  3799 ;;		wreg, status,2, status,0, btemp+1
  3800 ;; Tracked objects:
  3801 ;;		On entry : 0/0
  3802 ;;		On exit  : 0/0
  3803 ;;		Unchanged: 0/0
  3804 ;; Data sizes:     COMMON   BANK0   BANK1   BANK3   BANK2
  3805 ;;      Params:         0       0       4       0       0
  3806 ;;      Locals:         0       0       3       0       0
  3807 ;;      Temps:          0       0       0       0       0
  3808 ;;      Totals:         0       0       7       0       0
  3809 ;;Total ram usage:        7 bytes
  3810 ;; Hardware stack levels used:    1
  3811 ;; Hardware stack levels required when called:    4
  3812 ;; This function calls:
  3813 ;;		Nothing
  3814 ;; This function is called by:
  3815 ;;		_TempDisplay
  3816 ;;		_CurrentTempDisplay
  3817 ;; This function uses a non-reentrant model
  3818 ;;
  3819                           
  3820                           
  3821                           ;psect for function ___lwdiv
  3822  1761                     ___lwdiv:
  3823  1761                     l2152:	
  3824                           ;incstack = 0
  3825                           ; Regs used in ___lwdiv: [wreg+status,2+status,0+btemp+1]
  3826                           
  3827  1761  1683               	bsf	3,5	;RP0=1, select bank1
  3828  1762  1303               	bcf	3,6	;RP1=0, select bank1
  3829  1763  01A8               	clrf	___lwdiv@quotient^(0+128)
  3830  1764  01A9               	clrf	(___lwdiv@quotient+1)^(0+128)
  3831  1765                     l2154:
  3832  1765  0824               	movf	___lwdiv@divisor^(0+128),w
  3833  1766  0425               	iorwf	(___lwdiv@divisor+1)^(0+128),w
  3834  1767  1903               	btfsc	3,2
  3835  1768  2F6A               	goto	u2321
  3836  1769  2F6B               	goto	u2320
  3837  176A                     u2321:
  3838  176A  2FA2               	goto	l2174
  3839  176B                     u2320:
  3840  176B                     l2156:
  3841  176B  01AA               	clrf	___lwdiv@counter^(0+128)
  3842  176C  0AAA               	incf	___lwdiv@counter^(0+128),f
  3843  176D  2F79               	goto	l2162
  3844  176E                     l2158:
  3845  176E  3001               	movlw	1
  3846  176F                     u2335:
  3847  176F  1003               	clrc
  3848  1770  0DA4               	rlf	___lwdiv@divisor^(0+128),f
  3849  1771  0DA5               	rlf	(___lwdiv@divisor+1)^(0+128),f
  3850  1772  3EFF               	addlw	-1
  3851  1773  1D03               	skipz
  3852  1774  2F6F               	goto	u2335
  3853  1775                     l2160:
  3854  1775  3001               	movlw	1
  3855  1776  00FF               	movwf	btemp+1
  3856  1777  087F               	movf	btemp+1,w
  3857  1778  07AA               	addwf	___lwdiv@counter^(0+128),f
  3858  1779                     l2162:
  3859  1779  1FA5               	btfss	(___lwdiv@divisor+1)^(0+128),7
  3860  177A  2F7C               	goto	u2341
  3861  177B  2F7D               	goto	u2340
  3862  177C                     u2341:
  3863  177C  2F6E               	goto	l2158
  3864  177D                     u2340:
  3865  177D                     l2164:
  3866  177D  3001               	movlw	1
  3867  177E                     u2355:
  3868  177E  1003               	clrc
  3869  177F  0DA8               	rlf	___lwdiv@quotient^(0+128),f
  3870  1780  0DA9               	rlf	(___lwdiv@quotient+1)^(0+128),f
  3871  1781  3EFF               	addlw	-1
  3872  1782  1D03               	skipz
  3873  1783  2F7E               	goto	u2355
  3874  1784  0825               	movf	(___lwdiv@divisor+1)^(0+128),w
  3875  1785  0227               	subwf	(___lwdiv@dividend+1)^(0+128),w
  3876  1786  1D03               	skipz
  3877  1787  2F8A               	goto	u2365
  3878  1788  0824               	movf	___lwdiv@divisor^(0+128),w
  3879  1789  0226               	subwf	___lwdiv@dividend^(0+128),w
  3880  178A                     u2365:
  3881  178A  1C03               	skipc
  3882  178B  2F8D               	goto	u2361
  3883  178C  2F8E               	goto	u2360
  3884  178D                     u2361:
  3885  178D  2F95               	goto	l2170
  3886  178E                     u2360:
  3887  178E                     l2166:
  3888  178E  0824               	movf	___lwdiv@divisor^(0+128),w
  3889  178F  02A6               	subwf	___lwdiv@dividend^(0+128),f
  3890  1790  0825               	movf	(___lwdiv@divisor+1)^(0+128),w
  3891  1791  1C03               	skipc
  3892  1792  03A7               	decf	(___lwdiv@dividend+1)^(0+128),f
  3893  1793  02A7               	subwf	(___lwdiv@dividend+1)^(0+128),f
  3894  1794                     l2168:
  3895  1794  1428               	bsf	___lwdiv@quotient^(0+128),0
  3896  1795                     l2170:
  3897  1795  3001               	movlw	1
  3898  1796                     u2375:
  3899  1796  1003               	clrc
  3900  1797  0CA5               	rrf	(___lwdiv@divisor+1)^(0+128),f
  3901  1798  0CA4               	rrf	___lwdiv@divisor^(0+128),f
  3902  1799  3EFF               	addlw	-1
  3903  179A  1D03               	skipz
  3904  179B  2F96               	goto	u2375
  3905  179C                     l2172:
  3906  179C  3001               	movlw	1
  3907  179D  02AA               	subwf	___lwdiv@counter^(0+128),f
  3908  179E  1D03               	btfss	3,2
  3909  179F  2FA1               	goto	u2381
  3910  17A0  2FA2               	goto	u2380
  3911  17A1                     u2381:
  3912  17A1  2F7D               	goto	l2164
  3913  17A2                     u2380:
  3914  17A2                     l2174:
  3915  17A2  0829               	movf	(___lwdiv@quotient+1)^(0+128),w
  3916  17A3  00A5               	movwf	(?___lwdiv+1)^(0+128)
  3917  17A4  0828               	movf	___lwdiv@quotient^(0+128),w
  3918  17A5  00A4               	movwf	?___lwdiv^(0+128)
  3919  17A6                     l668:
  3920  17A6  0008               	return
  3921  17A7                     __end_of___lwdiv:
  3922                           
  3923                           	psect	text29
  3924  0770                     __ptext29:	
  3925 ;; *************** function _ISR *****************
  3926 ;; Defined at:
  3927 ;;		line 12 in file "./ISRs.h"
  3928 ;; Parameters:    Size  Location     Type
  3929 ;;		None
  3930 ;; Auto vars:     Size  Location     Type
  3931 ;;		None
  3932 ;; Return value:  Size  Location     Type
  3933 ;;                  1    wreg      void 
  3934 ;; Registers used:
  3935 ;;		wreg, fsr0l, fsr0h, status,2, status,0, btemp+1, pclath, cstack
  3936 ;; Tracked objects:
  3937 ;;		On entry : 0/0
  3938 ;;		On exit  : 0/0
  3939 ;;		Unchanged: 0/0
  3940 ;; Data sizes:     COMMON   BANK0   BANK1   BANK3   BANK2
  3941 ;;      Params:         0       0       0       0       0
  3942 ;;      Locals:         0       0       0       0       0
  3943 ;;      Temps:          0       0       4       0       0
  3944 ;;      Totals:         0       0       4       0       0
  3945 ;;Total ram usage:        4 bytes
  3946 ;; Hardware stack levels used:    1
  3947 ;; Hardware stack levels required when called:    3
  3948 ;; This function calls:
  3949 ;;		_TempSensor
  3950 ;; This function is called by:
  3951 ;;		Interrupt level 1
  3952 ;; This function uses a non-reentrant model
  3953 ;;
  3954                           
  3955                           
  3956                           ;psect for function _ISR
  3957  0770                     _ISR:
  3958  0770                     i1l3022:
  3959                           
  3960                           ;./ISRs.h: 14:     if(TMR1IF==1){
  3961  0770  1283               	bcf	3,5	;RP0=0, select bank0
  3962  0771  1303               	bcf	3,6	;RP1=0, select bank0
  3963  0772  1C0C               	btfss	12,0	;volatile
  3964  0773  2F75               	goto	u403_21
  3965  0774  2F76               	goto	u403_20
  3966  0775                     u403_21:
  3967  0775  2F83               	goto	i1l3034
  3968  0776                     u403_20:
  3969  0776                     i1l3024:
  3970                           
  3971                           ;./ISRs.h: 15:         TempSensor();
  3972  0776  120A  158A  20CC  120A  118A  	fcall	_TempSensor
  3973  077B                     i1l3026:
  3974                           
  3975                           ;./ISRs.h: 16:         TMR1H=0x0B;
  3976  077B  300B               	movlw	11
  3977  077C  1283               	bcf	3,5	;RP0=0, select bank0
  3978  077D  1303               	bcf	3,6	;RP1=0, select bank0
  3979  077E  008F               	movwf	15	;volatile
  3980  077F                     i1l3028:
  3981                           
  3982                           ;./ISRs.h: 17:         TMR1L=0xDC;
  3983  077F  30DC               	movlw	220
  3984  0780  008E               	movwf	14	;volatile
  3985  0781                     i1l3030:
  3986                           
  3987                           ;./ISRs.h: 18:         TMR1IF=0;
  3988  0781  100C               	bcf	12,0	;volatile
  3989  0782                     i1l3032:
  3990                           
  3991                           ;./ISRs.h: 19:         GIE = 1;
  3992  0782  178B               	bsf	11,7	;volatile
  3993  0783                     i1l3034:
  3994                           
  3995                           ;./ISRs.h: 23:     if(TMR2IF==1){
  3996  0783  1C8C               	btfss	12,1	;volatile
  3997  0784  2F86               	goto	u404_21
  3998  0785  2F87               	goto	u404_20
  3999  0786                     u404_21:
  4000  0786  2FB1               	goto	i1l3052
  4001  0787                     u404_20:
  4002  0787                     i1l3036:
  4003                           
  4004                           ;./ISRs.h: 24:         TMR2 = 101;
  4005  0787  3065               	movlw	101
  4006  0788  0091               	movwf	17	;volatile
  4007  0789                     i1l3038:
  4008                           
  4009                           ;./ISRs.h: 25:         if(count>=200){
  4010  0789  1683               	bsf	3,5	;RP0=1, select bank1
  4011  078A  1303               	bcf	3,6	;RP1=0, select bank1
  4012  078B  084C               	movf	(_count+1)^(0+128),w
  4013  078C  3A80               	xorlw	128
  4014  078D  00FF               	movwf	btemp+1
  4015  078E  3080               	movlw	128
  4016  078F  027F               	subwf	btemp+1,w
  4017  0790  1D03               	skipz
  4018  0791  2F94               	goto	u405_25
  4019  0792  30C8               	movlw	200
  4020  0793  024B               	subwf	_count^(0+128),w
  4021  0794                     u405_25:
  4022  0794  1C03               	skipc
  4023  0795  2F97               	goto	u405_21
  4024  0796  2F98               	goto	u405_20
  4025  0797                     u405_21:
  4026  0797  2FA6               	goto	i1l3046
  4027  0798                     u405_20:
  4028  0798                     i1l3040:
  4029                           
  4030                           ;./ISRs.h: 26:             count=0;
  4031  0798  1683               	bsf	3,5	;RP0=1, select bank1
  4032  0799  1303               	bcf	3,6	;RP1=0, select bank1
  4033  079A  01CB               	clrf	_count^(0+128)
  4034  079B  01CC               	clrf	(_count+1)^(0+128)
  4035  079C                     i1l3042:
  4036                           
  4037                           ;./ISRs.h: 27:             value=~value;
  4038  079C  09CD               	comf	_value^(0+128),f
  4039  079D  09CE               	comf	(_value+1)^(0+128),f
  4040  079E                     i1l3044:
  4041                           
  4042                           ;./ISRs.h: 28:             PORTBbits.RB1 = value;
  4043  079E  0C4D               	rrf	_value^(0+128),w
  4044  079F  1283               	bcf	3,5	;RP0=0, select bank0
  4045  07A0  1303               	bcf	3,6	;RP1=0, select bank0
  4046  07A1  1C03               	skipc
  4047  07A2  1086               	bcf	6,1	;volatile
  4048  07A3  1803               	skipnc
  4049  07A4  1486               	bsf	6,1	;volatile
  4050                           
  4051                           ;./ISRs.h: 29:         }
  4052  07A5  2FAE               	goto	i1l3048
  4053  07A6                     i1l3046:
  4054                           
  4055                           ;./ISRs.h: 31:             count++;
  4056  07A6  3001               	movlw	1
  4057  07A7  1683               	bsf	3,5	;RP0=1, select bank1
  4058  07A8  1303               	bcf	3,6	;RP1=0, select bank1
  4059  07A9  07CB               	addwf	_count^(0+128),f
  4060  07AA  1803               	skipnc
  4061  07AB  0ACC               	incf	(_count+1)^(0+128),f
  4062  07AC  3000               	movlw	0
  4063  07AD  07CC               	addwf	(_count+1)^(0+128),f
  4064  07AE                     i1l3048:
  4065                           
  4066                           ;./ISRs.h: 33:         TMR2IF=0;
  4067  07AE  1283               	bcf	3,5	;RP0=0, select bank0
  4068  07AF  108C               	bcf	12,1	;volatile
  4069  07B0                     i1l3050:
  4070                           
  4071                           ;./ISRs.h: 34:         GIE = 1;
  4072  07B0  178B               	bsf	11,7	;volatile
  4073  07B1                     i1l3052:
  4074                           
  4075                           ;./ISRs.h: 38:     if(INTF==1){
  4076  07B1  1C8B               	btfss	11,1	;volatile
  4077  07B2  2FB4               	goto	u406_21
  4078  07B3  2FB5               	goto	u406_20
  4079  07B4                     u406_21:
  4080  07B4  2FDF               	goto	i1l299
  4081  07B5                     u406_20:
  4082  07B5                     i1l3054:
  4083                           
  4084                           ;./ISRs.h: 39:         Flag = ~Flag;
  4085  07B5  1683               	bsf	3,5	;RP0=1, select bank1
  4086  07B6  1303               	bcf	3,6	;RP1=0, select bank1
  4087  07B7  09C9               	comf	_Flag^(0+128),f
  4088  07B8  09CA               	comf	(_Flag+1)^(0+128),f
  4089  07B9                     i1l3056:
  4090                           
  4091                           ;./ISRs.h: 40:         if(Flag){
  4092  07B9  0849               	movf	_Flag^(0+128),w
  4093  07BA  044A               	iorwf	(_Flag+1)^(0+128),w
  4094  07BB  1903               	btfsc	3,2
  4095  07BC  2FBE               	goto	u407_21
  4096  07BD  2FBF               	goto	u407_20
  4097  07BE                     u407_21:
  4098  07BE  2FCB               	goto	i1l3066
  4099  07BF                     u407_20:
  4100  07BF                     i1l3058:
  4101                           
  4102                           ;./ISRs.h: 41:             TMR1ON=0;
  4103  07BF  1283               	bcf	3,5	;RP0=0, select bank0
  4104  07C0  1303               	bcf	3,6	;RP1=0, select bank0
  4105  07C1  1010               	bcf	16,0	;volatile
  4106                           
  4107                           ;./ISRs.h: 42:             TMR2ON =0;
  4108  07C2  1112               	bcf	18,2	;volatile
  4109  07C3                     i1l3060:
  4110                           
  4111                           ;./ISRs.h: 43:             PORTA=0;
  4112  07C3  0185               	clrf	5	;volatile
  4113                           
  4114                           ;./ISRs.h: 44:             PORTB=0;
  4115  07C4  0186               	clrf	6	;volatile
  4116                           
  4117                           ;./ISRs.h: 45:             PORTC=0;
  4118  07C5  0187               	clrf	7	;volatile
  4119                           
  4120                           ;./ISRs.h: 46:             PORTD=0;
  4121  07C6  0188               	clrf	8	;volatile
  4122  07C7                     i1l3062:
  4123                           
  4124                           ;./ISRs.h: 47:             INTF=0;
  4125  07C7  108B               	bcf	11,1	;volatile
  4126  07C8                     i1l3064:
  4127                           
  4128                           ;./ISRs.h: 48:             GIE = 1;
  4129  07C8  178B               	bsf	11,7	;volatile
  4130  07C9  0063               	sleep	;# 
  4131                           
  4132                           ;./ISRs.h: 50:         }
  4133  07CA  2FDD               	goto	i1l3072
  4134  07CB                     i1l3066:
  4135  07CB  0849               	movf	_Flag^(0+128),w
  4136  07CC  044A               	iorwf	(_Flag+1)^(0+128),w
  4137  07CD  1D03               	btfss	3,2
  4138  07CE  2FD0               	goto	u408_21
  4139  07CF  2FD1               	goto	u408_20
  4140  07D0                     u408_21:
  4141  07D0  2FDD               	goto	i1l3072
  4142  07D1                     u408_20:
  4143  07D1                     i1l3068:
  4144                           
  4145                           ;./ISRs.h: 52:             TMR1ON=1;
  4146  07D1  1283               	bcf	3,5	;RP0=0, select bank0
  4147  07D2  1303               	bcf	3,6	;RP1=0, select bank0
  4148  07D3  1410               	bsf	16,0	;volatile
  4149                           
  4150                           ;./ISRs.h: 53:             TMR2ON =1;
  4151  07D4  1512               	bsf	18,2	;volatile
  4152  07D5                     i1l3070:
  4153                           
  4154                           ;./ISRs.h: 54:             PORTA=1;
  4155  07D5  3001               	movlw	1
  4156  07D6  0085               	movwf	5	;volatile
  4157                           
  4158                           ;./ISRs.h: 55:             PORTB=1;
  4159  07D7  3001               	movlw	1
  4160  07D8  0086               	movwf	6	;volatile
  4161                           
  4162                           ;./ISRs.h: 56:             PORTC=1;
  4163  07D9  3001               	movlw	1
  4164  07DA  0087               	movwf	7	;volatile
  4165                           
  4166                           ;./ISRs.h: 57:             PORTD=1;
  4167  07DB  3001               	movlw	1
  4168  07DC  0088               	movwf	8	;volatile
  4169  07DD                     i1l3072:
  4170                           
  4171                           ;./ISRs.h: 59:         INTF=0;
  4172  07DD  108B               	bcf	11,1	;volatile
  4173  07DE                     i1l3074:
  4174                           
  4175                           ;./ISRs.h: 60:         GIE = 1;
  4176  07DE  178B               	bsf	11,7	;volatile
  4177  07DF                     i1l299:
  4178  07DF  1683               	bsf	3,5	;RP0=1, select bank1
  4179  07E0  1303               	bcf	3,6	;RP1=0, select bank1
  4180  07E1  0823               	movf	(??_ISR+3)^(0+128),w
  4181  07E2  1283               	bcf	3,5	;RP0=0, select bank0
  4182  07E3  1303               	bcf	3,6	;RP1=0, select bank0
  4183  07E4  00FF               	movwf	btemp+1
  4184  07E5  1683               	bsf	3,5	;RP0=1, select bank1
  4185  07E6  1303               	bcf	3,6	;RP1=0, select bank1
  4186  07E7  0822               	movf	(??_ISR+2)^(0+128),w
  4187  07E8  008A               	movwf	10
  4188  07E9  0821               	movf	(??_ISR+1)^(0+128),w
  4189  07EA  0084               	movwf	4
  4190  07EB  0E20               	swapf	??_ISR^(0+128),w
  4191  07EC  0083               	movwf	3
  4192  07ED  0EFE               	swapf	btemp,f
  4193  07EE  0E7E               	swapf	btemp,w
  4194  07EF  0009               	retfie
  4195  07F0                     __end_of_ISR:
  4196                           
  4197                           	psect	intentry
  4198  0004                     __pintentry:	
  4199                           ;incstack = 0
  4200 ;; hardware stack exceeded
  4201                           ; Regs used in _ISR: [wreg-fsr0h+status,2+status,0+btemp+1+pclath+cstack]
  4202                           
  4203  0004                     interrupt_function:
  4204  007E                     saved_w	set	btemp
  4205  0004  00FE               	movwf	btemp
  4206  0005  0E03               	swapf	3,w
  4207  0006  1683               	bsf	3,5	;RP0=1, select bank1
  4208  0007  1303               	bcf	3,6	;RP1=0, select bank1
  4209  0008  00A0               	movwf	??_ISR^(0+128)
  4210  0009  0804               	movf	4,w
  4211  000A  00A1               	movwf	(??_ISR+1)^(0+128)
  4212  000B  080A               	movf	10,w
  4213  000C  00A2               	movwf	(??_ISR+2)^(0+128)
  4214  000D  1283               	bcf	3,5	;RP0=0, select bank0
  4215  000E  1303               	bcf	3,6	;RP1=0, select bank0
  4216  000F  087F               	movf	btemp+1,w
  4217  0010  1683               	bsf	3,5	;RP0=1, select bank1
  4218  0011  1303               	bcf	3,6	;RP1=0, select bank1
  4219  0012  00A3               	movwf	(??_ISR+3)^(0+128)
  4220  0013  120A  118A  2F70   	ljmp	_ISR
  4221                           
  4222                           	psect	text30
  4223  08CC                     __ptext30:	
  4224 ;; *************** function _TempSensor *****************
  4225 ;; Defined at:
  4226 ;;		line 111 in file "./Temperature.h"
  4227 ;; Parameters:    Size  Location     Type
  4228 ;;		None
  4229 ;; Auto vars:     Size  Location     Type
  4230 ;;		None
  4231 ;; Return value:  Size  Location     Type
  4232 ;;                  1    wreg      void 
  4233 ;; Registers used:
  4234 ;;		wreg, fsr0l, fsr0h, status,2, status,0, btemp+1, pclath, cstack
  4235 ;; Tracked objects:
  4236 ;;		On entry : 0/0
  4237 ;;		On exit  : 0/0
  4238 ;;		Unchanged: 0/0
  4239 ;; Data sizes:     COMMON   BANK0   BANK1   BANK3   BANK2
  4240 ;;      Params:         0       0       0       0       0
  4241 ;;      Locals:         0       0       0       0       0
  4242 ;;      Temps:          0       0       0       0       0
  4243 ;;      Totals:         0       0       0       0       0
  4244 ;;Total ram usage:        0 bytes
  4245 ;; Hardware stack levels used:    1
  4246 ;; Hardware stack levels required when called:    2
  4247 ;; This function calls:
  4248 ;;		_ADC_Read
  4249 ;;		_AverageTemp
  4250 ;;		___fldiv
  4251 ;;		___flmul
  4252 ;;		___fltol
  4253 ;;		___xxtofl
  4254 ;; This function is called by:
  4255 ;;		_ISR
  4256 ;; This function uses a non-reentrant model
  4257 ;;
  4258                           
  4259                           
  4260                           ;psect for function _TempSensor
  4261  08CC                     _TempSensor:
  4262  08CC                     i1l2976:	
  4263                           ;incstack = 0
  4264 ;; hardware stack exceeded
  4265                           ; Regs used in _TempSensor: [wreg-fsr0h+status,2+status,0+btemp+1+pclath+cstack]
  4266                           
  4267                           
  4268                           ;./Temperature.h: 112:     ADCResult = ADC_Read();
  4269  08CC  160A  118A  26EA  120A  158A  	fcall	_ADC_Read
  4270  08D1  0871               	movf	?_ADC_Read+1,w
  4271  08D2  1683               	bsf	3,5	;RP0=1, select bank1
  4272  08D3  1303               	bcf	3,6	;RP1=0, select bank1
  4273  08D4  00DA               	movwf	(_ADCResult+1)^(0+128)
  4274  08D5  0870               	movf	?_ADC_Read,w
  4275  08D6  00D9               	movwf	_ADCResult^(0+128)
  4276  08D7                     i1l2978:
  4277                           
  4278                           ;./Temperature.h: 113:     currentTemp = (ADCResult*5.0) / 10.24;
  4279  08D7  0859               	movf	_ADCResult^(0+128),w
  4280  08D8  00F0               	movwf	___xxtofl@val
  4281  08D9  085A               	movf	(_ADCResult+1)^(0+128),w
  4282  08DA  00F1               	movwf	___xxtofl@val+1
  4283  08DB  01F2               	clrf	___xxtofl@val+2
  4284  08DC  01F3               	clrf	___xxtofl@val+3
  4285  08DD  3000               	movlw	0
  4286  08DE  120A  118A  2632  120A  158A  	fcall	___xxtofl
  4287  08E3  0873               	movf	?___xxtofl+3,w
  4288  08E4  1283               	bcf	3,5	;RP0=0, select bank0
  4289  08E5  1303               	bcf	3,6	;RP1=0, select bank0
  4290  08E6  00A7               	movwf	___flmul@a+3
  4291  08E7  0872               	movf	?___xxtofl+2,w
  4292  08E8  00A6               	movwf	___flmul@a+2
  4293  08E9  0871               	movf	?___xxtofl+1,w
  4294  08EA  00A5               	movwf	___flmul@a+1
  4295  08EB  0870               	movf	?___xxtofl,w
  4296  08EC  00A4               	movwf	___flmul@a
  4297  08ED  3040               	movlw	64
  4298  08EE  00A3               	movwf	___flmul@b+3
  4299  08EF  30A0               	movlw	160
  4300  08F0  00A2               	movwf	___flmul@b+2
  4301  08F1  3000               	movlw	0
  4302  08F2  00A1               	movwf	___flmul@b+1
  4303  08F3  3000               	movlw	0
  4304  08F4  00A0               	movwf	___flmul@b
  4305  08F5  120A  118A  203D  120A  158A  	fcall	___flmul
  4306  08FA  1283               	bcf	3,5	;RP0=0, select bank0
  4307  08FB  1303               	bcf	3,6	;RP1=0, select bank0
  4308  08FC  0823               	movf	?___flmul+3,w
  4309  08FD  00C1               	movwf	___fldiv@b+3
  4310  08FE  0822               	movf	?___flmul+2,w
  4311  08FF  00C0               	movwf	___fldiv@b+2
  4312  0900  0821               	movf	?___flmul+1,w
  4313  0901  00BF               	movwf	___fldiv@b+1
  4314  0902  0820               	movf	?___flmul,w
  4315  0903  00BE               	movwf	___fldiv@b
  4316  0904  3041               	movlw	65
  4317  0905  00BD               	movwf	___fldiv@a+3
  4318  0906  3023               	movlw	35
  4319  0907  00BC               	movwf	___fldiv@a+2
  4320  0908  30D7               	movlw	215
  4321  0909  00BB               	movwf	___fldiv@a+1
  4322  090A  300A               	movlw	10
  4323  090B  00BA               	movwf	___fldiv@a
  4324  090C  120A  158A  23D5  120A  158A  	fcall	___fldiv
  4325  0911  1283               	bcf	3,5	;RP0=0, select bank0
  4326  0912  1303               	bcf	3,6	;RP1=0, select bank0
  4327  0913  083D               	movf	?___fldiv+3,w
  4328  0914  00D7               	movwf	___fltol@f1+3
  4329  0915  083C               	movf	?___fldiv+2,w
  4330  0916  00D6               	movwf	___fltol@f1+2
  4331  0917  083B               	movf	?___fldiv+1,w
  4332  0918  00D5               	movwf	___fltol@f1+1
  4333  0919  083A               	movf	?___fldiv,w
  4334  091A  00D4               	movwf	___fltol@f1
  4335  091B  120A  158A  2359  120A  158A  	fcall	___fltol
  4336  0920  1283               	bcf	3,5	;RP0=0, select bank0
  4337  0921  1303               	bcf	3,6	;RP1=0, select bank0
  4338  0922  0855               	movf	?___fltol+1,w
  4339  0923  1683               	bsf	3,5	;RP0=1, select bank1
  4340  0924  1303               	bcf	3,6	;RP1=0, select bank1
  4341  0925  00D8               	movwf	(_currentTemp+1)^(0+128)
  4342  0926  1283               	bcf	3,5	;RP0=0, select bank0
  4343  0927  1303               	bcf	3,6	;RP1=0, select bank0
  4344  0928  0854               	movf	?___fltol,w
  4345  0929  1683               	bsf	3,5	;RP0=1, select bank1
  4346  092A  1303               	bcf	3,6	;RP1=0, select bank1
  4347  092B  00D7               	movwf	_currentTemp^(0+128)
  4348  092C                     i1l2980:
  4349                           
  4350                           ;./Temperature.h: 114:     AverageTemp();
  4351  092C  120A  158A  25B2  120A  158A  	fcall	_AverageTemp
  4352  0931                     i1l261:
  4353  0931  0008               	return
  4354  0932                     __end_of_TempSensor:
  4355                           
  4356                           	psect	text31
  4357  003D                     __ptext31:	
  4358 ;; *************** function ___flmul *****************
  4359 ;; Defined at:
  4360 ;;		line 8 in file "C:\Program Files\Microchip\xc8\v2.20\pic\sources\c90\common\sprcmul.c"
  4361 ;; Parameters:    Size  Location     Type
  4362 ;;  b               4    0[BANK0 ] void 
  4363 ;;  a               4    4[BANK0 ] void 
  4364 ;; Auto vars:     Size  Location     Type
  4365 ;;  prod            4   20[BANK0 ] struct .
  4366 ;;  grs             4   14[BANK0 ] unsigned long 
  4367 ;;  temp            2   24[BANK0 ] struct .
  4368 ;;  bexp            1   19[BANK0 ] unsigned char 
  4369 ;;  aexp            1   18[BANK0 ] unsigned char 
  4370 ;;  sign            1   13[BANK0 ] unsigned char 
  4371 ;; Return value:  Size  Location     Type
  4372 ;;                  4    0[BANK0 ] unsigned char 
  4373 ;; Registers used:
  4374 ;;		wreg, status,2, status,0, btemp+1, pclath, cstack
  4375 ;; Tracked objects:
  4376 ;;		On entry : 0/0
  4377 ;;		On exit  : 0/0
  4378 ;;		Unchanged: 0/0
  4379 ;; Data sizes:     COMMON   BANK0   BANK1   BANK3   BANK2
  4380 ;;      Params:         0       8       0       0       0
  4381 ;;      Locals:         0      13       0       0       0
  4382 ;;      Temps:          0       5       0       0       0
  4383 ;;      Totals:         0      26       0       0       0
  4384 ;;Total ram usage:       26 bytes
  4385 ;; Hardware stack levels used:    1
  4386 ;; Hardware stack levels required when called:    1
  4387 ;; This function calls:
  4388 ;;		__Umul8_16
  4389 ;; This function is called by:
  4390 ;;		_TempSensor
  4391 ;; This function uses a non-reentrant model
  4392 ;;
  4393                           
  4394                           
  4395                           ;psect for function ___flmul
  4396  003D                     ___flmul:
  4397  003D                     i1l2808:	
  4398                           ;incstack = 0
  4399 ;; hardware stack exceeded
  4400                           ; Regs used in ___flmul: [wreg+status,2+status,0+btemp+1+pclath+cstack]
  4401                           
  4402  003D  1283               	bcf	3,5	;RP0=0, select bank0
  4403  003E  1303               	bcf	3,6	;RP1=0, select bank0
  4404  003F  0823               	movf	___flmul@b+3,w
  4405  0040  3980               	andlw	128
  4406  0041  00FF               	movwf	btemp+1
  4407  0042  087F               	movf	btemp+1,w
  4408  0043  00AD               	movwf	___flmul@sign
  4409  0044                     i1l2810:
  4410  0044  0823               	movf	___flmul@b+3,w
  4411  0045  00A8               	movwf	??___flmul
  4412  0046  0728               	addwf	??___flmul,w
  4413  0047  00FF               	movwf	btemp+1
  4414  0048  087F               	movf	btemp+1,w
  4415  0049  00B3               	movwf	___flmul@bexp
  4416  004A                     i1l2812:
  4417  004A  1FA2               	btfss	___flmul@b+2,7
  4418  004B  284D               	goto	u363_21
  4419  004C  284E               	goto	u363_20
  4420  004D                     u363_21:
  4421  004D  284F               	goto	i1l2816
  4422  004E                     u363_20:
  4423  004E                     i1l2814:
  4424  004E  1433               	bsf	___flmul@bexp,0
  4425  004F                     i1l2816:
  4426  004F  0833               	movf	___flmul@bexp,w
  4427  0050  1903               	btfsc	3,2
  4428  0051  2853               	goto	u364_21
  4429  0052  2854               	goto	u364_20
  4430  0053                     u364_21:
  4431  0053  2863               	goto	i1l2824
  4432  0054                     u364_20:
  4433  0054                     i1l2818:
  4434  0054  0A33               	incf	___flmul@bexp,w
  4435  0055  1D03               	btfss	3,2
  4436  0056  2858               	goto	u365_21
  4437  0057  2859               	goto	u365_20
  4438  0058                     u365_21:
  4439  0058  2861               	goto	i1l2822
  4440  0059                     u365_20:
  4441  0059                     i1l2820:
  4442  0059  3000               	movlw	0
  4443  005A  00A3               	movwf	___flmul@b+3
  4444  005B  3000               	movlw	0
  4445  005C  00A2               	movwf	___flmul@b+2
  4446  005D  3000               	movlw	0
  4447  005E  00A1               	movwf	___flmul@b+1
  4448  005F  3000               	movlw	0
  4449  0060  00A0               	movwf	___flmul@b
  4450  0061                     i1l2822:
  4451  0061  17A2               	bsf	___flmul@b+2,7
  4452  0062  286B               	goto	i1l2826
  4453  0063                     i1l2824:
  4454  0063  3000               	movlw	0
  4455  0064  00A3               	movwf	___flmul@b+3
  4456  0065  3000               	movlw	0
  4457  0066  00A2               	movwf	___flmul@b+2
  4458  0067  3000               	movlw	0
  4459  0068  00A1               	movwf	___flmul@b+1
  4460  0069  3000               	movlw	0
  4461  006A  00A0               	movwf	___flmul@b
  4462  006B                     i1l2826:
  4463  006B  0827               	movf	___flmul@a+3,w
  4464  006C  3980               	andlw	128
  4465  006D  00FF               	movwf	btemp+1
  4466  006E  087F               	movf	btemp+1,w
  4467  006F  06AD               	xorwf	___flmul@sign,f
  4468  0070                     i1l2828:
  4469  0070  0827               	movf	___flmul@a+3,w
  4470  0071  00A8               	movwf	??___flmul
  4471  0072  0728               	addwf	??___flmul,w
  4472  0073  00FF               	movwf	btemp+1
  4473  0074  087F               	movf	btemp+1,w
  4474  0075  00B2               	movwf	___flmul@aexp
  4475  0076                     i1l2830:
  4476  0076  1FA6               	btfss	___flmul@a+2,7
  4477  0077  2879               	goto	u366_21
  4478  0078  287A               	goto	u366_20
  4479  0079                     u366_21:
  4480  0079  287B               	goto	i1l2834
  4481  007A                     u366_20:
  4482  007A                     i1l2832:
  4483  007A  1432               	bsf	___flmul@aexp,0
  4484  007B                     i1l2834:
  4485  007B  0832               	movf	___flmul@aexp,w
  4486  007C  1903               	btfsc	3,2
  4487  007D  287F               	goto	u367_21
  4488  007E  2880               	goto	u367_20
  4489  007F                     u367_21:
  4490  007F  288F               	goto	i1l2842
  4491  0080                     u367_20:
  4492  0080                     i1l2836:
  4493  0080  0A32               	incf	___flmul@aexp,w
  4494  0081  1D03               	btfss	3,2
  4495  0082  2884               	goto	u368_21
  4496  0083  2885               	goto	u368_20
  4497  0084                     u368_21:
  4498  0084  288D               	goto	i1l2840
  4499  0085                     u368_20:
  4500  0085                     i1l2838:
  4501  0085  3000               	movlw	0
  4502  0086  00A7               	movwf	___flmul@a+3
  4503  0087  3000               	movlw	0
  4504  0088  00A6               	movwf	___flmul@a+2
  4505  0089  3000               	movlw	0
  4506  008A  00A5               	movwf	___flmul@a+1
  4507  008B  3000               	movlw	0
  4508  008C  00A4               	movwf	___flmul@a
  4509  008D                     i1l2840:
  4510  008D  17A6               	bsf	___flmul@a+2,7
  4511  008E  2897               	goto	i1l2844
  4512  008F                     i1l2842:
  4513  008F  3000               	movlw	0
  4514  0090  00A7               	movwf	___flmul@a+3
  4515  0091  3000               	movlw	0
  4516  0092  00A6               	movwf	___flmul@a+2
  4517  0093  3000               	movlw	0
  4518  0094  00A5               	movwf	___flmul@a+1
  4519  0095  3000               	movlw	0
  4520  0096  00A4               	movwf	___flmul@a
  4521  0097                     i1l2844:
  4522  0097  0832               	movf	___flmul@aexp,w
  4523  0098  1903               	btfsc	3,2
  4524  0099  289B               	goto	u369_21
  4525  009A  289C               	goto	u369_20
  4526  009B                     u369_21:
  4527  009B  28A1               	goto	i1l2848
  4528  009C                     u369_20:
  4529  009C                     i1l2846:
  4530  009C  0833               	movf	___flmul@bexp,w
  4531  009D  1D03               	btfss	3,2
  4532  009E  28A0               	goto	u370_21
  4533  009F  28A1               	goto	u370_20
  4534  00A0                     u370_21:
  4535  00A0  28AA               	goto	i1l2852
  4536  00A1                     u370_20:
  4537  00A1                     i1l2848:
  4538  00A1  3000               	movlw	0
  4539  00A2  00A3               	movwf	?___flmul+3
  4540  00A3  3000               	movlw	0
  4541  00A4  00A2               	movwf	?___flmul+2
  4542  00A5  3000               	movlw	0
  4543  00A6  00A1               	movwf	?___flmul+1
  4544  00A7  3000               	movlw	0
  4545  00A8  00A0               	movwf	?___flmul
  4546  00A9  2B9D               	goto	i1l785
  4547  00AA                     i1l2852:
  4548  00AA  0820               	movf	___flmul@b,w
  4549  00AB  00FF               	movwf	btemp+1
  4550  00AC  087F               	movf	btemp+1,w
  4551  00AD  00F0               	movwf	__Umul8_16@multiplicand
  4552  00AE  0826               	movf	___flmul@a+2,w
  4553  00AF  160A  118A  268D  120A  118A  	fcall	__Umul8_16
  4554  00B4  0871               	movf	?__Umul8_16+1,w
  4555  00B5  1283               	bcf	3,5	;RP0=0, select bank0
  4556  00B6  1303               	bcf	3,6	;RP1=0, select bank0
  4557  00B7  00B9               	movwf	___flmul@temp+1
  4558  00B8  0870               	movf	?__Umul8_16,w
  4559  00B9  00B8               	movwf	___flmul@temp
  4560  00BA                     i1l2854:
  4561  00BA  0838               	movf	___flmul@temp,w
  4562  00BB  00A8               	movwf	??___flmul
  4563  00BC  01A9               	clrf	??___flmul+1
  4564  00BD  01AA               	clrf	??___flmul+2
  4565  00BE  01AB               	clrf	??___flmul+3
  4566  00BF  082B               	movf	??___flmul+3,w
  4567  00C0  00B1               	movwf	___flmul@grs+3
  4568  00C1  082A               	movf	??___flmul+2,w
  4569  00C2  00B0               	movwf	___flmul@grs+2
  4570  00C3  0829               	movf	??___flmul+1,w
  4571  00C4  00AF               	movwf	___flmul@grs+1
  4572  00C5  0828               	movf	??___flmul,w
  4573  00C6  00AE               	movwf	___flmul@grs
  4574  00C7                     i1l2856:
  4575  00C7  0839               	movf	___flmul@temp+1,w
  4576  00C8  00A8               	movwf	??___flmul
  4577  00C9  01A9               	clrf	??___flmul+1
  4578  00CA  01AA               	clrf	??___flmul+2
  4579  00CB  01AB               	clrf	??___flmul+3
  4580  00CC  082B               	movf	??___flmul+3,w
  4581  00CD  00B7               	movwf	___flmul@prod+3
  4582  00CE  082A               	movf	??___flmul+2,w
  4583  00CF  00B6               	movwf	___flmul@prod+2
  4584  00D0  0829               	movf	??___flmul+1,w
  4585  00D1  00B5               	movwf	___flmul@prod+1
  4586  00D2  0828               	movf	??___flmul,w
  4587  00D3  00B4               	movwf	___flmul@prod
  4588  00D4  0821               	movf	___flmul@b+1,w
  4589  00D5  00FF               	movwf	btemp+1
  4590  00D6  087F               	movf	btemp+1,w
  4591  00D7  00F0               	movwf	__Umul8_16@multiplicand
  4592  00D8  0825               	movf	___flmul@a+1,w
  4593  00D9  160A  118A  268D  120A  118A  	fcall	__Umul8_16
  4594  00DE  0871               	movf	?__Umul8_16+1,w
  4595  00DF  1283               	bcf	3,5	;RP0=0, select bank0
  4596  00E0  1303               	bcf	3,6	;RP1=0, select bank0
  4597  00E1  00B9               	movwf	___flmul@temp+1
  4598  00E2  0870               	movf	?__Umul8_16,w
  4599  00E3  00B8               	movwf	___flmul@temp
  4600  00E4                     i1l2858:
  4601  00E4  0838               	movf	___flmul@temp,w
  4602  00E5  00A8               	movwf	??___flmul
  4603  00E6  01A9               	clrf	??___flmul+1
  4604  00E7  01AA               	clrf	??___flmul+2
  4605  00E8  01AB               	clrf	??___flmul+3
  4606  00E9  0828               	movf	??___flmul,w
  4607  00EA  07AE               	addwf	___flmul@grs,f
  4608  00EB  0829               	movf	??___flmul+1,w
  4609  00EC  1103               	clrz
  4610  00ED  1803               	skipnc
  4611  00EE  3E01               	addlw	1
  4612  00EF  1903               	skipnz
  4613  00F0  28F2               	goto	u371_21
  4614  00F1  07AF               	addwf	___flmul@grs+1,f
  4615  00F2                     u371_21:
  4616  00F2  082A               	movf	??___flmul+2,w
  4617  00F3  1103               	clrz
  4618  00F4  1803               	skipnc
  4619  00F5  3E01               	addlw	1
  4620  00F6  1903               	skipnz
  4621  00F7  28F9               	goto	u371_22
  4622  00F8  07B0               	addwf	___flmul@grs+2,f
  4623  00F9                     u371_22:
  4624  00F9  082B               	movf	??___flmul+3,w
  4625  00FA  1103               	clrz
  4626  00FB  1803               	skipnc
  4627  00FC  3E01               	addlw	1
  4628  00FD  1903               	skipnz
  4629  00FE  2900               	goto	u371_23
  4630  00FF  07B1               	addwf	___flmul@grs+3,f
  4631  0100                     u371_23:
  4632  0100                     i1l2860:
  4633  0100  0839               	movf	___flmul@temp+1,w
  4634  0101  00A8               	movwf	??___flmul
  4635  0102  01A9               	clrf	??___flmul+1
  4636  0103  01AA               	clrf	??___flmul+2
  4637  0104  01AB               	clrf	??___flmul+3
  4638  0105  0828               	movf	??___flmul,w
  4639  0106  07B4               	addwf	___flmul@prod,f
  4640  0107  0829               	movf	??___flmul+1,w
  4641  0108  1103               	clrz
  4642  0109  1803               	skipnc
  4643  010A  3E01               	addlw	1
  4644  010B  1903               	skipnz
  4645  010C  290E               	goto	u372_21
  4646  010D  07B5               	addwf	___flmul@prod+1,f
  4647  010E                     u372_21:
  4648  010E  082A               	movf	??___flmul+2,w
  4649  010F  1103               	clrz
  4650  0110  1803               	skipnc
  4651  0111  3E01               	addlw	1
  4652  0112  1903               	skipnz
  4653  0113  2915               	goto	u372_22
  4654  0114  07B6               	addwf	___flmul@prod+2,f
  4655  0115                     u372_22:
  4656  0115  082B               	movf	??___flmul+3,w
  4657  0116  1103               	clrz
  4658  0117  1803               	skipnc
  4659  0118  3E01               	addlw	1
  4660  0119  1903               	skipnz
  4661  011A  291C               	goto	u372_23
  4662  011B  07B7               	addwf	___flmul@prod+3,f
  4663  011C                     u372_23:
  4664  011C  0822               	movf	___flmul@b+2,w
  4665  011D  00FF               	movwf	btemp+1
  4666  011E  087F               	movf	btemp+1,w
  4667  011F  00F0               	movwf	__Umul8_16@multiplicand
  4668  0120  0824               	movf	___flmul@a,w
  4669  0121  160A  118A  268D  120A  118A  	fcall	__Umul8_16
  4670  0126  0871               	movf	?__Umul8_16+1,w
  4671  0127  1283               	bcf	3,5	;RP0=0, select bank0
  4672  0128  1303               	bcf	3,6	;RP1=0, select bank0
  4673  0129  00B9               	movwf	___flmul@temp+1
  4674  012A  0870               	movf	?__Umul8_16,w
  4675  012B  00B8               	movwf	___flmul@temp
  4676  012C                     i1l2862:
  4677  012C  0838               	movf	___flmul@temp,w
  4678  012D  00A8               	movwf	??___flmul
  4679  012E  01A9               	clrf	??___flmul+1
  4680  012F  01AA               	clrf	??___flmul+2
  4681  0130  01AB               	clrf	??___flmul+3
  4682  0131  0828               	movf	??___flmul,w
  4683  0132  07AE               	addwf	___flmul@grs,f
  4684  0133  0829               	movf	??___flmul+1,w
  4685  0134  1103               	clrz
  4686  0135  1803               	skipnc
  4687  0136  3E01               	addlw	1
  4688  0137  1903               	skipnz
  4689  0138  293A               	goto	u373_21
  4690  0139  07AF               	addwf	___flmul@grs+1,f
  4691  013A                     u373_21:
  4692  013A  082A               	movf	??___flmul+2,w
  4693  013B  1103               	clrz
  4694  013C  1803               	skipnc
  4695  013D  3E01               	addlw	1
  4696  013E  1903               	skipnz
  4697  013F  2941               	goto	u373_22
  4698  0140  07B0               	addwf	___flmul@grs+2,f
  4699  0141                     u373_22:
  4700  0141  082B               	movf	??___flmul+3,w
  4701  0142  1103               	clrz
  4702  0143  1803               	skipnc
  4703  0144  3E01               	addlw	1
  4704  0145  1903               	skipnz
  4705  0146  2948               	goto	u373_23
  4706  0147  07B1               	addwf	___flmul@grs+3,f
  4707  0148                     u373_23:
  4708  0148                     i1l2864:
  4709  0148  0839               	movf	___flmul@temp+1,w
  4710  0149  00A8               	movwf	??___flmul
  4711  014A  01A9               	clrf	??___flmul+1
  4712  014B  01AA               	clrf	??___flmul+2
  4713  014C  01AB               	clrf	??___flmul+3
  4714  014D  0828               	movf	??___flmul,w
  4715  014E  07B4               	addwf	___flmul@prod,f
  4716  014F  0829               	movf	??___flmul+1,w
  4717  0150  1103               	clrz
  4718  0151  1803               	skipnc
  4719  0152  3E01               	addlw	1
  4720  0153  1903               	skipnz
  4721  0154  2956               	goto	u374_21
  4722  0155  07B5               	addwf	___flmul@prod+1,f
  4723  0156                     u374_21:
  4724  0156  082A               	movf	??___flmul+2,w
  4725  0157  1103               	clrz
  4726  0158  1803               	skipnc
  4727  0159  3E01               	addlw	1
  4728  015A  1903               	skipnz
  4729  015B  295D               	goto	u374_22
  4730  015C  07B6               	addwf	___flmul@prod+2,f
  4731  015D                     u374_22:
  4732  015D  082B               	movf	??___flmul+3,w
  4733  015E  1103               	clrz
  4734  015F  1803               	skipnc
  4735  0160  3E01               	addlw	1
  4736  0161  1903               	skipnz
  4737  0162  2964               	goto	u374_23
  4738  0163  07B7               	addwf	___flmul@prod+3,f
  4739  0164                     u374_23:
  4740  0164                     i1l2866:
  4741  0164  3008               	movlw	8
  4742  0165  00A8               	movwf	??___flmul
  4743  0166                     u375_25:
  4744  0166  1003               	clrc
  4745  0167  0DAE               	rlf	___flmul@grs,f
  4746  0168  0DAF               	rlf	___flmul@grs+1,f
  4747  0169  0DB0               	rlf	___flmul@grs+2,f
  4748  016A  0DB1               	rlf	___flmul@grs+3,f
  4749  016B  0BA8               	decfsz	??___flmul,f
  4750  016C  2966               	goto	u375_25
  4751  016D                     i1l2868:
  4752  016D  0821               	movf	___flmul@b+1,w
  4753  016E  00FF               	movwf	btemp+1
  4754  016F  087F               	movf	btemp+1,w
  4755  0170  00F0               	movwf	__Umul8_16@multiplicand
  4756  0171  0824               	movf	___flmul@a,w
  4757  0172  160A  118A  268D  120A  118A  	fcall	__Umul8_16
  4758  0177  0871               	movf	?__Umul8_16+1,w
  4759  0178  1283               	bcf	3,5	;RP0=0, select bank0
  4760  0179  1303               	bcf	3,6	;RP1=0, select bank0
  4761  017A  00B9               	movwf	___flmul@temp+1
  4762  017B  0870               	movf	?__Umul8_16,w
  4763  017C  00B8               	movwf	___flmul@temp
  4764  017D                     i1l2870:
  4765  017D  0838               	movf	___flmul@temp,w
  4766  017E  00A8               	movwf	??___flmul
  4767  017F  0839               	movf	___flmul@temp+1,w
  4768  0180  00A9               	movwf	??___flmul+1
  4769  0181  01AA               	clrf	??___flmul+2
  4770  0182  01AB               	clrf	??___flmul+3
  4771  0183  0828               	movf	??___flmul,w
  4772  0184  07AE               	addwf	___flmul@grs,f
  4773  0185  0829               	movf	??___flmul+1,w
  4774  0186  1103               	clrz
  4775  0187  1803               	skipnc
  4776  0188  3E01               	addlw	1
  4777  0189  1903               	skipnz
  4778  018A  298C               	goto	u376_21
  4779  018B  07AF               	addwf	___flmul@grs+1,f
  4780  018C                     u376_21:
  4781  018C  082A               	movf	??___flmul+2,w
  4782  018D  1103               	clrz
  4783  018E  1803               	skipnc
  4784  018F  3E01               	addlw	1
  4785  0190  1903               	skipnz
  4786  0191  2993               	goto	u376_22
  4787  0192  07B0               	addwf	___flmul@grs+2,f
  4788  0193                     u376_22:
  4789  0193  082B               	movf	??___flmul+3,w
  4790  0194  1103               	clrz
  4791  0195  1803               	skipnc
  4792  0196  3E01               	addlw	1
  4793  0197  1903               	skipnz
  4794  0198  299A               	goto	u376_23
  4795  0199  07B1               	addwf	___flmul@grs+3,f
  4796  019A                     u376_23:
  4797  019A                     i1l2872:
  4798  019A  0820               	movf	___flmul@b,w
  4799  019B  00FF               	movwf	btemp+1
  4800  019C  087F               	movf	btemp+1,w
  4801  019D  00F0               	movwf	__Umul8_16@multiplicand
  4802  019E  0825               	movf	___flmul@a+1,w
  4803  019F  160A  118A  268D  120A  118A  	fcall	__Umul8_16
  4804  01A4  0871               	movf	?__Umul8_16+1,w
  4805  01A5  1283               	bcf	3,5	;RP0=0, select bank0
  4806  01A6  1303               	bcf	3,6	;RP1=0, select bank0
  4807  01A7  00B9               	movwf	___flmul@temp+1
  4808  01A8  0870               	movf	?__Umul8_16,w
  4809  01A9  00B8               	movwf	___flmul@temp
  4810  01AA                     i1l2874:
  4811  01AA  0838               	movf	___flmul@temp,w
  4812  01AB  00A8               	movwf	??___flmul
  4813  01AC  0839               	movf	___flmul@temp+1,w
  4814  01AD  00A9               	movwf	??___flmul+1
  4815  01AE  01AA               	clrf	??___flmul+2
  4816  01AF  01AB               	clrf	??___flmul+3
  4817  01B0  0828               	movf	??___flmul,w
  4818  01B1  07AE               	addwf	___flmul@grs,f
  4819  01B2  0829               	movf	??___flmul+1,w
  4820  01B3  1103               	clrz
  4821  01B4  1803               	skipnc
  4822  01B5  3E01               	addlw	1
  4823  01B6  1903               	skipnz
  4824  01B7  29B9               	goto	u377_21
  4825  01B8  07AF               	addwf	___flmul@grs+1,f
  4826  01B9                     u377_21:
  4827  01B9  082A               	movf	??___flmul+2,w
  4828  01BA  1103               	clrz
  4829  01BB  1803               	skipnc
  4830  01BC  3E01               	addlw	1
  4831  01BD  1903               	skipnz
  4832  01BE  29C0               	goto	u377_22
  4833  01BF  07B0               	addwf	___flmul@grs+2,f
  4834  01C0                     u377_22:
  4835  01C0  082B               	movf	??___flmul+3,w
  4836  01C1  1103               	clrz
  4837  01C2  1803               	skipnc
  4838  01C3  3E01               	addlw	1
  4839  01C4  1903               	skipnz
  4840  01C5  29C7               	goto	u377_23
  4841  01C6  07B1               	addwf	___flmul@grs+3,f
  4842  01C7                     u377_23:
  4843  01C7                     i1l2876:
  4844  01C7  3008               	movlw	8
  4845  01C8  00A8               	movwf	??___flmul
  4846  01C9                     u378_25:
  4847  01C9  1003               	clrc
  4848  01CA  0DAE               	rlf	___flmul@grs,f
  4849  01CB  0DAF               	rlf	___flmul@grs+1,f
  4850  01CC  0DB0               	rlf	___flmul@grs+2,f
  4851  01CD  0DB1               	rlf	___flmul@grs+3,f
  4852  01CE  0BA8               	decfsz	??___flmul,f
  4853  01CF  29C9               	goto	u378_25
  4854  01D0  0820               	movf	___flmul@b,w
  4855  01D1  00FF               	movwf	btemp+1
  4856  01D2  087F               	movf	btemp+1,w
  4857  01D3  00F0               	movwf	__Umul8_16@multiplicand
  4858  01D4  0824               	movf	___flmul@a,w
  4859  01D5  160A  118A  268D  120A  118A  	fcall	__Umul8_16
  4860  01DA  0871               	movf	?__Umul8_16+1,w
  4861  01DB  1283               	bcf	3,5	;RP0=0, select bank0
  4862  01DC  1303               	bcf	3,6	;RP1=0, select bank0
  4863  01DD  00B9               	movwf	___flmul@temp+1
  4864  01DE  0870               	movf	?__Umul8_16,w
  4865  01DF  00B8               	movwf	___flmul@temp
  4866  01E0                     i1l2878:
  4867  01E0  0838               	movf	___flmul@temp,w
  4868  01E1  00A8               	movwf	??___flmul
  4869  01E2  0839               	movf	___flmul@temp+1,w
  4870  01E3  00A9               	movwf	??___flmul+1
  4871  01E4  01AA               	clrf	??___flmul+2
  4872  01E5  01AB               	clrf	??___flmul+3
  4873  01E6  0828               	movf	??___flmul,w
  4874  01E7  07AE               	addwf	___flmul@grs,f
  4875  01E8  0829               	movf	??___flmul+1,w
  4876  01E9  1103               	clrz
  4877  01EA  1803               	skipnc
  4878  01EB  3E01               	addlw	1
  4879  01EC  1903               	skipnz
  4880  01ED  29EF               	goto	u379_21
  4881  01EE  07AF               	addwf	___flmul@grs+1,f
  4882  01EF                     u379_21:
  4883  01EF  082A               	movf	??___flmul+2,w
  4884  01F0  1103               	clrz
  4885  01F1  1803               	skipnc
  4886  01F2  3E01               	addlw	1
  4887  01F3  1903               	skipnz
  4888  01F4  29F6               	goto	u379_22
  4889  01F5  07B0               	addwf	___flmul@grs+2,f
  4890  01F6                     u379_22:
  4891  01F6  082B               	movf	??___flmul+3,w
  4892  01F7  1103               	clrz
  4893  01F8  1803               	skipnc
  4894  01F9  3E01               	addlw	1
  4895  01FA  1903               	skipnz
  4896  01FB  29FD               	goto	u379_23
  4897  01FC  07B1               	addwf	___flmul@grs+3,f
  4898  01FD                     u379_23:
  4899  01FD                     i1l2880:
  4900  01FD  0821               	movf	___flmul@b+1,w
  4901  01FE  00FF               	movwf	btemp+1
  4902  01FF  087F               	movf	btemp+1,w
  4903  0200  00F0               	movwf	__Umul8_16@multiplicand
  4904  0201  0826               	movf	___flmul@a+2,w
  4905  0202  160A  118A  268D  120A  118A  	fcall	__Umul8_16
  4906  0207  0871               	movf	?__Umul8_16+1,w
  4907  0208  1283               	bcf	3,5	;RP0=0, select bank0
  4908  0209  1303               	bcf	3,6	;RP1=0, select bank0
  4909  020A  00B9               	movwf	___flmul@temp+1
  4910  020B  0870               	movf	?__Umul8_16,w
  4911  020C  00B8               	movwf	___flmul@temp
  4912  020D  0838               	movf	___flmul@temp,w
  4913  020E  00A8               	movwf	??___flmul
  4914  020F  0839               	movf	___flmul@temp+1,w
  4915  0210  00A9               	movwf	??___flmul+1
  4916  0211  01AA               	clrf	??___flmul+2
  4917  0212  01AB               	clrf	??___flmul+3
  4918  0213  0828               	movf	??___flmul,w
  4919  0214  07B4               	addwf	___flmul@prod,f
  4920  0215  0829               	movf	??___flmul+1,w
  4921  0216  1103               	clrz
  4922  0217  1803               	skipnc
  4923  0218  3E01               	addlw	1
  4924  0219  1903               	skipnz
  4925  021A  2A1C               	goto	u380_21
  4926  021B  07B5               	addwf	___flmul@prod+1,f
  4927  021C                     u380_21:
  4928  021C  082A               	movf	??___flmul+2,w
  4929  021D  1103               	clrz
  4930  021E  1803               	skipnc
  4931  021F  3E01               	addlw	1
  4932  0220  1903               	skipnz
  4933  0221  2A23               	goto	u380_22
  4934  0222  07B6               	addwf	___flmul@prod+2,f
  4935  0223                     u380_22:
  4936  0223  082B               	movf	??___flmul+3,w
  4937  0224  1103               	clrz
  4938  0225  1803               	skipnc
  4939  0226  3E01               	addlw	1
  4940  0227  1903               	skipnz
  4941  0228  2A2A               	goto	u380_23
  4942  0229  07B7               	addwf	___flmul@prod+3,f
  4943  022A                     u380_23:
  4944  022A                     i1l2882:
  4945  022A  0822               	movf	___flmul@b+2,w
  4946  022B  00FF               	movwf	btemp+1
  4947  022C  087F               	movf	btemp+1,w
  4948  022D  00F0               	movwf	__Umul8_16@multiplicand
  4949  022E  0825               	movf	___flmul@a+1,w
  4950  022F  160A  118A  268D  120A  118A  	fcall	__Umul8_16
  4951  0234  0871               	movf	?__Umul8_16+1,w
  4952  0235  1283               	bcf	3,5	;RP0=0, select bank0
  4953  0236  1303               	bcf	3,6	;RP1=0, select bank0
  4954  0237  00B9               	movwf	___flmul@temp+1
  4955  0238  0870               	movf	?__Umul8_16,w
  4956  0239  00B8               	movwf	___flmul@temp
  4957  023A                     i1l2884:
  4958  023A  0838               	movf	___flmul@temp,w
  4959  023B  00A8               	movwf	??___flmul
  4960  023C  0839               	movf	___flmul@temp+1,w
  4961  023D  00A9               	movwf	??___flmul+1
  4962  023E  01AA               	clrf	??___flmul+2
  4963  023F  01AB               	clrf	??___flmul+3
  4964  0240  0828               	movf	??___flmul,w
  4965  0241  07B4               	addwf	___flmul@prod,f
  4966  0242  0829               	movf	??___flmul+1,w
  4967  0243  1103               	clrz
  4968  0244  1803               	skipnc
  4969  0245  3E01               	addlw	1
  4970  0246  1903               	skipnz
  4971  0247  2A49               	goto	u381_21
  4972  0248  07B5               	addwf	___flmul@prod+1,f
  4973  0249                     u381_21:
  4974  0249  082A               	movf	??___flmul+2,w
  4975  024A  1103               	clrz
  4976  024B  1803               	skipnc
  4977  024C  3E01               	addlw	1
  4978  024D  1903               	skipnz
  4979  024E  2A50               	goto	u381_22
  4980  024F  07B6               	addwf	___flmul@prod+2,f
  4981  0250                     u381_22:
  4982  0250  082B               	movf	??___flmul+3,w
  4983  0251  1103               	clrz
  4984  0252  1803               	skipnc
  4985  0253  3E01               	addlw	1
  4986  0254  1903               	skipnz
  4987  0255  2A57               	goto	u381_23
  4988  0256  07B7               	addwf	___flmul@prod+3,f
  4989  0257                     u381_23:
  4990  0257  0822               	movf	___flmul@b+2,w
  4991  0258  00FF               	movwf	btemp+1
  4992  0259  087F               	movf	btemp+1,w
  4993  025A  00F0               	movwf	__Umul8_16@multiplicand
  4994  025B  0826               	movf	___flmul@a+2,w
  4995  025C  160A  118A  268D  120A  118A  	fcall	__Umul8_16
  4996  0261  0871               	movf	?__Umul8_16+1,w
  4997  0262  1283               	bcf	3,5	;RP0=0, select bank0
  4998  0263  1303               	bcf	3,6	;RP1=0, select bank0
  4999  0264  00B9               	movwf	___flmul@temp+1
  5000  0265  0870               	movf	?__Umul8_16,w
  5001  0266  00B8               	movwf	___flmul@temp
  5002  0267                     i1l2886:
  5003  0267  0838               	movf	___flmul@temp,w
  5004  0268  00A8               	movwf	??___flmul
  5005  0269  0839               	movf	___flmul@temp+1,w
  5006  026A  00A9               	movwf	??___flmul+1
  5007  026B  01AA               	clrf	??___flmul+2
  5008  026C  01AB               	clrf	??___flmul+3
  5009  026D  3008               	movlw	8
  5010  026E                     u382_25:
  5011  026E  1003               	clrc
  5012  026F  0DA8               	rlf	??___flmul,f
  5013  0270  0DA9               	rlf	??___flmul+1,f
  5014  0271  0DAA               	rlf	??___flmul+2,f
  5015  0272  0DAB               	rlf	??___flmul+3,f
  5016  0273                     u382_20:
  5017  0273  3EFF               	addlw	-1
  5018  0274  1D03               	skipz
  5019  0275  2A6E               	goto	u382_25
  5020  0276  0828               	movf	??___flmul,w
  5021  0277  07B4               	addwf	___flmul@prod,f
  5022  0278  0829               	movf	??___flmul+1,w
  5023  0279  1103               	clrz
  5024  027A  1803               	skipnc
  5025  027B  3E01               	addlw	1
  5026  027C  1903               	skipnz
  5027  027D  2A7F               	goto	u383_21
  5028  027E  07B5               	addwf	___flmul@prod+1,f
  5029  027F                     u383_21:
  5030  027F  082A               	movf	??___flmul+2,w
  5031  0280  1103               	clrz
  5032  0281  1803               	skipnc
  5033  0282  3E01               	addlw	1
  5034  0283  1903               	skipnz
  5035  0284  2A86               	goto	u383_22
  5036  0285  07B6               	addwf	___flmul@prod+2,f
  5037  0286                     u383_22:
  5038  0286  082B               	movf	??___flmul+3,w
  5039  0287  1103               	clrz
  5040  0288  1803               	skipnc
  5041  0289  3E01               	addlw	1
  5042  028A  1903               	skipnz
  5043  028B  2A8D               	goto	u383_23
  5044  028C  07B7               	addwf	___flmul@prod+3,f
  5045  028D                     u383_23:
  5046  028D                     i1l2888:
  5047  028D  082E               	movf	___flmul@grs,w
  5048  028E  00A8               	movwf	??___flmul
  5049  028F  082F               	movf	___flmul@grs+1,w
  5050  0290  00A9               	movwf	??___flmul+1
  5051  0291  0830               	movf	___flmul@grs+2,w
  5052  0292  00AA               	movwf	??___flmul+2
  5053  0293  0831               	movf	___flmul@grs+3,w
  5054  0294  00AB               	movwf	??___flmul+3
  5055  0295  3018               	movlw	24
  5056  0296                     u384_25:
  5057  0296  1003               	clrc
  5058  0297  0CAB               	rrf	??___flmul+3,f
  5059  0298  0CAA               	rrf	??___flmul+2,f
  5060  0299  0CA9               	rrf	??___flmul+1,f
  5061  029A  0CA8               	rrf	??___flmul,f
  5062  029B                     u384_20:
  5063  029B  3EFF               	addlw	-1
  5064  029C  1D03               	skipz
  5065  029D  2A96               	goto	u384_25
  5066  029E  0828               	movf	??___flmul,w
  5067  029F  07B4               	addwf	___flmul@prod,f
  5068  02A0  0829               	movf	??___flmul+1,w
  5069  02A1  1103               	clrz
  5070  02A2  1803               	skipnc
  5071  02A3  3E01               	addlw	1
  5072  02A4  1903               	skipnz
  5073  02A5  2AA7               	goto	u385_21
  5074  02A6  07B5               	addwf	___flmul@prod+1,f
  5075  02A7                     u385_21:
  5076  02A7  082A               	movf	??___flmul+2,w
  5077  02A8  1103               	clrz
  5078  02A9  1803               	skipnc
  5079  02AA  3E01               	addlw	1
  5080  02AB  1903               	skipnz
  5081  02AC  2AAE               	goto	u385_22
  5082  02AD  07B6               	addwf	___flmul@prod+2,f
  5083  02AE                     u385_22:
  5084  02AE  082B               	movf	??___flmul+3,w
  5085  02AF  1103               	clrz
  5086  02B0  1803               	skipnc
  5087  02B1  3E01               	addlw	1
  5088  02B2  1903               	skipnz
  5089  02B3  2AB5               	goto	u385_23
  5090  02B4  07B7               	addwf	___flmul@prod+3,f
  5091  02B5                     u385_23:
  5092  02B5                     i1l2890:
  5093  02B5  3008               	movlw	8
  5094  02B6  00A8               	movwf	??___flmul
  5095  02B7                     u386_25:
  5096  02B7  1003               	clrc
  5097  02B8  0DAE               	rlf	___flmul@grs,f
  5098  02B9  0DAF               	rlf	___flmul@grs+1,f
  5099  02BA  0DB0               	rlf	___flmul@grs+2,f
  5100  02BB  0DB1               	rlf	___flmul@grs+3,f
  5101  02BC  0BA8               	decfsz	??___flmul,f
  5102  02BD  2AB7               	goto	u386_25
  5103  02BE                     i1l2892:
  5104  02BE  0833               	movf	___flmul@bexp,w
  5105  02BF  0732               	addwf	___flmul@aexp,w
  5106  02C0  00A8               	movwf	??___flmul
  5107  02C1  01A9               	clrf	??___flmul+1
  5108  02C2  0DA9               	rlf	??___flmul+1,f
  5109  02C3  0828               	movf	??___flmul,w
  5110  02C4  3E82               	addlw	130
  5111  02C5  00B8               	movwf	___flmul@temp
  5112  02C6  0829               	movf	??___flmul+1,w
  5113  02C7  1803               	skipnc
  5114  02C8  3E01               	addlw	1
  5115  02C9  3EFF               	addlw	255
  5116  02CA  00B9               	movwf	___flmul@temp+1
  5117  02CB  2AE9               	goto	i1l2904
  5118  02CC                     i1l2894:
  5119  02CC  3001               	movlw	1
  5120  02CD  00A8               	movwf	??___flmul
  5121  02CE                     u387_25:
  5122  02CE  1003               	clrc
  5123  02CF  0DB4               	rlf	___flmul@prod,f
  5124  02D0  0DB5               	rlf	___flmul@prod+1,f
  5125  02D1  0DB6               	rlf	___flmul@prod+2,f
  5126  02D2  0DB7               	rlf	___flmul@prod+3,f
  5127  02D3  0BA8               	decfsz	??___flmul,f
  5128  02D4  2ACE               	goto	u387_25
  5129  02D5                     i1l2896:
  5130  02D5  1FB1               	btfss	___flmul@grs+3,7
  5131  02D6  2AD8               	goto	u388_21
  5132  02D7  2AD9               	goto	u388_20
  5133  02D8                     u388_21:
  5134  02D8  2ADA               	goto	i1l2900
  5135  02D9                     u388_20:
  5136  02D9                     i1l2898:
  5137  02D9  1434               	bsf	___flmul@prod,0
  5138  02DA                     i1l2900:
  5139  02DA  3001               	movlw	1
  5140  02DB  00A8               	movwf	??___flmul
  5141  02DC                     u389_25:
  5142  02DC  1003               	clrc
  5143  02DD  0DAE               	rlf	___flmul@grs,f
  5144  02DE  0DAF               	rlf	___flmul@grs+1,f
  5145  02DF  0DB0               	rlf	___flmul@grs+2,f
  5146  02E0  0DB1               	rlf	___flmul@grs+3,f
  5147  02E1  0BA8               	decfsz	??___flmul,f
  5148  02E2  2ADC               	goto	u389_25
  5149  02E3                     i1l2902:
  5150  02E3  30FF               	movlw	255
  5151  02E4  07B8               	addwf	___flmul@temp,f
  5152  02E5  1803               	skipnc
  5153  02E6  0AB9               	incf	___flmul@temp+1,f
  5154  02E7  30FF               	movlw	255
  5155  02E8  07B9               	addwf	___flmul@temp+1,f
  5156  02E9                     i1l2904:
  5157  02E9  1FB6               	btfss	___flmul@prod+2,7
  5158  02EA  2AEC               	goto	u390_21
  5159  02EB  2AED               	goto	u390_20
  5160  02EC                     u390_21:
  5161  02EC  2ACC               	goto	i1l2894
  5162  02ED                     u390_20:
  5163  02ED                     i1l2906:
  5164  02ED  01B2               	clrf	___flmul@aexp
  5165  02EE                     i1l2908:
  5166  02EE  1FB1               	btfss	___flmul@grs+3,7
  5167  02EF  2AF1               	goto	u391_21
  5168  02F0  2AF2               	goto	u391_20
  5169  02F1                     u391_21:
  5170  02F1  2B0E               	goto	i1l2916
  5171  02F2                     u391_20:
  5172  02F2                     i1l2910:
  5173  02F2  30FF               	movlw	255
  5174  02F3  052E               	andwf	___flmul@grs,w
  5175  02F4  00A8               	movwf	??___flmul
  5176  02F5  30FF               	movlw	255
  5177  02F6  052F               	andwf	___flmul@grs+1,w
  5178  02F7  00A9               	movwf	??___flmul+1
  5179  02F8  30FF               	movlw	255
  5180  02F9  0530               	andwf	___flmul@grs+2,w
  5181  02FA  00AA               	movwf	??___flmul+2
  5182  02FB  307F               	movlw	127
  5183  02FC  0531               	andwf	___flmul@grs+3,w
  5184  02FD  00AB               	movwf	??___flmul+3
  5185  02FE  082B               	movf	??___flmul+3,w
  5186  02FF  042A               	iorwf	??___flmul+2,w
  5187  0300  0429               	iorwf	??___flmul+1,w
  5188  0301  0428               	iorwf	??___flmul,w
  5189  0302  1903               	skipnz
  5190  0303  2B05               	goto	u392_21
  5191  0304  2B06               	goto	u392_20
  5192  0305                     u392_21:
  5193  0305  2B09               	goto	i1l791
  5194  0306                     u392_20:
  5195  0306                     i1l2912:
  5196  0306  01B2               	clrf	___flmul@aexp
  5197  0307  0AB2               	incf	___flmul@aexp,f
  5198  0308  2B0E               	goto	i1l2916
  5199  0309                     i1l791:
  5200  0309  1C34               	btfss	___flmul@prod,0
  5201  030A  2B0C               	goto	u393_21
  5202  030B  2B0D               	goto	u393_20
  5203  030C                     u393_21:
  5204  030C  2B0E               	goto	i1l2916
  5205  030D                     u393_20:
  5206  030D  2B06               	goto	i1l2912
  5207  030E                     i1l2916:
  5208  030E  0832               	movf	___flmul@aexp,w
  5209  030F  1903               	btfsc	3,2
  5210  0310  2B12               	goto	u394_21
  5211  0311  2B13               	goto	u394_20
  5212  0312                     u394_21:
  5213  0312  2B44               	goto	i1l2926
  5214  0313                     u394_20:
  5215  0313                     i1l2918:
  5216  0313  3001               	movlw	1
  5217  0314  07B4               	addwf	___flmul@prod,f
  5218  0315  3000               	movlw	0
  5219  0316  1803               	skipnc
  5220  0317  3001               	movlw	1
  5221  0318  07B5               	addwf	___flmul@prod+1,f
  5222  0319  3000               	movlw	0
  5223  031A  1803               	skipnc
  5224  031B  3001               	movlw	1
  5225  031C  07B6               	addwf	___flmul@prod+2,f
  5226  031D  3000               	movlw	0
  5227  031E  1803               	skipnc
  5228  031F  3001               	movlw	1
  5229  0320  07B7               	addwf	___flmul@prod+3,f
  5230  0321                     i1l2920:
  5231  0321  1C37               	btfss	___flmul@prod+3,0
  5232  0322  2B24               	goto	u395_21
  5233  0323  2B25               	goto	u395_20
  5234  0324                     u395_21:
  5235  0324  2B44               	goto	i1l2926
  5236  0325                     u395_20:
  5237  0325                     i1l2922:
  5238  0325  0834               	movf	___flmul@prod,w
  5239  0326  00A8               	movwf	??___flmul
  5240  0327  0835               	movf	___flmul@prod+1,w
  5241  0328  00A9               	movwf	??___flmul+1
  5242  0329  0836               	movf	___flmul@prod+2,w
  5243  032A  00AA               	movwf	??___flmul+2
  5244  032B  0837               	movf	___flmul@prod+3,w
  5245  032C  00AB               	movwf	??___flmul+3
  5246  032D  3001               	movlw	1
  5247  032E  00AC               	movwf	??___flmul+4
  5248  032F                     u396_25:
  5249  032F  0D2B               	rlf	??___flmul+3,w
  5250  0330  0CAB               	rrf	??___flmul+3,f
  5251  0331  0CAA               	rrf	??___flmul+2,f
  5252  0332  0CA9               	rrf	??___flmul+1,f
  5253  0333  0CA8               	rrf	??___flmul,f
  5254  0334                     u396_20:
  5255  0334  0BAC               	decfsz	??___flmul+4,f
  5256  0335  2B2F               	goto	u396_25
  5257  0336  082B               	movf	??___flmul+3,w
  5258  0337  00B7               	movwf	___flmul@prod+3
  5259  0338  082A               	movf	??___flmul+2,w
  5260  0339  00B6               	movwf	___flmul@prod+2
  5261  033A  0829               	movf	??___flmul+1,w
  5262  033B  00B5               	movwf	___flmul@prod+1
  5263  033C  0828               	movf	??___flmul,w
  5264  033D  00B4               	movwf	___flmul@prod
  5265  033E                     i1l2924:
  5266  033E  3001               	movlw	1
  5267  033F  07B8               	addwf	___flmul@temp,f
  5268  0340  1803               	skipnc
  5269  0341  0AB9               	incf	___flmul@temp+1,f
  5270  0342  3000               	movlw	0
  5271  0343  07B9               	addwf	___flmul@temp+1,f
  5272  0344                     i1l2926:
  5273  0344  0839               	movf	___flmul@temp+1,w
  5274  0345  3A80               	xorlw	128
  5275  0346  00FF               	movwf	btemp+1
  5276  0347  3080               	movlw	128
  5277  0348  027F               	subwf	btemp+1,w
  5278  0349  1D03               	skipz
  5279  034A  2B4D               	goto	u397_25
  5280  034B  30FF               	movlw	255
  5281  034C  0238               	subwf	___flmul@temp,w
  5282  034D                     u397_25:
  5283  034D  1C03               	skipc
  5284  034E  2B50               	goto	u397_21
  5285  034F  2B51               	goto	u397_20
  5286  0350                     u397_21:
  5287  0350  2B5C               	goto	i1l2930
  5288  0351                     u397_20:
  5289  0351                     i1l2928:
  5290  0351  307F               	movlw	127
  5291  0352  1283               	bcf	3,5	;RP0=0, select bank0
  5292  0353  1303               	bcf	3,6	;RP1=0, select bank0
  5293  0354  00B7               	movwf	___flmul@prod+3
  5294  0355  3080               	movlw	128
  5295  0356  00B6               	movwf	___flmul@prod+2
  5296  0357  3000               	movlw	0
  5297  0358  00B5               	movwf	___flmul@prod+1
  5298  0359  3000               	movlw	0
  5299  035A  00B4               	movwf	___flmul@prod
  5300  035B  2B91               	goto	i1l797
  5301  035C                     i1l2930:
  5302  035C  1283               	bcf	3,5	;RP0=0, select bank0
  5303  035D  1303               	bcf	3,6	;RP1=0, select bank0
  5304  035E  0839               	movf	___flmul@temp+1,w
  5305  035F  3A80               	xorlw	128
  5306  0360  00FF               	movwf	btemp+1
  5307  0361  3080               	movlw	128
  5308  0362  027F               	subwf	btemp+1,w
  5309  0363  1D03               	skipz
  5310  0364  2B67               	goto	u398_25
  5311  0365  3001               	movlw	1
  5312  0366  0238               	subwf	___flmul@temp,w
  5313  0367                     u398_25:
  5314  0367  1803               	skipnc
  5315  0368  2B6A               	goto	u398_21
  5316  0369  2B6B               	goto	u398_20
  5317  036A                     u398_21:
  5318  036A  2B77               	goto	i1l2936
  5319  036B                     u398_20:
  5320  036B                     i1l2932:
  5321  036B  3000               	movlw	0
  5322  036C  1283               	bcf	3,5	;RP0=0, select bank0
  5323  036D  1303               	bcf	3,6	;RP1=0, select bank0
  5324  036E  00B7               	movwf	___flmul@prod+3
  5325  036F  3000               	movlw	0
  5326  0370  00B6               	movwf	___flmul@prod+2
  5327  0371  3000               	movlw	0
  5328  0372  00B5               	movwf	___flmul@prod+1
  5329  0373  3000               	movlw	0
  5330  0374  00B4               	movwf	___flmul@prod
  5331  0375                     i1l2934:
  5332  0375  01AD               	clrf	___flmul@sign
  5333  0376  2B91               	goto	i1l797
  5334  0377                     i1l2936:
  5335  0377  1283               	bcf	3,5	;RP0=0, select bank0
  5336  0378  1303               	bcf	3,6	;RP1=0, select bank0
  5337  0379  0838               	movf	___flmul@temp,w
  5338  037A  00FF               	movwf	btemp+1
  5339  037B  087F               	movf	btemp+1,w
  5340  037C  00B3               	movwf	___flmul@bexp
  5341  037D                     i1l2938:
  5342  037D  30FF               	movlw	255
  5343  037E  05B4               	andwf	___flmul@prod,f
  5344  037F  30FF               	movlw	255
  5345  0380  05B5               	andwf	___flmul@prod+1,f
  5346  0381  307F               	movlw	127
  5347  0382  05B6               	andwf	___flmul@prod+2,f
  5348  0383  3000               	movlw	0
  5349  0384  05B7               	andwf	___flmul@prod+3,f
  5350  0385                     i1l2940:
  5351  0385  1C33               	btfss	___flmul@bexp,0
  5352  0386  2B88               	goto	u399_21
  5353  0387  2B89               	goto	u399_20
  5354  0388                     u399_21:
  5355  0388  2B8A               	goto	i1l2944
  5356  0389                     u399_20:
  5357  0389                     i1l2942:
  5358  0389  17B6               	bsf	___flmul@prod+2,7
  5359  038A                     i1l2944:
  5360  038A  0833               	movf	___flmul@bexp,w
  5361  038B  00A8               	movwf	??___flmul
  5362  038C  1003               	clrc
  5363  038D  0C28               	rrf	??___flmul,w
  5364  038E  00FF               	movwf	btemp+1
  5365  038F  087F               	movf	btemp+1,w
  5366  0390  00B7               	movwf	___flmul@prod+3
  5367  0391                     i1l797:
  5368  0391  082D               	movf	___flmul@sign,w
  5369  0392  00FF               	movwf	btemp+1
  5370  0393  087F               	movf	btemp+1,w
  5371  0394  04B7               	iorwf	___flmul@prod+3,f
  5372  0395                     i1l2946:
  5373  0395  0837               	movf	___flmul@prod+3,w
  5374  0396  00A3               	movwf	?___flmul+3
  5375  0397  0836               	movf	___flmul@prod+2,w
  5376  0398  00A2               	movwf	?___flmul+2
  5377  0399  0835               	movf	___flmul@prod+1,w
  5378  039A  00A1               	movwf	?___flmul+1
  5379  039B  0834               	movf	___flmul@prod,w
  5380  039C  00A0               	movwf	?___flmul
  5381  039D                     i1l785:
  5382  039D  0008               	return
  5383  039E                     __end_of___flmul:
  5384                           
  5385                           	psect	text32
  5386  168D                     __ptext32:	
  5387 ;; *************** function __Umul8_16 *****************
  5388 ;; Defined at:
  5389 ;;		line 4 in file "C:\Program Files\Microchip\xc8\v2.20\pic\sources\c90\common\Umul8_16.c"
  5390 ;; Parameters:    Size  Location     Type
  5391 ;;  multiplier      1    wreg     unsigned char 
  5392 ;;  multiplicand    1    0[COMMON] unsigned char 
  5393 ;; Auto vars:     Size  Location     Type
  5394 ;;  multiplier      1    8[COMMON] unsigned char 
  5395 ;;  word_mpld       2    6[COMMON] unsigned int 
  5396 ;;  product         2    4[COMMON] unsigned int 
  5397 ;; Return value:  Size  Location     Type
  5398 ;;                  2    0[COMMON] unsigned int 
  5399 ;; Registers used:
  5400 ;;		wreg, status,2, status,0
  5401 ;; Tracked objects:
  5402 ;;		On entry : 0/0
  5403 ;;		On exit  : 0/0
  5404 ;;		Unchanged: 0/0
  5405 ;; Data sizes:     COMMON   BANK0   BANK1   BANK3   BANK2
  5406 ;;      Params:         2       0       0       0       0
  5407 ;;      Locals:         5       0       0       0       0
  5408 ;;      Temps:          2       0       0       0       0
  5409 ;;      Totals:         9       0       0       0       0
  5410 ;;Total ram usage:        9 bytes
  5411 ;; Hardware stack levels used:    1
  5412 ;; This function calls:
  5413 ;;		Nothing
  5414 ;; This function is called by:
  5415 ;;		___flmul
  5416 ;; This function uses a non-reentrant model
  5417 ;;
  5418                           
  5419                           
  5420                           ;psect for function __Umul8_16
  5421  168D                     __Umul8_16:
  5422                           
  5423                           ;incstack = 0
  5424 ;; hardware stack exceeded
  5425                           ; Regs used in __Umul8_16: [wreg+status,2+status,0]
  5426                           ;__Umul8_16@multiplier stored from wreg
  5427  168D  00F8               	movwf	__Umul8_16@multiplier
  5428  168E                     i1l2546:
  5429  168E  01F4               	clrf	__Umul8_16@product
  5430  168F  01F5               	clrf	__Umul8_16@product+1
  5431  1690                     i1l2548:
  5432  1690  0870               	movf	__Umul8_16@multiplicand,w
  5433  1691  00F2               	movwf	??__Umul8_16
  5434  1692  01F3               	clrf	??__Umul8_16+1
  5435  1693  0872               	movf	??__Umul8_16,w
  5436  1694  00F6               	movwf	__Umul8_16@word_mpld
  5437  1695  0873               	movf	??__Umul8_16+1,w
  5438  1696  00F7               	movwf	__Umul8_16@word_mpld+1
  5439  1697                     i1l2550:
  5440  1697  1C78               	btfss	__Umul8_16@multiplier,0
  5441  1698  2E9A               	goto	u320_21
  5442  1699  2E9B               	goto	u320_20
  5443  169A                     u320_21:
  5444  169A  2EA1               	goto	i1l804
  5445  169B                     u320_20:
  5446  169B                     i1l2552:
  5447  169B  0876               	movf	__Umul8_16@word_mpld,w
  5448  169C  07F4               	addwf	__Umul8_16@product,f
  5449  169D  1803               	skipnc
  5450  169E  0AF5               	incf	__Umul8_16@product+1,f
  5451  169F  0877               	movf	__Umul8_16@word_mpld+1,w
  5452  16A0  07F5               	addwf	__Umul8_16@product+1,f
  5453  16A1                     i1l804:
  5454  16A1  3001               	movlw	1
  5455  16A2                     u321_25:
  5456  16A2  1003               	clrc
  5457  16A3  0DF6               	rlf	__Umul8_16@word_mpld,f
  5458  16A4  0DF7               	rlf	__Umul8_16@word_mpld+1,f
  5459  16A5  3EFF               	addlw	-1
  5460  16A6  1D03               	skipz
  5461  16A7  2EA2               	goto	u321_25
  5462  16A8  1003               	clrc
  5463  16A9  0CF8               	rrf	__Umul8_16@multiplier,f
  5464  16AA                     i1l2554:
  5465  16AA  0878               	movf	__Umul8_16@multiplier,w
  5466  16AB  1D03               	btfss	3,2
  5467  16AC  2EAE               	goto	u322_21
  5468  16AD  2EAF               	goto	u322_20
  5469  16AE                     u322_21:
  5470  16AE  2E97               	goto	i1l2550
  5471  16AF                     u322_20:
  5472  16AF                     i1l2556:
  5473  16AF  0875               	movf	__Umul8_16@product+1,w
  5474  16B0  00F1               	movwf	?__Umul8_16+1
  5475  16B1  0874               	movf	__Umul8_16@product,w
  5476  16B2  00F0               	movwf	?__Umul8_16
  5477  16B3                     i1l806:
  5478  16B3  0008               	return
  5479  16B4                     __end_of__Umul8_16:
  5480                           
  5481                           	psect	text33
  5482  0DB2                     __ptext33:	
  5483 ;; *************** function _AverageTemp *****************
  5484 ;; Defined at:
  5485 ;;		line 85 in file "./Temperature.h"
  5486 ;; Parameters:    Size  Location     Type
  5487 ;;		None
  5488 ;; Auto vars:     Size  Location     Type
  5489 ;;  j               2   73[BANK0 ] int 
  5490 ;;  j               2   71[BANK0 ] int 
  5491 ;;  j               2   65[BANK0 ] int 
  5492 ;;  tmp             4   75[BANK0 ] float 
  5493 ;;  reading         4   67[BANK0 ] float 
  5494 ;; Return value:  Size  Location     Type
  5495 ;;                  1    wreg      void 
  5496 ;; Registers used:
  5497 ;;		wreg, fsr0l, fsr0h, status,2, status,0, btemp+1, pclath, cstack
  5498 ;; Tracked objects:
  5499 ;;		On entry : 0/0
  5500 ;;		On exit  : 0/0
  5501 ;;		Unchanged: 0/0
  5502 ;; Data sizes:     COMMON   BANK0   BANK1   BANK3   BANK2
  5503 ;;      Params:         0       0       0       0       0
  5504 ;;      Locals:         0      14       0       0       0
  5505 ;;      Temps:          0       3       0       0       0
  5506 ;;      Totals:         0      17       0       0       0
  5507 ;;Total ram usage:       17 bytes
  5508 ;; Hardware stack levels used:    1
  5509 ;; Hardware stack levels required when called:    1
  5510 ;; This function calls:
  5511 ;;		___fladd
  5512 ;;		___fldiv
  5513 ;;		___fltol
  5514 ;;		___xxtofl
  5515 ;;		i1_HeatingCoolingElement
  5516 ;; This function is called by:
  5517 ;;		_TempSensor
  5518 ;; This function uses a non-reentrant model
  5519 ;;
  5520                           
  5521                           
  5522                           ;psect for function _AverageTemp
  5523  0DB2                     _AverageTemp:
  5524  0DB2                     i1l2734:	
  5525                           ;incstack = 0
  5526 ;; hardware stack exceeded
  5527                           ; Regs used in _AverageTemp: [wreg-fsr0h+status,2+status,0+btemp+1+pclath+cstack]
  5528                           
  5529                           
  5530                           ;./Temperature.h: 86:    float reading = currentTemp;
  5531  0DB2  1683               	bsf	3,5	;RP0=1, select bank1
  5532  0DB3  1303               	bcf	3,6	;RP1=0, select bank1
  5533  0DB4  0857               	movf	_currentTemp^(0+128),w
  5534  0DB5  00F0               	movwf	___xxtofl@val
  5535  0DB6  0858               	movf	(_currentTemp+1)^(0+128),w
  5536  0DB7  00F1               	movwf	___xxtofl@val+1
  5537  0DB8  01F2               	clrf	___xxtofl@val+2
  5538  0DB9  01F3               	clrf	___xxtofl@val+3
  5539  0DBA  3000               	movlw	0
  5540  0DBB  120A  118A  2632  120A  158A  	fcall	___xxtofl
  5541  0DC0  0873               	movf	?___xxtofl+3,w
  5542  0DC1  1283               	bcf	3,5	;RP0=0, select bank0
  5543  0DC2  1303               	bcf	3,6	;RP1=0, select bank0
  5544  0DC3  00E6               	movwf	AverageTemp@reading+3
  5545  0DC4  0872               	movf	?___xxtofl+2,w
  5546  0DC5  00E5               	movwf	AverageTemp@reading+2
  5547  0DC6  0871               	movf	?___xxtofl+1,w
  5548  0DC7  00E4               	movwf	AverageTemp@reading+1
  5549  0DC8  0870               	movf	?___xxtofl,w
  5550  0DC9  00E3               	movwf	AverageTemp@reading
  5551  0DCA                     i1l2736:
  5552                           
  5553                           ;./Temperature.h: 87:    float tmp = 0;
  5554  0DCA  3000               	movlw	0
  5555  0DCB  00EE               	movwf	AverageTemp@tmp+3
  5556  0DCC  3000               	movlw	0
  5557  0DCD  00ED               	movwf	AverageTemp@tmp+2
  5558  0DCE  3000               	movlw	0
  5559  0DCF  00EC               	movwf	AverageTemp@tmp+1
  5560  0DD0  3000               	movlw	0
  5561  0DD1  00EB               	movwf	AverageTemp@tmp
  5562  0DD2                     i1l2738:
  5563                           
  5564                           ;./Temperature.h: 88:    if(i<10){
  5565  0DD2  1683               	bsf	3,5	;RP0=1, select bank1
  5566  0DD3  1303               	bcf	3,6	;RP1=0, select bank1
  5567  0DD4  0854               	movf	(_i+1)^(0+128),w
  5568  0DD5  3A80               	xorlw	128
  5569  0DD6  00FF               	movwf	btemp+1
  5570  0DD7  3080               	movlw	128
  5571  0DD8  027F               	subwf	btemp+1,w
  5572  0DD9  1D03               	skipz
  5573  0DDA  2DDD               	goto	u348_25
  5574  0DDB  300A               	movlw	10
  5575  0DDC  0253               	subwf	_i^(0+128),w
  5576  0DDD                     u348_25:
  5577  0DDD  1803               	skipnc
  5578  0DDE  2DE0               	goto	u348_21
  5579  0DDF  2DE1               	goto	u348_20
  5580  0DE0                     u348_21:
  5581  0DE0  2EA5               	goto	i1l2754
  5582  0DE1                     u348_20:
  5583  0DE1                     i1l2740:
  5584                           
  5585                           ;./Temperature.h: 89:         Readings[i] = reading;
  5586  0DE1  1683               	bsf	3,5	;RP0=1, select bank1
  5587  0DE2  1303               	bcf	3,6	;RP1=0, select bank1
  5588  0DE3  0853               	movf	_i^(0+128),w
  5589  0DE4  1283               	bcf	3,5	;RP0=0, select bank0
  5590  0DE5  1303               	bcf	3,6	;RP1=0, select bank0
  5591  0DE6  00DE               	movwf	??_AverageTemp
  5592  0DE7  3001               	movlw	1
  5593  0DE8                     u349_25:
  5594  0DE8  1003               	clrc
  5595  0DE9  0DDE               	rlf	??_AverageTemp,f
  5596  0DEA  3EFF               	addlw	-1
  5597  0DEB  1D03               	skipz
  5598  0DEC  2DE8               	goto	u349_25
  5599  0DED  1003               	clrc
  5600  0DEE  0D5E               	rlf	??_AverageTemp,w
  5601  0DEF  3E90               	addlw	(low (_Readings| (0+256)))& (0+255)
  5602  0DF0  0084               	movwf	4
  5603  0DF1  0863               	movf	AverageTemp@reading,w
  5604  0DF2  1783               	bsf	3,7	;select IRP bank3
  5605  0DF3  0080               	movwf	0
  5606  0DF4  0A84               	incf	4,f
  5607  0DF5  0864               	movf	AverageTemp@reading+1,w
  5608  0DF6  0080               	movwf	0
  5609  0DF7  0A84               	incf	4,f
  5610  0DF8  0865               	movf	AverageTemp@reading+2,w
  5611  0DF9  0080               	movwf	0
  5612  0DFA  0A84               	incf	4,f
  5613  0DFB  0866               	movf	AverageTemp@reading+3,w
  5614  0DFC  0080               	movwf	0
  5615  0DFD                     i1l2742:
  5616                           
  5617                           ;./Temperature.h: 90:         i++;
  5618  0DFD  3001               	movlw	1
  5619  0DFE  1683               	bsf	3,5	;RP0=1, select bank1
  5620  0DFF  1303               	bcf	3,6	;RP1=0, select bank1
  5621  0E00  07D3               	addwf	_i^(0+128),f
  5622  0E01  1803               	skipnc
  5623  0E02  0AD4               	incf	(_i+1)^(0+128),f
  5624  0E03  3000               	movlw	0
  5625  0E04  07D4               	addwf	(_i+1)^(0+128),f
  5626  0E05                     i1l2744:
  5627                           
  5628                           ;./Temperature.h: 91:         for(int j = 0 ; j < (i+1) ; j++)
  5629  0E05  1283               	bcf	3,5	;RP0=0, select bank0
  5630  0E06  1303               	bcf	3,6	;RP1=0, select bank0
  5631  0E07  01E1               	clrf	AverageTemp@j
  5632  0E08  01E2               	clrf	AverageTemp@j+1
  5633  0E09  2E41               	goto	i1l2750
  5634  0E0A                     i1l2746:
  5635                           
  5636                           ;./Temperature.h: 92:             tmp += Readings[j];
  5637  0E0A  1283               	bcf	3,5	;RP0=0, select bank0
  5638  0E0B  1303               	bcf	3,6	;RP1=0, select bank0
  5639  0E0C  0861               	movf	AverageTemp@j,w
  5640  0E0D  00DE               	movwf	??_AverageTemp
  5641  0E0E  3001               	movlw	1
  5642  0E0F                     u350_25:
  5643  0E0F  1003               	clrc
  5644  0E10  0DDE               	rlf	??_AverageTemp,f
  5645  0E11  3EFF               	addlw	-1
  5646  0E12  1D03               	skipz
  5647  0E13  2E0F               	goto	u350_25
  5648  0E14  1003               	clrc
  5649  0E15  0D5E               	rlf	??_AverageTemp,w
  5650  0E16  3E90               	addlw	(low (_Readings| (0+256)))& (0+255)
  5651  0E17  0084               	movwf	4
  5652  0E18  1783               	bsf	3,7	;select IRP bank3
  5653  0E19  0800               	movf	0,w
  5654  0E1A  00F0               	movwf	___fladd@b
  5655  0E1B  0A84               	incf	4,f
  5656  0E1C  0800               	movf	0,w
  5657  0E1D  00F1               	movwf	___fladd@b+1
  5658  0E1E  0A84               	incf	4,f
  5659  0E1F  0800               	movf	0,w
  5660  0E20  00F2               	movwf	___fladd@b+2
  5661  0E21  0A84               	incf	4,f
  5662  0E22  0800               	movf	0,w
  5663  0E23  00F3               	movwf	___fladd@b+3
  5664  0E24  086E               	movf	AverageTemp@tmp+3,w
  5665  0E25  00F7               	movwf	___fladd@a+3
  5666  0E26  086D               	movf	AverageTemp@tmp+2,w
  5667  0E27  00F6               	movwf	___fladd@a+2
  5668  0E28  086C               	movf	AverageTemp@tmp+1,w
  5669  0E29  00F5               	movwf	___fladd@a+1
  5670  0E2A  086B               	movf	AverageTemp@tmp,w
  5671  0E2B  00F4               	movwf	___fladd@a
  5672  0E2C  120A  118A  239E  120A  158A  	fcall	___fladd
  5673  0E31  0873               	movf	?___fladd+3,w
  5674  0E32  1283               	bcf	3,5	;RP0=0, select bank0
  5675  0E33  1303               	bcf	3,6	;RP1=0, select bank0
  5676  0E34  00EE               	movwf	AverageTemp@tmp+3
  5677  0E35  0872               	movf	?___fladd+2,w
  5678  0E36  00ED               	movwf	AverageTemp@tmp+2
  5679  0E37  0871               	movf	?___fladd+1,w
  5680  0E38  00EC               	movwf	AverageTemp@tmp+1
  5681  0E39  0870               	movf	?___fladd,w
  5682  0E3A  00EB               	movwf	AverageTemp@tmp
  5683  0E3B                     i1l2748:
  5684  0E3B  3001               	movlw	1
  5685  0E3C  07E1               	addwf	AverageTemp@j,f
  5686  0E3D  1803               	skipnc
  5687  0E3E  0AE2               	incf	AverageTemp@j+1,f
  5688  0E3F  3000               	movlw	0
  5689  0E40  07E2               	addwf	AverageTemp@j+1,f
  5690  0E41                     i1l2750:
  5691  0E41  1683               	bsf	3,5	;RP0=1, select bank1
  5692  0E42  1303               	bcf	3,6	;RP1=0, select bank1
  5693  0E43  0853               	movf	_i^(0+128),w
  5694  0E44  3E01               	addlw	1
  5695  0E45  1283               	bcf	3,5	;RP0=0, select bank0
  5696  0E46  1303               	bcf	3,6	;RP1=0, select bank0
  5697  0E47  00DE               	movwf	??_AverageTemp
  5698  0E48  1683               	bsf	3,5	;RP0=1, select bank1
  5699  0E49  1303               	bcf	3,6	;RP1=0, select bank1
  5700  0E4A  0854               	movf	(_i+1)^(0+128),w
  5701  0E4B  1803               	skipnc
  5702  0E4C  3E01               	addlw	1
  5703  0E4D  3E00               	addlw	0
  5704  0E4E  1283               	bcf	3,5	;RP0=0, select bank0
  5705  0E4F  1303               	bcf	3,6	;RP1=0, select bank0
  5706  0E50  00DF               	movwf	??_AverageTemp+1
  5707  0E51  0862               	movf	AverageTemp@j+1,w
  5708  0E52  3A80               	xorlw	128
  5709  0E53  00E0               	movwf	??_AverageTemp+2
  5710  0E54  085F               	movf	??_AverageTemp+1,w
  5711  0E55  3A80               	xorlw	128
  5712  0E56  0260               	subwf	??_AverageTemp+2,w
  5713  0E57  1D03               	skipz
  5714  0E58  2E5B               	goto	u351_25
  5715  0E59  085E               	movf	??_AverageTemp,w
  5716  0E5A  0261               	subwf	AverageTemp@j,w
  5717  0E5B                     u351_25:
  5718  0E5B  1C03               	skipc
  5719  0E5C  2E5E               	goto	u351_21
  5720  0E5D  2E5F               	goto	u351_20
  5721  0E5E                     u351_21:
  5722  0E5E  2E0A               	goto	i1l2746
  5723  0E5F                     u351_20:
  5724  0E5F                     i1l2752:
  5725                           
  5726                           ;./Temperature.h: 93:         averageTemp = (tmp/i);
  5727  0E5F  1283               	bcf	3,5	;RP0=0, select bank0
  5728  0E60  1303               	bcf	3,6	;RP1=0, select bank0
  5729  0E61  086E               	movf	AverageTemp@tmp+3,w
  5730  0E62  00C1               	movwf	___fldiv@b+3
  5731  0E63  086D               	movf	AverageTemp@tmp+2,w
  5732  0E64  00C0               	movwf	___fldiv@b+2
  5733  0E65  086C               	movf	AverageTemp@tmp+1,w
  5734  0E66  00BF               	movwf	___fldiv@b+1
  5735  0E67  086B               	movf	AverageTemp@tmp,w
  5736  0E68  00BE               	movwf	___fldiv@b
  5737  0E69  1683               	bsf	3,5	;RP0=1, select bank1
  5738  0E6A  1303               	bcf	3,6	;RP1=0, select bank1
  5739  0E6B  0853               	movf	_i^(0+128),w
  5740  0E6C  00F0               	movwf	___xxtofl@val
  5741  0E6D  0854               	movf	(_i+1)^(0+128),w
  5742  0E6E  00F1               	movwf	___xxtofl@val+1
  5743  0E6F  3000               	movlw	0
  5744  0E70  1BF1               	btfsc	___xxtofl@val+1,7
  5745  0E71  30FF               	movlw	255
  5746  0E72  00F2               	movwf	___xxtofl@val+2
  5747  0E73  00F3               	movwf	___xxtofl@val+3
  5748  0E74  3001               	movlw	1
  5749  0E75  120A  118A  2632  120A  158A  	fcall	___xxtofl
  5750  0E7A  0873               	movf	?___xxtofl+3,w
  5751  0E7B  1283               	bcf	3,5	;RP0=0, select bank0
  5752  0E7C  1303               	bcf	3,6	;RP1=0, select bank0
  5753  0E7D  00BD               	movwf	___fldiv@a+3
  5754  0E7E  0872               	movf	?___xxtofl+2,w
  5755  0E7F  00BC               	movwf	___fldiv@a+2
  5756  0E80  0871               	movf	?___xxtofl+1,w
  5757  0E81  00BB               	movwf	___fldiv@a+1
  5758  0E82  0870               	movf	?___xxtofl,w
  5759  0E83  00BA               	movwf	___fldiv@a
  5760  0E84  120A  158A  23D5  120A  158A  	fcall	___fldiv
  5761  0E89  1283               	bcf	3,5	;RP0=0, select bank0
  5762  0E8A  1303               	bcf	3,6	;RP1=0, select bank0
  5763  0E8B  083D               	movf	?___fldiv+3,w
  5764  0E8C  00D7               	movwf	___fltol@f1+3
  5765  0E8D  083C               	movf	?___fldiv+2,w
  5766  0E8E  00D6               	movwf	___fltol@f1+2
  5767  0E8F  083B               	movf	?___fldiv+1,w
  5768  0E90  00D5               	movwf	___fltol@f1+1
  5769  0E91  083A               	movf	?___fldiv,w
  5770  0E92  00D4               	movwf	___fltol@f1
  5771  0E93  120A  158A  2359  120A  158A  	fcall	___fltol
  5772  0E98  1283               	bcf	3,5	;RP0=0, select bank0
  5773  0E99  1303               	bcf	3,6	;RP1=0, select bank0
  5774  0E9A  0855               	movf	?___fltol+1,w
  5775  0E9B  1683               	bsf	3,5	;RP0=1, select bank1
  5776  0E9C  1303               	bcf	3,6	;RP1=0, select bank1
  5777  0E9D  00D6               	movwf	(_averageTemp+1)^(0+128)
  5778  0E9E  1283               	bcf	3,5	;RP0=0, select bank0
  5779  0E9F  1303               	bcf	3,6	;RP1=0, select bank0
  5780  0EA0  0854               	movf	?___fltol,w
  5781  0EA1  1683               	bsf	3,5	;RP0=1, select bank1
  5782  0EA2  1303               	bcf	3,6	;RP1=0, select bank1
  5783  0EA3  00D5               	movwf	_averageTemp^(0+128)
  5784                           
  5785                           ;./Temperature.h: 94:     }
  5786  0EA4  2FFA               	goto	i1l2792
  5787  0EA5                     i1l2754:
  5788  0EA5  1683               	bsf	3,5	;RP0=1, select bank1
  5789  0EA6  1303               	bcf	3,6	;RP1=0, select bank1
  5790  0EA7  0852               	movf	(_x+1)^(0+128),w
  5791  0EA8  3A80               	xorlw	128
  5792  0EA9  00FF               	movwf	btemp+1
  5793  0EAA  3080               	movlw	128
  5794  0EAB  027F               	subwf	btemp+1,w
  5795  0EAC  1D03               	skipz
  5796  0EAD  2EB0               	goto	u352_25
  5797  0EAE  300A               	movlw	10
  5798  0EAF  0251               	subwf	_x^(0+128),w
  5799  0EB0                     u352_25:
  5800  0EB0  1803               	skipnc
  5801  0EB1  2EB3               	goto	u352_21
  5802  0EB2  2EB4               	goto	u352_20
  5803  0EB3                     u352_21:
  5804  0EB3  2F53               	goto	i1l2774
  5805  0EB4                     u352_20:
  5806  0EB4                     i1l2756:
  5807                           
  5808                           ;./Temperature.h: 96:         Readings[x] = reading;
  5809  0EB4  1683               	bsf	3,5	;RP0=1, select bank1
  5810  0EB5  1303               	bcf	3,6	;RP1=0, select bank1
  5811  0EB6  0851               	movf	_x^(0+128),w
  5812  0EB7  1283               	bcf	3,5	;RP0=0, select bank0
  5813  0EB8  1303               	bcf	3,6	;RP1=0, select bank0
  5814  0EB9  00DE               	movwf	??_AverageTemp
  5815  0EBA  3001               	movlw	1
  5816  0EBB                     u353_25:
  5817  0EBB  1003               	clrc
  5818  0EBC  0DDE               	rlf	??_AverageTemp,f
  5819  0EBD  3EFF               	addlw	-1
  5820  0EBE  1D03               	skipz
  5821  0EBF  2EBB               	goto	u353_25
  5822  0EC0  1003               	clrc
  5823  0EC1  0D5E               	rlf	??_AverageTemp,w
  5824  0EC2  3E90               	addlw	(low (_Readings| (0+256)))& (0+255)
  5825  0EC3  0084               	movwf	4
  5826  0EC4  0863               	movf	AverageTemp@reading,w
  5827  0EC5  1783               	bsf	3,7	;select IRP bank3
  5828  0EC6  0080               	movwf	0
  5829  0EC7  0A84               	incf	4,f
  5830  0EC8  0864               	movf	AverageTemp@reading+1,w
  5831  0EC9  0080               	movwf	0
  5832  0ECA  0A84               	incf	4,f
  5833  0ECB  0865               	movf	AverageTemp@reading+2,w
  5834  0ECC  0080               	movwf	0
  5835  0ECD  0A84               	incf	4,f
  5836  0ECE  0866               	movf	AverageTemp@reading+3,w
  5837  0ECF  0080               	movwf	0
  5838  0ED0                     i1l2758:
  5839                           
  5840                           ;./Temperature.h: 97:         x++;
  5841  0ED0  3001               	movlw	1
  5842  0ED1  1683               	bsf	3,5	;RP0=1, select bank1
  5843  0ED2  1303               	bcf	3,6	;RP1=0, select bank1
  5844  0ED3  07D1               	addwf	_x^(0+128),f
  5845  0ED4  1803               	skipnc
  5846  0ED5  0AD2               	incf	(_x+1)^(0+128),f
  5847  0ED6  3000               	movlw	0
  5848  0ED7  07D2               	addwf	(_x+1)^(0+128),f
  5849  0ED8                     i1l2760:
  5850                           
  5851                           ;./Temperature.h: 98:         for(int j = 0 ; j < 10 ; j++)
  5852  0ED8  1283               	bcf	3,5	;RP0=0, select bank0
  5853  0ED9  1303               	bcf	3,6	;RP1=0, select bank0
  5854  0EDA  01E7               	clrf	AverageTemp@j_293
  5855  0EDB  01E8               	clrf	AverageTemp@j_293+1
  5856  0EDC                     i1l2766:
  5857                           
  5858                           ;./Temperature.h: 99:             tmp += Readings[j];
  5859  0EDC  1283               	bcf	3,5	;RP0=0, select bank0
  5860  0EDD  1303               	bcf	3,6	;RP1=0, select bank0
  5861  0EDE  0867               	movf	AverageTemp@j_293,w
  5862  0EDF  00DE               	movwf	??_AverageTemp
  5863  0EE0  3001               	movlw	1
  5864  0EE1                     u354_25:
  5865  0EE1  1003               	clrc
  5866  0EE2  0DDE               	rlf	??_AverageTemp,f
  5867  0EE3  3EFF               	addlw	-1
  5868  0EE4  1D03               	skipz
  5869  0EE5  2EE1               	goto	u354_25
  5870  0EE6  1003               	clrc
  5871  0EE7  0D5E               	rlf	??_AverageTemp,w
  5872  0EE8  3E90               	addlw	(low (_Readings| (0+256)))& (0+255)
  5873  0EE9  0084               	movwf	4
  5874  0EEA  1783               	bsf	3,7	;select IRP bank3
  5875  0EEB  0800               	movf	0,w
  5876  0EEC  00F0               	movwf	___fladd@b
  5877  0EED  0A84               	incf	4,f
  5878  0EEE  0800               	movf	0,w
  5879  0EEF  00F1               	movwf	___fladd@b+1
  5880  0EF0  0A84               	incf	4,f
  5881  0EF1  0800               	movf	0,w
  5882  0EF2  00F2               	movwf	___fladd@b+2
  5883  0EF3  0A84               	incf	4,f
  5884  0EF4  0800               	movf	0,w
  5885  0EF5  00F3               	movwf	___fladd@b+3
  5886  0EF6  086E               	movf	AverageTemp@tmp+3,w
  5887  0EF7  00F7               	movwf	___fladd@a+3
  5888  0EF8  086D               	movf	AverageTemp@tmp+2,w
  5889  0EF9  00F6               	movwf	___fladd@a+2
  5890  0EFA  086C               	movf	AverageTemp@tmp+1,w
  5891  0EFB  00F5               	movwf	___fladd@a+1
  5892  0EFC  086B               	movf	AverageTemp@tmp,w
  5893  0EFD  00F4               	movwf	___fladd@a
  5894  0EFE  120A  118A  239E  120A  158A  	fcall	___fladd
  5895  0F03  0873               	movf	?___fladd+3,w
  5896  0F04  1283               	bcf	3,5	;RP0=0, select bank0
  5897  0F05  1303               	bcf	3,6	;RP1=0, select bank0
  5898  0F06  00EE               	movwf	AverageTemp@tmp+3
  5899  0F07  0872               	movf	?___fladd+2,w
  5900  0F08  00ED               	movwf	AverageTemp@tmp+2
  5901  0F09  0871               	movf	?___fladd+1,w
  5902  0F0A  00EC               	movwf	AverageTemp@tmp+1
  5903  0F0B  0870               	movf	?___fladd,w
  5904  0F0C  00EB               	movwf	AverageTemp@tmp
  5905  0F0D                     i1l2768:
  5906  0F0D  3001               	movlw	1
  5907  0F0E  07E7               	addwf	AverageTemp@j_293,f
  5908  0F0F  1803               	skipnc
  5909  0F10  0AE8               	incf	AverageTemp@j_293+1,f
  5910  0F11  3000               	movlw	0
  5911  0F12  07E8               	addwf	AverageTemp@j_293+1,f
  5912  0F13                     i1l2770:
  5913  0F13  0868               	movf	AverageTemp@j_293+1,w
  5914  0F14  3A80               	xorlw	128
  5915  0F15  00FF               	movwf	btemp+1
  5916  0F16  3080               	movlw	128
  5917  0F17  027F               	subwf	btemp+1,w
  5918  0F18  1D03               	skipz
  5919  0F19  2F1C               	goto	u355_25
  5920  0F1A  300A               	movlw	10
  5921  0F1B  0267               	subwf	AverageTemp@j_293,w
  5922  0F1C                     u355_25:
  5923  0F1C  1C03               	skipc
  5924  0F1D  2F1F               	goto	u355_21
  5925  0F1E  2F20               	goto	u355_20
  5926  0F1F                     u355_21:
  5927  0F1F  2EDC               	goto	i1l2766
  5928  0F20                     u355_20:
  5929  0F20                     i1l2772:
  5930                           
  5931                           ;./Temperature.h: 100:         averageTemp = (tmp/10);
  5932  0F20  1283               	bcf	3,5	;RP0=0, select bank0
  5933  0F21  1303               	bcf	3,6	;RP1=0, select bank0
  5934  0F22  086E               	movf	AverageTemp@tmp+3,w
  5935  0F23  00C1               	movwf	___fldiv@b+3
  5936  0F24  086D               	movf	AverageTemp@tmp+2,w
  5937  0F25  00C0               	movwf	___fldiv@b+2
  5938  0F26  086C               	movf	AverageTemp@tmp+1,w
  5939  0F27  00BF               	movwf	___fldiv@b+1
  5940  0F28  086B               	movf	AverageTemp@tmp,w
  5941  0F29  00BE               	movwf	___fldiv@b
  5942  0F2A  3041               	movlw	65
  5943  0F2B  00BD               	movwf	___fldiv@a+3
  5944  0F2C  3020               	movlw	32
  5945  0F2D  00BC               	movwf	___fldiv@a+2
  5946  0F2E  3000               	movlw	0
  5947  0F2F  00BB               	movwf	___fldiv@a+1
  5948  0F30  3000               	movlw	0
  5949  0F31  00BA               	movwf	___fldiv@a
  5950  0F32  120A  158A  23D5  120A  158A  	fcall	___fldiv
  5951  0F37  1283               	bcf	3,5	;RP0=0, select bank0
  5952  0F38  1303               	bcf	3,6	;RP1=0, select bank0
  5953  0F39  083D               	movf	?___fldiv+3,w
  5954  0F3A  00D7               	movwf	___fltol@f1+3
  5955  0F3B  083C               	movf	?___fldiv+2,w
  5956  0F3C  00D6               	movwf	___fltol@f1+2
  5957  0F3D  083B               	movf	?___fldiv+1,w
  5958  0F3E  00D5               	movwf	___fltol@f1+1
  5959  0F3F  083A               	movf	?___fldiv,w
  5960  0F40  00D4               	movwf	___fltol@f1
  5961  0F41  120A  158A  2359  120A  158A  	fcall	___fltol
  5962  0F46  1283               	bcf	3,5	;RP0=0, select bank0
  5963  0F47  1303               	bcf	3,6	;RP1=0, select bank0
  5964  0F48  0855               	movf	?___fltol+1,w
  5965  0F49  1683               	bsf	3,5	;RP0=1, select bank1
  5966  0F4A  1303               	bcf	3,6	;RP1=0, select bank1
  5967  0F4B  00D6               	movwf	(_averageTemp+1)^(0+128)
  5968  0F4C  1283               	bcf	3,5	;RP0=0, select bank0
  5969  0F4D  1303               	bcf	3,6	;RP1=0, select bank0
  5970  0F4E  0854               	movf	?___fltol,w
  5971  0F4F  1683               	bsf	3,5	;RP0=1, select bank1
  5972  0F50  1303               	bcf	3,6	;RP1=0, select bank1
  5973  0F51  00D5               	movwf	_averageTemp^(0+128)
  5974                           
  5975                           ;./Temperature.h: 101:     }
  5976  0F52  2FFA               	goto	i1l2792
  5977  0F53                     i1l2774:
  5978  0F53  1683               	bsf	3,5	;RP0=1, select bank1
  5979  0F54  1303               	bcf	3,6	;RP1=0, select bank1
  5980  0F55  0852               	movf	(_x+1)^(0+128),w
  5981  0F56  3A80               	xorlw	128
  5982  0F57  00FF               	movwf	btemp+1
  5983  0F58  3080               	movlw	128
  5984  0F59  027F               	subwf	btemp+1,w
  5985  0F5A  1D03               	skipz
  5986  0F5B  2F5E               	goto	u356_25
  5987  0F5C  300A               	movlw	10
  5988  0F5D  0251               	subwf	_x^(0+128),w
  5989  0F5E                     u356_25:
  5990  0F5E  1C03               	skipc
  5991  0F5F  2F61               	goto	u356_21
  5992  0F60  2F62               	goto	u356_20
  5993  0F61                     u356_21:
  5994  0F61  2FFA               	goto	i1l2792
  5995  0F62                     u356_20:
  5996  0F62                     i1l2776:
  5997                           
  5998                           ;./Temperature.h: 103:         Readings[0] = reading;
  5999  0F62  1283               	bcf	3,5	;RP0=0, select bank0
  6000  0F63  1303               	bcf	3,6	;RP1=0, select bank0
  6001  0F64  0866               	movf	AverageTemp@reading+3,w
  6002  0F65  1683               	bsf	3,5	;RP0=1, select bank3
  6003  0F66  1703               	bsf	3,6	;RP1=1, select bank3
  6004  0F67  0093               	movwf	(_Readings+3)^(0+384)
  6005  0F68  1283               	bcf	3,5	;RP0=0, select bank0
  6006  0F69  1303               	bcf	3,6	;RP1=0, select bank0
  6007  0F6A  0865               	movf	AverageTemp@reading+2,w
  6008  0F6B  1683               	bsf	3,5	;RP0=1, select bank3
  6009  0F6C  1703               	bsf	3,6	;RP1=1, select bank3
  6010  0F6D  0092               	movwf	(_Readings+2)^(0+384)
  6011  0F6E  1283               	bcf	3,5	;RP0=0, select bank0
  6012  0F6F  1303               	bcf	3,6	;RP1=0, select bank0
  6013  0F70  0864               	movf	AverageTemp@reading+1,w
  6014  0F71  1683               	bsf	3,5	;RP0=1, select bank3
  6015  0F72  1703               	bsf	3,6	;RP1=1, select bank3
  6016  0F73  0091               	movwf	(_Readings+1)^(0+384)
  6017  0F74  1283               	bcf	3,5	;RP0=0, select bank0
  6018  0F75  1303               	bcf	3,6	;RP1=0, select bank0
  6019  0F76  0863               	movf	AverageTemp@reading,w
  6020  0F77  1683               	bsf	3,5	;RP0=1, select bank3
  6021  0F78  1703               	bsf	3,6	;RP1=1, select bank3
  6022  0F79  0090               	movwf	_Readings^(0+384)
  6023                           
  6024                           ;./Temperature.h: 104:         x = 1;
  6025  0F7A  3001               	movlw	1
  6026  0F7B  1683               	bsf	3,5	;RP0=1, select bank1
  6027  0F7C  1303               	bcf	3,6	;RP1=0, select bank1
  6028  0F7D  00D1               	movwf	_x^(0+128)
  6029  0F7E  3000               	movlw	0
  6030  0F7F  00D2               	movwf	(_x^(0+128)+1)
  6031  0F80                     i1l2778:
  6032                           
  6033                           ;./Temperature.h: 105:         for(int j = 0 ; j < 10 ; j++)
  6034  0F80  1283               	bcf	3,5	;RP0=0, select bank0
  6035  0F81  1303               	bcf	3,6	;RP1=0, select bank0
  6036  0F82  01E9               	clrf	AverageTemp@j_294
  6037  0F83  01EA               	clrf	AverageTemp@j_294+1
  6038  0F84                     i1l2784:
  6039                           
  6040                           ;./Temperature.h: 106:             tmp += Readings[j];
  6041  0F84  1283               	bcf	3,5	;RP0=0, select bank0
  6042  0F85  1303               	bcf	3,6	;RP1=0, select bank0
  6043  0F86  0869               	movf	AverageTemp@j_294,w
  6044  0F87  00DE               	movwf	??_AverageTemp
  6045  0F88  3001               	movlw	1
  6046  0F89                     u357_25:
  6047  0F89  1003               	clrc
  6048  0F8A  0DDE               	rlf	??_AverageTemp,f
  6049  0F8B  3EFF               	addlw	-1
  6050  0F8C  1D03               	skipz
  6051  0F8D  2F89               	goto	u357_25
  6052  0F8E  1003               	clrc
  6053  0F8F  0D5E               	rlf	??_AverageTemp,w
  6054  0F90  3E90               	addlw	(low (_Readings| (0+256)))& (0+255)
  6055  0F91  0084               	movwf	4
  6056  0F92  1783               	bsf	3,7	;select IRP bank3
  6057  0F93  0800               	movf	0,w
  6058  0F94  00F0               	movwf	___fladd@b
  6059  0F95  0A84               	incf	4,f
  6060  0F96  0800               	movf	0,w
  6061  0F97  00F1               	movwf	___fladd@b+1
  6062  0F98  0A84               	incf	4,f
  6063  0F99  0800               	movf	0,w
  6064  0F9A  00F2               	movwf	___fladd@b+2
  6065  0F9B  0A84               	incf	4,f
  6066  0F9C  0800               	movf	0,w
  6067  0F9D  00F3               	movwf	___fladd@b+3
  6068  0F9E  086E               	movf	AverageTemp@tmp+3,w
  6069  0F9F  00F7               	movwf	___fladd@a+3
  6070  0FA0  086D               	movf	AverageTemp@tmp+2,w
  6071  0FA1  00F6               	movwf	___fladd@a+2
  6072  0FA2  086C               	movf	AverageTemp@tmp+1,w
  6073  0FA3  00F5               	movwf	___fladd@a+1
  6074  0FA4  086B               	movf	AverageTemp@tmp,w
  6075  0FA5  00F4               	movwf	___fladd@a
  6076  0FA6  120A  118A  239E  120A  158A  	fcall	___fladd
  6077  0FAB  0873               	movf	?___fladd+3,w
  6078  0FAC  1283               	bcf	3,5	;RP0=0, select bank0
  6079  0FAD  1303               	bcf	3,6	;RP1=0, select bank0
  6080  0FAE  00EE               	movwf	AverageTemp@tmp+3
  6081  0FAF  0872               	movf	?___fladd+2,w
  6082  0FB0  00ED               	movwf	AverageTemp@tmp+2
  6083  0FB1  0871               	movf	?___fladd+1,w
  6084  0FB2  00EC               	movwf	AverageTemp@tmp+1
  6085  0FB3  0870               	movf	?___fladd,w
  6086  0FB4  00EB               	movwf	AverageTemp@tmp
  6087  0FB5                     i1l2786:
  6088  0FB5  3001               	movlw	1
  6089  0FB6  07E9               	addwf	AverageTemp@j_294,f
  6090  0FB7  1803               	skipnc
  6091  0FB8  0AEA               	incf	AverageTemp@j_294+1,f
  6092  0FB9  3000               	movlw	0
  6093  0FBA  07EA               	addwf	AverageTemp@j_294+1,f
  6094  0FBB                     i1l2788:
  6095  0FBB  086A               	movf	AverageTemp@j_294+1,w
  6096  0FBC  3A80               	xorlw	128
  6097  0FBD  00FF               	movwf	btemp+1
  6098  0FBE  3080               	movlw	128
  6099  0FBF  027F               	subwf	btemp+1,w
  6100  0FC0  1D03               	skipz
  6101  0FC1  2FC4               	goto	u358_25
  6102  0FC2  300A               	movlw	10
  6103  0FC3  0269               	subwf	AverageTemp@j_294,w
  6104  0FC4                     u358_25:
  6105  0FC4  1C03               	skipc
  6106  0FC5  2FC7               	goto	u358_21
  6107  0FC6  2FC8               	goto	u358_20
  6108  0FC7                     u358_21:
  6109  0FC7  2F84               	goto	i1l2784
  6110  0FC8                     u358_20:
  6111  0FC8                     i1l2790:
  6112                           
  6113                           ;./Temperature.h: 107:         averageTemp = (tmp/10);
  6114  0FC8  1283               	bcf	3,5	;RP0=0, select bank0
  6115  0FC9  1303               	bcf	3,6	;RP1=0, select bank0
  6116  0FCA  086E               	movf	AverageTemp@tmp+3,w
  6117  0FCB  00C1               	movwf	___fldiv@b+3
  6118  0FCC  086D               	movf	AverageTemp@tmp+2,w
  6119  0FCD  00C0               	movwf	___fldiv@b+2
  6120  0FCE  086C               	movf	AverageTemp@tmp+1,w
  6121  0FCF  00BF               	movwf	___fldiv@b+1
  6122  0FD0  086B               	movf	AverageTemp@tmp,w
  6123  0FD1  00BE               	movwf	___fldiv@b
  6124  0FD2  3041               	movlw	65
  6125  0FD3  00BD               	movwf	___fldiv@a+3
  6126  0FD4  3020               	movlw	32
  6127  0FD5  00BC               	movwf	___fldiv@a+2
  6128  0FD6  3000               	movlw	0
  6129  0FD7  00BB               	movwf	___fldiv@a+1
  6130  0FD8  3000               	movlw	0
  6131  0FD9  00BA               	movwf	___fldiv@a
  6132  0FDA  120A  158A  23D5  120A  158A  	fcall	___fldiv
  6133  0FDF  1283               	bcf	3,5	;RP0=0, select bank0
  6134  0FE0  1303               	bcf	3,6	;RP1=0, select bank0
  6135  0FE1  083D               	movf	?___fldiv+3,w
  6136  0FE2  00D7               	movwf	___fltol@f1+3
  6137  0FE3  083C               	movf	?___fldiv+2,w
  6138  0FE4  00D6               	movwf	___fltol@f1+2
  6139  0FE5  083B               	movf	?___fldiv+1,w
  6140  0FE6  00D5               	movwf	___fltol@f1+1
  6141  0FE7  083A               	movf	?___fldiv,w
  6142  0FE8  00D4               	movwf	___fltol@f1
  6143  0FE9  120A  158A  2359  120A  158A  	fcall	___fltol
  6144  0FEE  1283               	bcf	3,5	;RP0=0, select bank0
  6145  0FEF  1303               	bcf	3,6	;RP1=0, select bank0
  6146  0FF0  0855               	movf	?___fltol+1,w
  6147  0FF1  1683               	bsf	3,5	;RP0=1, select bank1
  6148  0FF2  1303               	bcf	3,6	;RP1=0, select bank1
  6149  0FF3  00D6               	movwf	(_averageTemp+1)^(0+128)
  6150  0FF4  1283               	bcf	3,5	;RP0=0, select bank0
  6151  0FF5  1303               	bcf	3,6	;RP1=0, select bank0
  6152  0FF6  0854               	movf	?___fltol,w
  6153  0FF7  1683               	bsf	3,5	;RP0=1, select bank1
  6154  0FF8  1303               	bcf	3,6	;RP1=0, select bank1
  6155  0FF9  00D5               	movwf	_averageTemp^(0+128)
  6156  0FFA                     i1l2792:
  6157                           
  6158                           ;./Temperature.h: 109:    HeatingCoolingElement();
  6159  0FFA  120A  158A  2004  120A  158A  	fcall	i1_HeatingCoolingElement
  6160  0FFF                     i1l258:
  6161  0FFF  0008               	return
  6162  1000                     __end_of_AverageTemp:
  6163                           
  6164                           	psect	text34
  6165  0804                     __ptext34:	
  6166 ;; *************** function i1_HeatingCoolingElement *****************
  6167 ;; Defined at:
  6168 ;;		line 135 in file "./Temperature.h"
  6169 ;; Parameters:    Size  Location     Type
  6170 ;;		None
  6171 ;; Auto vars:     Size  Location     Type
  6172 ;;		None
  6173 ;; Return value:  Size  Location     Type
  6174 ;;                  1    wreg      void 
  6175 ;; Registers used:
  6176 ;;		wreg, status,2, status,0
  6177 ;; Tracked objects:
  6178 ;;		On entry : 0/0
  6179 ;;		On exit  : 0/0
  6180 ;;		Unchanged: 0/0
  6181 ;; Data sizes:     COMMON   BANK0   BANK1   BANK3   BANK2
  6182 ;;      Params:         0       0       0       0       0
  6183 ;;      Locals:         0       0       0       0       0
  6184 ;;      Temps:          2       0       0       0       0
  6185 ;;      Totals:         2       0       0       0       0
  6186 ;;Total ram usage:        2 bytes
  6187 ;; Hardware stack levels used:    1
  6188 ;; This function calls:
  6189 ;;		Nothing
  6190 ;; This function is called by:
  6191 ;;		_AverageTemp
  6192 ;; This function uses a non-reentrant model
  6193 ;;
  6194                           
  6195                           
  6196                           ;psect for function i1_HeatingCoolingElement
  6197  0804                     i1_HeatingCoolingElement:
  6198  0804                     i1l2608:	
  6199                           ;incstack = 0
  6200 ;; hardware stack exceeded
  6201                           ; Regs used in i1_HeatingCoolingElement: [wreg+status,2+status,0]
  6202                           
  6203                           
  6204                           ;./Temperature.h: 137:     if ((Temp - averageTemp) >= 5){
  6205  0804  1683               	bsf	3,5	;RP0=1, select bank1
  6206  0805  1303               	bcf	3,6	;RP1=0, select bank1
  6207  0806  0855               	movf	_averageTemp^(0+128),w
  6208  0807  0267               	subwf	_Temp^(0+128),w
  6209  0808  00F0               	movwf	??i1_HeatingCoolingElement
  6210  0809  0856               	movf	(_averageTemp+1)^(0+128),w
  6211  080A  1C03               	skipc
  6212  080B  0A56               	incf	(_averageTemp+1)^(0+128),w
  6213  080C  0268               	subwf	(_Temp+1)^(0+128),w
  6214  080D  00F1               	movwf	??i1_HeatingCoolingElement+1
  6215  080E  3000               	movlw	0
  6216  080F  0271               	subwf	??i1_HeatingCoolingElement+1,w
  6217  0810  3005               	movlw	5
  6218  0811  1903               	skipnz
  6219  0812  0270               	subwf	??i1_HeatingCoolingElement,w
  6220  0813  1C03               	skipc
  6221  0814  2816               	goto	u337_21
  6222  0815  2817               	goto	u337_20
  6223  0816                     u337_21:
  6224  0816  281D               	goto	i1l2612
  6225  0817                     u337_20:
  6226  0817                     i1l2610:
  6227                           
  6228                           ;./Temperature.h: 138:         PORTCbits.RC5 = 1;
  6229  0817  1283               	bcf	3,5	;RP0=0, select bank0
  6230  0818  1303               	bcf	3,6	;RP1=0, select bank0
  6231  0819  1687               	bsf	7,5	;volatile
  6232                           
  6233                           ;./Temperature.h: 139:         PORTCbits.RC2 = 0;
  6234  081A  1107               	bcf	7,2	;volatile
  6235                           
  6236                           ;./Temperature.h: 140:         TMR2ON =1;
  6237  081B  1512               	bsf	18,2	;volatile
  6238                           
  6239                           ;./Temperature.h: 141:     }
  6240  081C  285D               	goto	i1l2620
  6241  081D                     i1l2612:
  6242  081D  0867               	movf	_Temp^(0+128),w
  6243  081E  0255               	subwf	_averageTemp^(0+128),w
  6244  081F  00F0               	movwf	??i1_HeatingCoolingElement
  6245  0820  0868               	movf	(_Temp+1)^(0+128),w
  6246  0821  1C03               	skipc
  6247  0822  0A68               	incf	(_Temp+1)^(0+128),w
  6248  0823  0256               	subwf	(_averageTemp+1)^(0+128),w
  6249  0824  00F1               	movwf	??i1_HeatingCoolingElement+1
  6250  0825  3000               	movlw	0
  6251  0826  0271               	subwf	??i1_HeatingCoolingElement+1,w
  6252  0827  3005               	movlw	5
  6253  0828  1903               	skipnz
  6254  0829  0270               	subwf	??i1_HeatingCoolingElement,w
  6255  082A  1C03               	skipc
  6256  082B  282D               	goto	u338_21
  6257  082C  282E               	goto	u338_20
  6258  082D                     u338_21:
  6259  082D  2835               	goto	i1l2616
  6260  082E                     u338_20:
  6261  082E                     i1l2614:
  6262                           
  6263                           ;./Temperature.h: 143:         PORTCbits.RC5 = 0,
  6264  082E  1283               	bcf	3,5	;RP0=0, select bank0
  6265  082F  1303               	bcf	3,6	;RP1=0, select bank0
  6266  0830  1287               	bcf	7,5	;volatile
  6267  0831  1507               	bsf	7,2	;volatile
  6268                           
  6269                           ;./Temperature.h: 145:         TMR2ON =0;
  6270  0832  1112               	bcf	18,2	;volatile
  6271                           
  6272                           ;./Temperature.h: 146:         PORTBbits.RB1 = 1;
  6273  0833  1486               	bsf	6,1	;volatile
  6274                           
  6275                           ;./Temperature.h: 147:     }
  6276  0834  285D               	goto	i1l2620
  6277  0835                     i1l2616:
  6278  0835  0867               	movf	_Temp^(0+128),w
  6279  0836  0255               	subwf	_averageTemp^(0+128),w
  6280  0837  00F0               	movwf	??i1_HeatingCoolingElement
  6281  0838  0868               	movf	(_Temp+1)^(0+128),w
  6282  0839  1C03               	skipc
  6283  083A  0A68               	incf	(_Temp+1)^(0+128),w
  6284  083B  0256               	subwf	(_averageTemp+1)^(0+128),w
  6285  083C  00F1               	movwf	??i1_HeatingCoolingElement+1
  6286  083D  3000               	movlw	0
  6287  083E  0271               	subwf	??i1_HeatingCoolingElement+1,w
  6288  083F  3006               	movlw	6
  6289  0840  1903               	skipnz
  6290  0841  0270               	subwf	??i1_HeatingCoolingElement,w
  6291  0842  1C03               	skipc
  6292  0843  2845               	goto	u339_21
  6293  0844  2846               	goto	u339_20
  6294  0845                     u339_21:
  6295  0845  2857               	goto	i1l279
  6296  0846                     u339_20:
  6297  0846                     i1l2618:
  6298  0846  0855               	movf	_averageTemp^(0+128),w
  6299  0847  0267               	subwf	_Temp^(0+128),w
  6300  0848  00F0               	movwf	??i1_HeatingCoolingElement
  6301  0849  0856               	movf	(_averageTemp+1)^(0+128),w
  6302  084A  1C03               	skipc
  6303  084B  0A56               	incf	(_averageTemp+1)^(0+128),w
  6304  084C  0268               	subwf	(_Temp+1)^(0+128),w
  6305  084D  00F1               	movwf	??i1_HeatingCoolingElement+1
  6306  084E  3000               	movlw	0
  6307  084F  0271               	subwf	??i1_HeatingCoolingElement+1,w
  6308  0850  3005               	movlw	5
  6309  0851  1903               	skipnz
  6310  0852  0270               	subwf	??i1_HeatingCoolingElement,w
  6311  0853  1C03               	skipc
  6312  0854  2856               	goto	u340_21
  6313  0855  2857               	goto	u340_20
  6314  0856                     u340_21:
  6315  0856  285D               	goto	i1l2620
  6316  0857                     u340_20:
  6317  0857                     i1l279:
  6318                           
  6319                           ;./Temperature.h: 149:         PORTCbits.RC5 = 0,
  6320  0857  1283               	bcf	3,5	;RP0=0, select bank0
  6321  0858  1303               	bcf	3,6	;RP1=0, select bank0
  6322  0859  1287               	bcf	7,5	;volatile
  6323  085A  1107               	bcf	7,2	;volatile
  6324                           
  6325                           ;./Temperature.h: 151:         TMR2ON =0;
  6326  085B  1112               	bcf	18,2	;volatile
  6327                           
  6328                           ;./Temperature.h: 152:         PORTBbits.RB1 = 0;
  6329  085C  1086               	bcf	6,1	;volatile
  6330  085D                     i1l2620:
  6331                           
  6332                           ;./Temperature.h: 154:     _delay((unsigned long)((10)*(20000000/4000.0)));
  6333  085D  3041               	movlw	65
  6334  085E  00F1               	movwf	??i1_HeatingCoolingElement+1
  6335  085F  30EE               	movlw	238
  6336  0860  00F0               	movwf	??i1_HeatingCoolingElement
  6337  0861                     u423_27:
  6338  0861  0BF0               	decfsz	??i1_HeatingCoolingElement,f
  6339  0862  2861               	goto	u423_27
  6340  0863  0BF1               	decfsz	??i1_HeatingCoolingElement+1,f
  6341  0864  2861               	goto	u423_27
  6342  0865  0000               	nop
  6343  0866                     i1l280:
  6344  0866  0008               	return
  6345  0867                     __end_ofi1_HeatingCoolingElement:
  6346                           
  6347                           	psect	text35
  6348  0632                     __ptext35:	
  6349 ;; *************** function ___xxtofl *****************
  6350 ;; Defined at:
  6351 ;;		line 10 in file "C:\Program Files\Microchip\xc8\v2.20\pic\sources\c90\common\xxtofl.c"
  6352 ;; Parameters:    Size  Location     Type
  6353 ;;  sign            1    wreg     unsigned char 
  6354 ;;  val             4    0[COMMON] long 
  6355 ;; Auto vars:     Size  Location     Type
  6356 ;;  sign            1    8[COMMON] unsigned char 
  6357 ;;  arg             4   10[COMMON] unsigned long 
  6358 ;;  exp             1    9[COMMON] unsigned char 
  6359 ;; Return value:  Size  Location     Type
  6360 ;;                  4    0[COMMON] unsigned char 
  6361 ;; Registers used:
  6362 ;;		wreg, status,2, status,0, btemp+1
  6363 ;; Tracked objects:
  6364 ;;		On entry : 0/0
  6365 ;;		On exit  : 0/0
  6366 ;;		Unchanged: 0/0
  6367 ;; Data sizes:     COMMON   BANK0   BANK1   BANK3   BANK2
  6368 ;;      Params:         4       0       0       0       0
  6369 ;;      Locals:         6       0       0       0       0
  6370 ;;      Temps:          4       0       0       0       0
  6371 ;;      Totals:        14       0       0       0       0
  6372 ;;Total ram usage:       14 bytes
  6373 ;; Hardware stack levels used:    1
  6374 ;; This function calls:
  6375 ;;		Nothing
  6376 ;; This function is called by:
  6377 ;;		_AverageTemp
  6378 ;;		_TempSensor
  6379 ;; This function uses a non-reentrant model
  6380 ;;
  6381                           
  6382                           
  6383                           ;psect for function ___xxtofl
  6384  0632                     ___xxtofl:
  6385                           
  6386                           ;incstack = 0
  6387 ;; hardware stack exceeded
  6388                           ; Regs used in ___xxtofl: [wreg+status,2+status,0+btemp+1]
  6389                           ;___xxtofl@sign stored from wreg
  6390  0632  00F8               	movwf	___xxtofl@sign
  6391  0633                     i1l2560:
  6392  0633  0878               	movf	___xxtofl@sign,w
  6393  0634  1903               	btfsc	3,2
  6394  0635  2E37               	goto	u323_21
  6395  0636  2E38               	goto	u323_20
  6396  0637                     u323_21:
  6397  0637  2E4C               	goto	i1l2566
  6398  0638                     u323_20:
  6399  0638                     i1l2562:
  6400  0638  1FF3               	btfss	___xxtofl@val+3,7
  6401  0639  2E3B               	goto	u324_21
  6402  063A  2E3C               	goto	u324_20
  6403  063B                     u324_21:
  6404  063B  2E4C               	goto	i1l2566
  6405  063C                     u324_20:
  6406  063C                     i1l2564:
  6407  063C  0970               	comf	___xxtofl@val,w
  6408  063D  00FA               	movwf	___xxtofl@arg
  6409  063E  0971               	comf	___xxtofl@val+1,w
  6410  063F  00FB               	movwf	___xxtofl@arg+1
  6411  0640  0972               	comf	___xxtofl@val+2,w
  6412  0641  00FC               	movwf	___xxtofl@arg+2
  6413  0642  0973               	comf	___xxtofl@val+3,w
  6414  0643  00FD               	movwf	___xxtofl@arg+3
  6415  0644  0AFA               	incf	___xxtofl@arg,f
  6416  0645  1903               	skipnz
  6417  0646  0AFB               	incf	___xxtofl@arg+1,f
  6418  0647  1903               	skipnz
  6419  0648  0AFC               	incf	___xxtofl@arg+2,f
  6420  0649  1903               	skipnz
  6421  064A  0AFD               	incf	___xxtofl@arg+3,f
  6422  064B  2E54               	goto	i1l829
  6423  064C                     i1l2566:
  6424  064C  0873               	movf	___xxtofl@val+3,w
  6425  064D  00FD               	movwf	___xxtofl@arg+3
  6426  064E  0872               	movf	___xxtofl@val+2,w
  6427  064F  00FC               	movwf	___xxtofl@arg+2
  6428  0650  0871               	movf	___xxtofl@val+1,w
  6429  0651  00FB               	movwf	___xxtofl@arg+1
  6430  0652  0870               	movf	___xxtofl@val,w
  6431  0653  00FA               	movwf	___xxtofl@arg
  6432  0654                     i1l829:
  6433  0654  0873               	movf	___xxtofl@val+3,w
  6434  0655  0472               	iorwf	___xxtofl@val+2,w
  6435  0656  0471               	iorwf	___xxtofl@val+1,w
  6436  0657  0470               	iorwf	___xxtofl@val,w
  6437  0658  1D03               	skipz
  6438  0659  2E5B               	goto	u325_21
  6439  065A  2E5C               	goto	u325_20
  6440  065B                     u325_21:
  6441  065B  2E65               	goto	i1l2572
  6442  065C                     u325_20:
  6443  065C                     i1l2568:
  6444  065C  3000               	movlw	0
  6445  065D  00F3               	movwf	?___xxtofl+3
  6446  065E  3000               	movlw	0
  6447  065F  00F2               	movwf	?___xxtofl+2
  6448  0660  3000               	movlw	0
  6449  0661  00F1               	movwf	?___xxtofl+1
  6450  0662  3000               	movlw	0
  6451  0663  00F0               	movwf	?___xxtofl
  6452  0664  2EEB               	goto	i1l831
  6453  0665                     i1l2572:
  6454  0665  3096               	movlw	150
  6455  0666  00FF               	movwf	btemp+1
  6456  0667  087F               	movf	btemp+1,w
  6457  0668  00F9               	movwf	___xxtofl@exp
  6458  0669  2E77               	goto	i1l2578
  6459  066A                     i1l2574:
  6460  066A  3001               	movlw	1
  6461  066B  00FF               	movwf	btemp+1
  6462  066C  087F               	movf	btemp+1,w
  6463  066D  07F9               	addwf	___xxtofl@exp,f
  6464  066E                     i1l2576:
  6465  066E  3001               	movlw	1
  6466  066F                     u326_25:
  6467  066F  1003               	clrc
  6468  0670  0CFD               	rrf	___xxtofl@arg+3,f
  6469  0671  0CFC               	rrf	___xxtofl@arg+2,f
  6470  0672  0CFB               	rrf	___xxtofl@arg+1,f
  6471  0673  0CFA               	rrf	___xxtofl@arg,f
  6472  0674  3EFF               	addlw	-1
  6473  0675  1D03               	skipz
  6474  0676  2E6F               	goto	u326_25
  6475  0677                     i1l2578:
  6476  0677  30FE               	movlw	254
  6477  0678  057D               	andwf	___xxtofl@arg+3,w
  6478  0679  1D03               	btfss	3,2
  6479  067A  2E7C               	goto	u327_21
  6480  067B  2E7D               	goto	u327_20
  6481  067C                     u327_21:
  6482  067C  2E6A               	goto	i1l2574
  6483  067D                     u327_20:
  6484  067D  2E99               	goto	i1l2586
  6485  067E                     i1l2580:
  6486  067E  3001               	movlw	1
  6487  067F  00FF               	movwf	btemp+1
  6488  0680  087F               	movf	btemp+1,w
  6489  0681  07F9               	addwf	___xxtofl@exp,f
  6490  0682                     i1l2582:
  6491  0682  3001               	movlw	1
  6492  0683  07FA               	addwf	___xxtofl@arg,f
  6493  0684  3000               	movlw	0
  6494  0685  1803               	skipnc
  6495  0686  3001               	movlw	1
  6496  0687  07FB               	addwf	___xxtofl@arg+1,f
  6497  0688  3000               	movlw	0
  6498  0689  1803               	skipnc
  6499  068A  3001               	movlw	1
  6500  068B  07FC               	addwf	___xxtofl@arg+2,f
  6501  068C  3000               	movlw	0
  6502  068D  1803               	skipnc
  6503  068E  3001               	movlw	1
  6504  068F  07FD               	addwf	___xxtofl@arg+3,f
  6505  0690                     i1l2584:
  6506  0690  3001               	movlw	1
  6507  0691                     u328_25:
  6508  0691  1003               	clrc
  6509  0692  0CFD               	rrf	___xxtofl@arg+3,f
  6510  0693  0CFC               	rrf	___xxtofl@arg+2,f
  6511  0694  0CFB               	rrf	___xxtofl@arg+1,f
  6512  0695  0CFA               	rrf	___xxtofl@arg,f
  6513  0696  3EFF               	addlw	-1
  6514  0697  1D03               	skipz
  6515  0698  2E91               	goto	u328_25
  6516  0699                     i1l2586:
  6517  0699  30FF               	movlw	255
  6518  069A  057D               	andwf	___xxtofl@arg+3,w
  6519  069B  1D03               	btfss	3,2
  6520  069C  2E9E               	goto	u329_21
  6521  069D  2E9F               	goto	u329_20
  6522  069E                     u329_21:
  6523  069E  2E7E               	goto	i1l2580
  6524  069F                     u329_20:
  6525  069F  2EAB               	goto	i1l2590
  6526  06A0                     i1l2588:
  6527  06A0  3001               	movlw	1
  6528  06A1  02F9               	subwf	___xxtofl@exp,f
  6529  06A2  3001               	movlw	1
  6530  06A3  00F4               	movwf	??___xxtofl
  6531  06A4                     u330_25:
  6532  06A4  1003               	clrc
  6533  06A5  0DFA               	rlf	___xxtofl@arg,f
  6534  06A6  0DFB               	rlf	___xxtofl@arg+1,f
  6535  06A7  0DFC               	rlf	___xxtofl@arg+2,f
  6536  06A8  0DFD               	rlf	___xxtofl@arg+3,f
  6537  06A9  0BF4               	decfsz	??___xxtofl,f
  6538  06AA  2EA4               	goto	u330_25
  6539  06AB                     i1l2590:
  6540  06AB  1BFC               	btfsc	___xxtofl@arg+2,7
  6541  06AC  2EAE               	goto	u331_21
  6542  06AD  2EAF               	goto	u331_20
  6543  06AE                     u331_21:
  6544  06AE  2EB5               	goto	i1l842
  6545  06AF                     u331_20:
  6546  06AF                     i1l2592:
  6547  06AF  3002               	movlw	2
  6548  06B0  0279               	subwf	___xxtofl@exp,w
  6549  06B1  1803               	skipnc
  6550  06B2  2EB4               	goto	u332_21
  6551  06B3  2EB5               	goto	u332_20
  6552  06B4                     u332_21:
  6553  06B4  2EA0               	goto	i1l2588
  6554  06B5                     u332_20:
  6555  06B5                     i1l842:
  6556  06B5  1879               	btfsc	___xxtofl@exp,0
  6557  06B6  2EB8               	goto	u333_21
  6558  06B7  2EB9               	goto	u333_20
  6559  06B8                     u333_21:
  6560  06B8  2EC1               	goto	i1l843
  6561  06B9                     u333_20:
  6562  06B9                     i1l2594:
  6563  06B9  30FF               	movlw	255
  6564  06BA  05FA               	andwf	___xxtofl@arg,f
  6565  06BB  30FF               	movlw	255
  6566  06BC  05FB               	andwf	___xxtofl@arg+1,f
  6567  06BD  307F               	movlw	127
  6568  06BE  05FC               	andwf	___xxtofl@arg+2,f
  6569  06BF  30FF               	movlw	255
  6570  06C0  05FD               	andwf	___xxtofl@arg+3,f
  6571  06C1                     i1l843:
  6572  06C1  1003               	clrc
  6573  06C2  0CF9               	rrf	___xxtofl@exp,f
  6574  06C3                     i1l2596:
  6575  06C3  0879               	movf	___xxtofl@exp,w
  6576  06C4  00F4               	movwf	??___xxtofl
  6577  06C5  01F5               	clrf	??___xxtofl+1
  6578  06C6  01F6               	clrf	??___xxtofl+2
  6579  06C7  01F7               	clrf	??___xxtofl+3
  6580  06C8  3018               	movlw	24
  6581  06C9                     u334_25:
  6582  06C9  1003               	clrc
  6583  06CA  0DF4               	rlf	??___xxtofl,f
  6584  06CB  0DF5               	rlf	??___xxtofl+1,f
  6585  06CC  0DF6               	rlf	??___xxtofl+2,f
  6586  06CD  0DF7               	rlf	??___xxtofl+3,f
  6587  06CE                     u334_20:
  6588  06CE  3EFF               	addlw	-1
  6589  06CF  1D03               	skipz
  6590  06D0  2EC9               	goto	u334_25
  6591  06D1  0874               	movf	??___xxtofl,w
  6592  06D2  04FA               	iorwf	___xxtofl@arg,f
  6593  06D3  0875               	movf	??___xxtofl+1,w
  6594  06D4  04FB               	iorwf	___xxtofl@arg+1,f
  6595  06D5  0876               	movf	??___xxtofl+2,w
  6596  06D6  04FC               	iorwf	___xxtofl@arg+2,f
  6597  06D7  0877               	movf	??___xxtofl+3,w
  6598  06D8  04FD               	iorwf	___xxtofl@arg+3,f
  6599  06D9                     i1l2598:
  6600  06D9  0878               	movf	___xxtofl@sign,w
  6601  06DA  1903               	btfsc	3,2
  6602  06DB  2EDD               	goto	u335_21
  6603  06DC  2EDE               	goto	u335_20
  6604  06DD                     u335_21:
  6605  06DD  2EE3               	goto	i1l2604
  6606  06DE                     u335_20:
  6607  06DE                     i1l2600:
  6608  06DE  1FF3               	btfss	___xxtofl@val+3,7
  6609  06DF  2EE1               	goto	u336_21
  6610  06E0  2EE2               	goto	u336_20
  6611  06E1                     u336_21:
  6612  06E1  2EE3               	goto	i1l2604
  6613  06E2                     u336_20:
  6614  06E2                     i1l2602:
  6615  06E2  17FD               	bsf	___xxtofl@arg+3,7
  6616  06E3                     i1l2604:
  6617  06E3  087D               	movf	___xxtofl@arg+3,w
  6618  06E4  00F3               	movwf	?___xxtofl+3
  6619  06E5  087C               	movf	___xxtofl@arg+2,w
  6620  06E6  00F2               	movwf	?___xxtofl+2
  6621  06E7  087B               	movf	___xxtofl@arg+1,w
  6622  06E8  00F1               	movwf	?___xxtofl+1
  6623  06E9  087A               	movf	___xxtofl@arg,w
  6624  06EA  00F0               	movwf	?___xxtofl
  6625  06EB                     i1l831:
  6626  06EB  0008               	return
  6627  06EC                     __end_of___xxtofl:
  6628                           
  6629                           	psect	text36
  6630  0B59                     __ptext36:	
  6631 ;; *************** function ___fltol *****************
  6632 ;; Defined at:
  6633 ;;		line 43 in file "C:\Program Files\Microchip\xc8\v2.20\pic\sources\c90\common\fltol.c"
  6634 ;; Parameters:    Size  Location     Type
  6635 ;;  f1              4   52[BANK0 ] unsigned char 
  6636 ;; Auto vars:     Size  Location     Type
  6637 ;;  exp1            1   61[BANK0 ] unsigned char 
  6638 ;;  sign1           1   60[BANK0 ] unsigned char 
  6639 ;; Return value:  Size  Location     Type
  6640 ;;                  4   52[BANK0 ] long 
  6641 ;; Registers used:
  6642 ;;		wreg, status,2, status,0, btemp+1
  6643 ;; Tracked objects:
  6644 ;;		On entry : 0/0
  6645 ;;		On exit  : 0/0
  6646 ;;		Unchanged: 0/0
  6647 ;; Data sizes:     COMMON   BANK0   BANK1   BANK3   BANK2
  6648 ;;      Params:         0       4       0       0       0
  6649 ;;      Locals:         0       2       0       0       0
  6650 ;;      Temps:          0       4       0       0       0
  6651 ;;      Totals:         0      10       0       0       0
  6652 ;;Total ram usage:       10 bytes
  6653 ;; Hardware stack levels used:    1
  6654 ;; This function calls:
  6655 ;;		Nothing
  6656 ;; This function is called by:
  6657 ;;		_AverageTemp
  6658 ;;		_TempSensor
  6659 ;; This function uses a non-reentrant model
  6660 ;;
  6661                           
  6662                           
  6663                           ;psect for function ___fltol
  6664  0B59                     ___fltol:
  6665  0B59                     i1l2114:	
  6666                           ;incstack = 0
  6667 ;; hardware stack exceeded
  6668                           ; Regs used in ___fltol: [wreg+status,2+status,0+btemp+1]
  6669                           
  6670  0B59  1003               	clrc
  6671  0B5A  1283               	bcf	3,5	;RP0=0, select bank0
  6672  0B5B  1303               	bcf	3,6	;RP1=0, select bank0
  6673  0B5C  0D56               	rlf	___fltol@f1+2,w
  6674  0B5D  0D57               	rlf	___fltol@f1+3,w
  6675  0B5E  00FF               	movwf	btemp+1
  6676  0B5F  087F               	movf	btemp+1,w
  6677  0B60  00DD               	movwf	___fltol@exp1
  6678  0B61  085D               	movf	___fltol@exp1,w
  6679  0B62  1D03               	btfss	3,2
  6680  0B63  2B65               	goto	u222_21
  6681  0B64  2B66               	goto	u222_20
  6682  0B65                     u222_21:
  6683  0B65  2B6F               	goto	i1l2120
  6684  0B66                     u222_20:
  6685  0B66                     i1l2116:
  6686  0B66  3000               	movlw	0
  6687  0B67  00D7               	movwf	?___fltol+3
  6688  0B68  3000               	movlw	0
  6689  0B69  00D6               	movwf	?___fltol+2
  6690  0B6A  3000               	movlw	0
  6691  0B6B  00D5               	movwf	?___fltol+1
  6692  0B6C  3000               	movlw	0
  6693  0B6D  00D4               	movwf	?___fltol
  6694  0B6E  2BD4               	goto	i1l582
  6695  0B6F                     i1l2120:
  6696  0B6F  0854               	movf	___fltol@f1,w
  6697  0B70  00D8               	movwf	??___fltol
  6698  0B71  0855               	movf	___fltol@f1+1,w
  6699  0B72  00D9               	movwf	??___fltol+1
  6700  0B73  0856               	movf	___fltol@f1+2,w
  6701  0B74  00DA               	movwf	??___fltol+2
  6702  0B75  0857               	movf	___fltol@f1+3,w
  6703  0B76  00DB               	movwf	??___fltol+3
  6704  0B77  301F               	movlw	31
  6705  0B78                     u223_25:
  6706  0B78  1003               	clrc
  6707  0B79  0CDB               	rrf	??___fltol+3,f
  6708  0B7A  0CDA               	rrf	??___fltol+2,f
  6709  0B7B  0CD9               	rrf	??___fltol+1,f
  6710  0B7C  0CD8               	rrf	??___fltol,f
  6711  0B7D                     u223_20:
  6712  0B7D  3EFF               	addlw	-1
  6713  0B7E  1D03               	skipz
  6714  0B7F  2B78               	goto	u223_25
  6715  0B80  0858               	movf	??___fltol,w
  6716  0B81  00FF               	movwf	btemp+1
  6717  0B82  087F               	movf	btemp+1,w
  6718  0B83  00DC               	movwf	___fltol@sign1
  6719  0B84                     i1l2122:
  6720  0B84  17D6               	bsf	___fltol@f1+2,7
  6721  0B85                     i1l2124:
  6722  0B85  30FF               	movlw	255
  6723  0B86  05D4               	andwf	___fltol@f1,f
  6724  0B87  30FF               	movlw	255
  6725  0B88  05D5               	andwf	___fltol@f1+1,f
  6726  0B89  30FF               	movlw	255
  6727  0B8A  05D6               	andwf	___fltol@f1+2,f
  6728  0B8B  3000               	movlw	0
  6729  0B8C  05D7               	andwf	___fltol@f1+3,f
  6730  0B8D                     i1l2126:
  6731  0B8D  3096               	movlw	150
  6732  0B8E  02DD               	subwf	___fltol@exp1,f
  6733  0B8F                     i1l2128:
  6734  0B8F  1FDD               	btfss	___fltol@exp1,7
  6735  0B90  2B92               	goto	u224_21
  6736  0B91  2B93               	goto	u224_20
  6737  0B92                     u224_21:
  6738  0B92  2BAD               	goto	i1l2140
  6739  0B93                     u224_20:
  6740  0B93                     i1l2130:
  6741  0B93  085D               	movf	___fltol@exp1,w
  6742  0B94  3A80               	xorlw	128
  6743  0B95  3E97               	addlw	151
  6744  0B96  1803               	skipnc
  6745  0B97  2B99               	goto	u225_21
  6746  0B98  2B9A               	goto	u225_20
  6747  0B99                     u225_21:
  6748  0B99  2B9B               	goto	i1l2136
  6749  0B9A                     u225_20:
  6750  0B9A  2B66               	goto	i1l2116
  6751  0B9B                     i1l2136:
  6752  0B9B  3001               	movlw	1
  6753  0B9C                     u226_25:
  6754  0B9C  1003               	clrc
  6755  0B9D  0CD7               	rrf	___fltol@f1+3,f
  6756  0B9E  0CD6               	rrf	___fltol@f1+2,f
  6757  0B9F  0CD5               	rrf	___fltol@f1+1,f
  6758  0BA0  0CD4               	rrf	___fltol@f1,f
  6759  0BA1  3EFF               	addlw	-1
  6760  0BA2  1D03               	skipz
  6761  0BA3  2B9C               	goto	u226_25
  6762  0BA4                     i1l2138:
  6763  0BA4  3001               	movlw	1
  6764  0BA5  00FF               	movwf	btemp+1
  6765  0BA6  087F               	movf	btemp+1,w
  6766  0BA7  07DD               	addwf	___fltol@exp1,f
  6767  0BA8  1D03               	btfss	3,2
  6768  0BA9  2BAB               	goto	u227_21
  6769  0BAA  2BAC               	goto	u227_20
  6770  0BAB                     u227_21:
  6771  0BAB  2B9B               	goto	i1l2136
  6772  0BAC                     u227_20:
  6773  0BAC  2BC4               	goto	i1l2148
  6774  0BAD                     i1l2140:
  6775  0BAD  3020               	movlw	32
  6776  0BAE  025D               	subwf	___fltol@exp1,w
  6777  0BAF  1C03               	skipc
  6778  0BB0  2BB2               	goto	u228_21
  6779  0BB1  2BB3               	goto	u228_20
  6780  0BB2                     u228_21:
  6781  0BB2  2BBF               	goto	i1l589
  6782  0BB3                     u228_20:
  6783  0BB3  2B66               	goto	i1l2116
  6784  0BB4                     i1l2146:
  6785  0BB4  3001               	movlw	1
  6786  0BB5  00D8               	movwf	??___fltol
  6787  0BB6                     u229_25:
  6788  0BB6  1003               	clrc
  6789  0BB7  0DD4               	rlf	___fltol@f1,f
  6790  0BB8  0DD5               	rlf	___fltol@f1+1,f
  6791  0BB9  0DD6               	rlf	___fltol@f1+2,f
  6792  0BBA  0DD7               	rlf	___fltol@f1+3,f
  6793  0BBB  0BD8               	decfsz	??___fltol,f
  6794  0BBC  2BB6               	goto	u229_25
  6795  0BBD  3001               	movlw	1
  6796  0BBE  02DD               	subwf	___fltol@exp1,f
  6797  0BBF                     i1l589:
  6798  0BBF  085D               	movf	___fltol@exp1,w
  6799  0BC0  1D03               	btfss	3,2
  6800  0BC1  2BC3               	goto	u230_21
  6801  0BC2  2BC4               	goto	u230_20
  6802  0BC3                     u230_21:
  6803  0BC3  2BB4               	goto	i1l2146
  6804  0BC4                     u230_20:
  6805  0BC4                     i1l2148:
  6806  0BC4  085C               	movf	___fltol@sign1,w
  6807  0BC5  1903               	btfsc	3,2
  6808  0BC6  2BC8               	goto	u231_21
  6809  0BC7  2BC9               	goto	u231_20
  6810  0BC8                     u231_21:
  6811  0BC8  2BD4               	goto	i1l592
  6812  0BC9                     u231_20:
  6813  0BC9                     i1l2150:
  6814  0BC9  09D4               	comf	___fltol@f1,f
  6815  0BCA  09D5               	comf	___fltol@f1+1,f
  6816  0BCB  09D6               	comf	___fltol@f1+2,f
  6817  0BCC  09D7               	comf	___fltol@f1+3,f
  6818  0BCD  0AD4               	incf	___fltol@f1,f
  6819  0BCE  1903               	skipnz
  6820  0BCF  0AD5               	incf	___fltol@f1+1,f
  6821  0BD0  1903               	skipnz
  6822  0BD1  0AD6               	incf	___fltol@f1+2,f
  6823  0BD2  1903               	skipnz
  6824  0BD3  0AD7               	incf	___fltol@f1+3,f
  6825  0BD4                     i1l592:
  6826  0BD4                     i1l582:
  6827  0BD4  0008               	return
  6828  0BD5                     __end_of___fltol:
  6829                           
  6830                           	psect	text37
  6831  0BD5                     __ptext37:	
  6832 ;; *************** function ___fldiv *****************
  6833 ;; Defined at:
  6834 ;;		line 8 in file "C:\Program Files\Microchip\xc8\v2.20\pic\sources\c90\common\sprcdiv.c"
  6835 ;; Parameters:    Size  Location     Type
  6836 ;;  a               4   26[BANK0 ] long 
  6837 ;;  b               4   30[BANK0 ] long 
  6838 ;; Auto vars:     Size  Location     Type
  6839 ;;  grs             4   46[BANK0 ] unsigned long 
  6840 ;;  rem             4   39[BANK0 ] unsigned long 
  6841 ;;  new_exp         2   44[BANK0 ] int 
  6842 ;;  aexp            1   51[BANK0 ] unsigned char 
  6843 ;;  bexp            1   50[BANK0 ] unsigned char 
  6844 ;;  sign            1   43[BANK0 ] unsigned char 
  6845 ;; Return value:  Size  Location     Type
  6846 ;;                  4   26[BANK0 ] unsigned char 
  6847 ;; Registers used:
  6848 ;;		wreg, status,2, status,0, btemp+1
  6849 ;; Tracked objects:
  6850 ;;		On entry : 0/0
  6851 ;;		On exit  : 0/0
  6852 ;;		Unchanged: 0/0
  6853 ;; Data sizes:     COMMON   BANK0   BANK1   BANK3   BANK2
  6854 ;;      Params:         0       8       0       0       0
  6855 ;;      Locals:         0      13       0       0       0
  6856 ;;      Temps:          0       5       0       0       0
  6857 ;;      Totals:         0      26       0       0       0
  6858 ;;Total ram usage:       26 bytes
  6859 ;; Hardware stack levels used:    1
  6860 ;; This function calls:
  6861 ;;		Nothing
  6862 ;; This function is called by:
  6863 ;;		_AverageTemp
  6864 ;;		_TempSensor
  6865 ;; This function uses a non-reentrant model
  6866 ;;
  6867                           
  6868                           
  6869                           ;psect for function ___fldiv
  6870  0BD5                     ___fldiv:
  6871  0BD5                     i1l2402:	
  6872                           ;incstack = 0
  6873 ;; hardware stack exceeded
  6874                           ; Regs used in ___fldiv: [wreg+status,2+status,0+btemp+1]
  6875                           
  6876  0BD5  1283               	bcf	3,5	;RP0=0, select bank0
  6877  0BD6  1303               	bcf	3,6	;RP1=0, select bank0
  6878  0BD7  0841               	movf	___fldiv@b+3,w
  6879  0BD8  3980               	andlw	128
  6880  0BD9  00FF               	movwf	btemp+1
  6881  0BDA  087F               	movf	btemp+1,w
  6882  0BDB  00CB               	movwf	___fldiv@sign
  6883  0BDC                     i1l2404:
  6884  0BDC  0841               	movf	___fldiv@b+3,w
  6885  0BDD  00C2               	movwf	??___fldiv
  6886  0BDE  0742               	addwf	??___fldiv,w
  6887  0BDF  00FF               	movwf	btemp+1
  6888  0BE0  087F               	movf	btemp+1,w
  6889  0BE1  00D2               	movwf	___fldiv@bexp
  6890  0BE2                     i1l2406:
  6891  0BE2  1FC0               	btfss	___fldiv@b+2,7
  6892  0BE3  2BE5               	goto	u291_21
  6893  0BE4  2BE6               	goto	u291_20
  6894  0BE5                     u291_21:
  6895  0BE5  2BE7               	goto	i1l2410
  6896  0BE6                     u291_20:
  6897  0BE6                     i1l2408:
  6898  0BE6  1452               	bsf	___fldiv@bexp,0
  6899  0BE7                     i1l2410:
  6900  0BE7  0852               	movf	___fldiv@bexp,w
  6901  0BE8  1903               	btfsc	3,2
  6902  0BE9  2BEB               	goto	u292_21
  6903  0BEA  2BEC               	goto	u292_20
  6904  0BEB                     u292_21:
  6905  0BEB  2BFC               	goto	i1l2420
  6906  0BEC                     u292_20:
  6907  0BEC                     i1l2412:
  6908  0BEC  0A52               	incf	___fldiv@bexp,w
  6909  0BED  1D03               	btfss	3,2
  6910  0BEE  2BF0               	goto	u293_21
  6911  0BEF  2BF1               	goto	u293_20
  6912  0BF0                     u293_21:
  6913  0BF0  2BF9               	goto	i1l2416
  6914  0BF1                     u293_20:
  6915  0BF1                     i1l2414:
  6916  0BF1  3000               	movlw	0
  6917  0BF2  00C1               	movwf	___fldiv@b+3
  6918  0BF3  3000               	movlw	0
  6919  0BF4  00C0               	movwf	___fldiv@b+2
  6920  0BF5  3000               	movlw	0
  6921  0BF6  00BF               	movwf	___fldiv@b+1
  6922  0BF7  3000               	movlw	0
  6923  0BF8  00BE               	movwf	___fldiv@b
  6924  0BF9                     i1l2416:
  6925  0BF9  17C0               	bsf	___fldiv@b+2,7
  6926  0BFA                     i1l2418:
  6927  0BFA  01C1               	clrf	___fldiv@b+3
  6928  0BFB  2C04               	goto	i1l2422
  6929  0BFC                     i1l2420:
  6930  0BFC  3000               	movlw	0
  6931  0BFD  00C1               	movwf	___fldiv@b+3
  6932  0BFE  3000               	movlw	0
  6933  0BFF  00C0               	movwf	___fldiv@b+2
  6934  0C00  3000               	movlw	0
  6935  0C01  00BF               	movwf	___fldiv@b+1
  6936  0C02  3000               	movlw	0
  6937  0C03  00BE               	movwf	___fldiv@b
  6938  0C04                     i1l2422:
  6939  0C04  083D               	movf	___fldiv@a+3,w
  6940  0C05  3980               	andlw	128
  6941  0C06  00FF               	movwf	btemp+1
  6942  0C07  087F               	movf	btemp+1,w
  6943  0C08  06CB               	xorwf	___fldiv@sign,f
  6944  0C09                     i1l2424:
  6945  0C09  083D               	movf	___fldiv@a+3,w
  6946  0C0A  00C2               	movwf	??___fldiv
  6947  0C0B  0742               	addwf	??___fldiv,w
  6948  0C0C  00FF               	movwf	btemp+1
  6949  0C0D  087F               	movf	btemp+1,w
  6950  0C0E  00D3               	movwf	___fldiv@aexp
  6951  0C0F                     i1l2426:
  6952  0C0F  1FBC               	btfss	___fldiv@a+2,7
  6953  0C10  2C12               	goto	u294_21
  6954  0C11  2C13               	goto	u294_20
  6955  0C12                     u294_21:
  6956  0C12  2C14               	goto	i1l2430
  6957  0C13                     u294_20:
  6958  0C13                     i1l2428:
  6959  0C13  1453               	bsf	___fldiv@aexp,0
  6960  0C14                     i1l2430:
  6961  0C14  0853               	movf	___fldiv@aexp,w
  6962  0C15  1903               	btfsc	3,2
  6963  0C16  2C18               	goto	u295_21
  6964  0C17  2C19               	goto	u295_20
  6965  0C18                     u295_21:
  6966  0C18  2C29               	goto	i1l2440
  6967  0C19                     u295_20:
  6968  0C19                     i1l2432:
  6969  0C19  0A53               	incf	___fldiv@aexp,w
  6970  0C1A  1D03               	btfss	3,2
  6971  0C1B  2C1D               	goto	u296_21
  6972  0C1C  2C1E               	goto	u296_20
  6973  0C1D                     u296_21:
  6974  0C1D  2C26               	goto	i1l2436
  6975  0C1E                     u296_20:
  6976  0C1E                     i1l2434:
  6977  0C1E  3000               	movlw	0
  6978  0C1F  00BD               	movwf	___fldiv@a+3
  6979  0C20  3000               	movlw	0
  6980  0C21  00BC               	movwf	___fldiv@a+2
  6981  0C22  3000               	movlw	0
  6982  0C23  00BB               	movwf	___fldiv@a+1
  6983  0C24  3000               	movlw	0
  6984  0C25  00BA               	movwf	___fldiv@a
  6985  0C26                     i1l2436:
  6986  0C26  17BC               	bsf	___fldiv@a+2,7
  6987  0C27                     i1l2438:
  6988  0C27  01BD               	clrf	___fldiv@a+3
  6989  0C28  2C31               	goto	i1l745
  6990  0C29                     i1l2440:
  6991  0C29  3000               	movlw	0
  6992  0C2A  00BD               	movwf	___fldiv@a+3
  6993  0C2B  3000               	movlw	0
  6994  0C2C  00BC               	movwf	___fldiv@a+2
  6995  0C2D  3000               	movlw	0
  6996  0C2E  00BB               	movwf	___fldiv@a+1
  6997  0C2F  3000               	movlw	0
  6998  0C30  00BA               	movwf	___fldiv@a
  6999  0C31                     i1l745:
  7000  0C31  083D               	movf	___fldiv@a+3,w
  7001  0C32  043C               	iorwf	___fldiv@a+2,w
  7002  0C33  043B               	iorwf	___fldiv@a+1,w
  7003  0C34  043A               	iorwf	___fldiv@a,w
  7004  0C35  1D03               	skipz
  7005  0C36  2C38               	goto	u297_21
  7006  0C37  2C39               	goto	u297_20
  7007  0C38                     u297_21:
  7008  0C38  2C52               	goto	i1l2450
  7009  0C39                     u297_20:
  7010  0C39                     i1l2442:
  7011  0C39  3000               	movlw	0
  7012  0C3A  00C1               	movwf	___fldiv@b+3
  7013  0C3B  3000               	movlw	0
  7014  0C3C  00C0               	movwf	___fldiv@b+2
  7015  0C3D  3000               	movlw	0
  7016  0C3E  00BF               	movwf	___fldiv@b+1
  7017  0C3F  3000               	movlw	0
  7018  0C40  00BE               	movwf	___fldiv@b
  7019  0C41  3080               	movlw	128
  7020  0C42  04C0               	iorwf	___fldiv@b+2,f
  7021  0C43  307F               	movlw	127
  7022  0C44  04C1               	iorwf	___fldiv@b+3,f
  7023  0C45                     i1l2444:
  7024  0C45  084B               	movf	___fldiv@sign,w
  7025  0C46  00FF               	movwf	btemp+1
  7026  0C47  087F               	movf	btemp+1,w
  7027  0C48  04C1               	iorwf	___fldiv@b+3,f
  7028  0C49                     i1l2446:
  7029  0C49  0841               	movf	___fldiv@b+3,w
  7030  0C4A  00BD               	movwf	?___fldiv+3
  7031  0C4B  0840               	movf	___fldiv@b+2,w
  7032  0C4C  00BC               	movwf	?___fldiv+2
  7033  0C4D  083F               	movf	___fldiv@b+1,w
  7034  0C4E  00BB               	movwf	?___fldiv+1
  7035  0C4F  083E               	movf	___fldiv@b,w
  7036  0C50  00BA               	movwf	?___fldiv
  7037  0C51  2DB1               	goto	i1l747
  7038  0C52                     i1l2450:
  7039  0C52  0852               	movf	___fldiv@bexp,w
  7040  0C53  1D03               	btfss	3,2
  7041  0C54  2C56               	goto	u298_21
  7042  0C55  2C57               	goto	u298_20
  7043  0C56                     u298_21:
  7044  0C56  2C60               	goto	i1l2456
  7045  0C57                     u298_20:
  7046  0C57                     i1l2452:
  7047  0C57  3000               	movlw	0
  7048  0C58  00BD               	movwf	?___fldiv+3
  7049  0C59  3000               	movlw	0
  7050  0C5A  00BC               	movwf	?___fldiv+2
  7051  0C5B  3000               	movlw	0
  7052  0C5C  00BB               	movwf	?___fldiv+1
  7053  0C5D  3000               	movlw	0
  7054  0C5E  00BA               	movwf	?___fldiv
  7055  0C5F  2DB1               	goto	i1l747
  7056  0C60                     i1l2456:
  7057  0C60  0852               	movf	___fldiv@bexp,w
  7058  0C61  00C2               	movwf	??___fldiv
  7059  0C62  01C3               	clrf	??___fldiv+1
  7060  0C63  0843               	movf	??___fldiv+1,w
  7061  0C64  00C5               	movwf	??___fldiv+3
  7062  0C65  0853               	movf	___fldiv@aexp,w
  7063  0C66  0242               	subwf	??___fldiv,w
  7064  0C67  00C4               	movwf	??___fldiv+2
  7065  0C68  1C03               	skipc
  7066  0C69  03C5               	decf	??___fldiv+3,f
  7067  0C6A  0844               	movf	??___fldiv+2,w
  7068  0C6B  3E7F               	addlw	127
  7069  0C6C  00CC               	movwf	___fldiv@new_exp
  7070  0C6D  0845               	movf	??___fldiv+3,w
  7071  0C6E  1803               	skipnc
  7072  0C6F  3E01               	addlw	1
  7073  0C70  3E00               	addlw	0
  7074  0C71  00CD               	movwf	___fldiv@new_exp+1
  7075  0C72                     i1l2458:
  7076  0C72  0841               	movf	___fldiv@b+3,w
  7077  0C73  00CA               	movwf	___fldiv@rem+3
  7078  0C74  0840               	movf	___fldiv@b+2,w
  7079  0C75  00C9               	movwf	___fldiv@rem+2
  7080  0C76  083F               	movf	___fldiv@b+1,w
  7081  0C77  00C8               	movwf	___fldiv@rem+1
  7082  0C78  083E               	movf	___fldiv@b,w
  7083  0C79  00C7               	movwf	___fldiv@rem
  7084  0C7A                     i1l2460:
  7085  0C7A  3000               	movlw	0
  7086  0C7B  00C1               	movwf	___fldiv@b+3
  7087  0C7C  3000               	movlw	0
  7088  0C7D  00C0               	movwf	___fldiv@b+2
  7089  0C7E  3000               	movlw	0
  7090  0C7F  00BF               	movwf	___fldiv@b+1
  7091  0C80  3000               	movlw	0
  7092  0C81  00BE               	movwf	___fldiv@b
  7093  0C82                     i1l2462:
  7094  0C82  3000               	movlw	0
  7095  0C83  00D1               	movwf	___fldiv@grs+3
  7096  0C84  3000               	movlw	0
  7097  0C85  00D0               	movwf	___fldiv@grs+2
  7098  0C86  3000               	movlw	0
  7099  0C87  00CF               	movwf	___fldiv@grs+1
  7100  0C88  3000               	movlw	0
  7101  0C89  00CE               	movwf	___fldiv@grs
  7102  0C8A                     i1l2464:
  7103  0C8A  01D3               	clrf	___fldiv@aexp
  7104  0C8B  2CD6               	goto	i1l2484
  7105  0C8C                     i1l2466:
  7106  0C8C  0853               	movf	___fldiv@aexp,w
  7107  0C8D  1903               	btfsc	3,2
  7108  0C8E  2C90               	goto	u299_21
  7109  0C8F  2C91               	goto	u299_20
  7110  0C90                     u299_21:
  7111  0C90  2CB1               	goto	i1l2476
  7112  0C91                     u299_20:
  7113  0C91                     i1l2468:
  7114  0C91  3001               	movlw	1
  7115  0C92  00C2               	movwf	??___fldiv
  7116  0C93                     u300_25:
  7117  0C93  1003               	clrc
  7118  0C94  0DC7               	rlf	___fldiv@rem,f
  7119  0C95  0DC8               	rlf	___fldiv@rem+1,f
  7120  0C96  0DC9               	rlf	___fldiv@rem+2,f
  7121  0C97  0DCA               	rlf	___fldiv@rem+3,f
  7122  0C98  0BC2               	decfsz	??___fldiv,f
  7123  0C99  2C93               	goto	u300_25
  7124  0C9A  3001               	movlw	1
  7125  0C9B  00C2               	movwf	??___fldiv
  7126  0C9C                     u301_25:
  7127  0C9C  1003               	clrc
  7128  0C9D  0DBE               	rlf	___fldiv@b,f
  7129  0C9E  0DBF               	rlf	___fldiv@b+1,f
  7130  0C9F  0DC0               	rlf	___fldiv@b+2,f
  7131  0CA0  0DC1               	rlf	___fldiv@b+3,f
  7132  0CA1  0BC2               	decfsz	??___fldiv,f
  7133  0CA2  2C9C               	goto	u301_25
  7134  0CA3                     i1l2470:
  7135  0CA3  1FD1               	btfss	___fldiv@grs+3,7
  7136  0CA4  2CA6               	goto	u302_21
  7137  0CA5  2CA7               	goto	u302_20
  7138  0CA6                     u302_21:
  7139  0CA6  2CA8               	goto	i1l2474
  7140  0CA7                     u302_20:
  7141  0CA7                     i1l2472:
  7142  0CA7  143E               	bsf	___fldiv@b,0
  7143  0CA8                     i1l2474:
  7144  0CA8  3001               	movlw	1
  7145  0CA9  00C2               	movwf	??___fldiv
  7146  0CAA                     u303_25:
  7147  0CAA  1003               	clrc
  7148  0CAB  0DCE               	rlf	___fldiv@grs,f
  7149  0CAC  0DCF               	rlf	___fldiv@grs+1,f
  7150  0CAD  0DD0               	rlf	___fldiv@grs+2,f
  7151  0CAE  0DD1               	rlf	___fldiv@grs+3,f
  7152  0CAF  0BC2               	decfsz	??___fldiv,f
  7153  0CB0  2CAA               	goto	u303_25
  7154  0CB1                     i1l2476:
  7155  0CB1  083D               	movf	___fldiv@a+3,w
  7156  0CB2  024A               	subwf	___fldiv@rem+3,w
  7157  0CB3  1D03               	skipz
  7158  0CB4  2CBF               	goto	u304_25
  7159  0CB5  083C               	movf	___fldiv@a+2,w
  7160  0CB6  0249               	subwf	___fldiv@rem+2,w
  7161  0CB7  1D03               	skipz
  7162  0CB8  2CBF               	goto	u304_25
  7163  0CB9  083B               	movf	___fldiv@a+1,w
  7164  0CBA  0248               	subwf	___fldiv@rem+1,w
  7165  0CBB  1D03               	skipz
  7166  0CBC  2CBF               	goto	u304_25
  7167  0CBD  083A               	movf	___fldiv@a,w
  7168  0CBE  0247               	subwf	___fldiv@rem,w
  7169  0CBF                     u304_25:
  7170  0CBF  1C03               	skipc
  7171  0CC0  2CC2               	goto	u304_21
  7172  0CC1  2CC3               	goto	u304_20
  7173  0CC2                     u304_21:
  7174  0CC2  2CD2               	goto	i1l2482
  7175  0CC3                     u304_20:
  7176  0CC3                     i1l2478:
  7177  0CC3  1751               	bsf	___fldiv@grs+3,6
  7178  0CC4                     i1l2480:
  7179  0CC4  083A               	movf	___fldiv@a,w
  7180  0CC5  02C7               	subwf	___fldiv@rem,f
  7181  0CC6  083B               	movf	___fldiv@a+1,w
  7182  0CC7  1C03               	skipc
  7183  0CC8  0F3B               	incfsz	___fldiv@a+1,w
  7184  0CC9  02C8               	subwf	___fldiv@rem+1,f
  7185  0CCA  083C               	movf	___fldiv@a+2,w
  7186  0CCB  1C03               	skipc
  7187  0CCC  0F3C               	incfsz	___fldiv@a+2,w
  7188  0CCD  02C9               	subwf	___fldiv@rem+2,f
  7189  0CCE  083D               	movf	___fldiv@a+3,w
  7190  0CCF  1C03               	skipc
  7191  0CD0  0F3D               	incfsz	___fldiv@a+3,w
  7192  0CD1  02CA               	subwf	___fldiv@rem+3,f
  7193  0CD2                     i1l2482:
  7194  0CD2  3001               	movlw	1
  7195  0CD3  00FF               	movwf	btemp+1
  7196  0CD4  087F               	movf	btemp+1,w
  7197  0CD5  07D3               	addwf	___fldiv@aexp,f
  7198  0CD6                     i1l2484:
  7199  0CD6  301A               	movlw	26
  7200  0CD7  0253               	subwf	___fldiv@aexp,w
  7201  0CD8  1C03               	skipc
  7202  0CD9  2CDB               	goto	u305_21
  7203  0CDA  2CDC               	goto	u305_20
  7204  0CDB                     u305_21:
  7205  0CDB  2C8C               	goto	i1l2466
  7206  0CDC                     u305_20:
  7207  0CDC                     i1l2486:
  7208  0CDC  084A               	movf	___fldiv@rem+3,w
  7209  0CDD  0449               	iorwf	___fldiv@rem+2,w
  7210  0CDE  0448               	iorwf	___fldiv@rem+1,w
  7211  0CDF  0447               	iorwf	___fldiv@rem,w
  7212  0CE0  1903               	skipnz
  7213  0CE1  2CE3               	goto	u306_21
  7214  0CE2  2CE4               	goto	u306_20
  7215  0CE3                     u306_21:
  7216  0CE3  2D03               	goto	i1l2500
  7217  0CE4                     u306_20:
  7218  0CE4                     i1l2488:
  7219  0CE4  144E               	bsf	___fldiv@grs,0
  7220  0CE5  2D03               	goto	i1l2500
  7221  0CE6                     i1l2490:
  7222  0CE6  3001               	movlw	1
  7223  0CE7  00C2               	movwf	??___fldiv
  7224  0CE8                     u307_25:
  7225  0CE8  1003               	clrc
  7226  0CE9  0DBE               	rlf	___fldiv@b,f
  7227  0CEA  0DBF               	rlf	___fldiv@b+1,f
  7228  0CEB  0DC0               	rlf	___fldiv@b+2,f
  7229  0CEC  0DC1               	rlf	___fldiv@b+3,f
  7230  0CED  0BC2               	decfsz	??___fldiv,f
  7231  0CEE  2CE8               	goto	u307_25
  7232  0CEF                     i1l2492:
  7233  0CEF  1FD1               	btfss	___fldiv@grs+3,7
  7234  0CF0  2CF2               	goto	u308_21
  7235  0CF1  2CF3               	goto	u308_20
  7236  0CF2                     u308_21:
  7237  0CF2  2CF4               	goto	i1l2496
  7238  0CF3                     u308_20:
  7239  0CF3                     i1l2494:
  7240  0CF3  143E               	bsf	___fldiv@b,0
  7241  0CF4                     i1l2496:
  7242  0CF4  3001               	movlw	1
  7243  0CF5  00C2               	movwf	??___fldiv
  7244  0CF6                     u309_25:
  7245  0CF6  1003               	clrc
  7246  0CF7  0DCE               	rlf	___fldiv@grs,f
  7247  0CF8  0DCF               	rlf	___fldiv@grs+1,f
  7248  0CF9  0DD0               	rlf	___fldiv@grs+2,f
  7249  0CFA  0DD1               	rlf	___fldiv@grs+3,f
  7250  0CFB  0BC2               	decfsz	??___fldiv,f
  7251  0CFC  2CF6               	goto	u309_25
  7252  0CFD                     i1l2498:
  7253  0CFD  30FF               	movlw	255
  7254  0CFE  07CC               	addwf	___fldiv@new_exp,f
  7255  0CFF  1803               	skipnc
  7256  0D00  0ACD               	incf	___fldiv@new_exp+1,f
  7257  0D01  30FF               	movlw	255
  7258  0D02  07CD               	addwf	___fldiv@new_exp+1,f
  7259  0D03                     i1l2500:
  7260  0D03  1FC0               	btfss	___fldiv@b+2,7
  7261  0D04  2D06               	goto	u310_21
  7262  0D05  2D07               	goto	u310_20
  7263  0D06                     u310_21:
  7264  0D06  2CE6               	goto	i1l2490
  7265  0D07                     u310_20:
  7266  0D07                     i1l2502:
  7267  0D07  01D3               	clrf	___fldiv@aexp
  7268  0D08                     i1l2504:
  7269  0D08  1FD1               	btfss	___fldiv@grs+3,7
  7270  0D09  2D0B               	goto	u311_21
  7271  0D0A  2D0C               	goto	u311_20
  7272  0D0B                     u311_21:
  7273  0D0B  2D28               	goto	i1l2512
  7274  0D0C                     u311_20:
  7275  0D0C                     i1l2506:
  7276  0D0C  30FF               	movlw	255
  7277  0D0D  054E               	andwf	___fldiv@grs,w
  7278  0D0E  00C2               	movwf	??___fldiv
  7279  0D0F  30FF               	movlw	255
  7280  0D10  054F               	andwf	___fldiv@grs+1,w
  7281  0D11  00C3               	movwf	??___fldiv+1
  7282  0D12  30FF               	movlw	255
  7283  0D13  0550               	andwf	___fldiv@grs+2,w
  7284  0D14  00C4               	movwf	??___fldiv+2
  7285  0D15  307F               	movlw	127
  7286  0D16  0551               	andwf	___fldiv@grs+3,w
  7287  0D17  00C5               	movwf	??___fldiv+3
  7288  0D18  0845               	movf	??___fldiv+3,w
  7289  0D19  0444               	iorwf	??___fldiv+2,w
  7290  0D1A  0443               	iorwf	??___fldiv+1,w
  7291  0D1B  0442               	iorwf	??___fldiv,w
  7292  0D1C  1903               	skipnz
  7293  0D1D  2D1F               	goto	u312_21
  7294  0D1E  2D20               	goto	u312_20
  7295  0D1F                     u312_21:
  7296  0D1F  2D23               	goto	i1l761
  7297  0D20                     u312_20:
  7298  0D20                     i1l2508:
  7299  0D20  01D3               	clrf	___fldiv@aexp
  7300  0D21  0AD3               	incf	___fldiv@aexp,f
  7301  0D22  2D28               	goto	i1l2512
  7302  0D23                     i1l761:
  7303  0D23  1C3E               	btfss	___fldiv@b,0
  7304  0D24  2D26               	goto	u313_21
  7305  0D25  2D27               	goto	u313_20
  7306  0D26                     u313_21:
  7307  0D26  2D28               	goto	i1l2512
  7308  0D27                     u313_20:
  7309  0D27  2D20               	goto	i1l2508
  7310  0D28                     i1l2512:
  7311  0D28  0853               	movf	___fldiv@aexp,w
  7312  0D29  1903               	btfsc	3,2
  7313  0D2A  2D2C               	goto	u314_21
  7314  0D2B  2D2D               	goto	u314_20
  7315  0D2C                     u314_21:
  7316  0D2C  2D5E               	goto	i1l2522
  7317  0D2D                     u314_20:
  7318  0D2D                     i1l2514:
  7319  0D2D  3001               	movlw	1
  7320  0D2E  07BE               	addwf	___fldiv@b,f
  7321  0D2F  3000               	movlw	0
  7322  0D30  1803               	skipnc
  7323  0D31  3001               	movlw	1
  7324  0D32  07BF               	addwf	___fldiv@b+1,f
  7325  0D33  3000               	movlw	0
  7326  0D34  1803               	skipnc
  7327  0D35  3001               	movlw	1
  7328  0D36  07C0               	addwf	___fldiv@b+2,f
  7329  0D37  3000               	movlw	0
  7330  0D38  1803               	skipnc
  7331  0D39  3001               	movlw	1
  7332  0D3A  07C1               	addwf	___fldiv@b+3,f
  7333  0D3B                     i1l2516:
  7334  0D3B  1C41               	btfss	___fldiv@b+3,0
  7335  0D3C  2D3E               	goto	u315_21
  7336  0D3D  2D3F               	goto	u315_20
  7337  0D3E                     u315_21:
  7338  0D3E  2D5E               	goto	i1l2522
  7339  0D3F                     u315_20:
  7340  0D3F                     i1l2518:
  7341  0D3F  083E               	movf	___fldiv@b,w
  7342  0D40  00C2               	movwf	??___fldiv
  7343  0D41  083F               	movf	___fldiv@b+1,w
  7344  0D42  00C3               	movwf	??___fldiv+1
  7345  0D43  0840               	movf	___fldiv@b+2,w
  7346  0D44  00C4               	movwf	??___fldiv+2
  7347  0D45  0841               	movf	___fldiv@b+3,w
  7348  0D46  00C5               	movwf	??___fldiv+3
  7349  0D47  3001               	movlw	1
  7350  0D48  00C6               	movwf	??___fldiv+4
  7351  0D49                     u316_25:
  7352  0D49  0D45               	rlf	??___fldiv+3,w
  7353  0D4A  0CC5               	rrf	??___fldiv+3,f
  7354  0D4B  0CC4               	rrf	??___fldiv+2,f
  7355  0D4C  0CC3               	rrf	??___fldiv+1,f
  7356  0D4D  0CC2               	rrf	??___fldiv,f
  7357  0D4E                     u316_20:
  7358  0D4E  0BC6               	decfsz	??___fldiv+4,f
  7359  0D4F  2D49               	goto	u316_25
  7360  0D50  0845               	movf	??___fldiv+3,w
  7361  0D51  00C1               	movwf	___fldiv@b+3
  7362  0D52  0844               	movf	??___fldiv+2,w
  7363  0D53  00C0               	movwf	___fldiv@b+2
  7364  0D54  0843               	movf	??___fldiv+1,w
  7365  0D55  00BF               	movwf	___fldiv@b+1
  7366  0D56  0842               	movf	??___fldiv,w
  7367  0D57  00BE               	movwf	___fldiv@b
  7368  0D58                     i1l2520:
  7369  0D58  3001               	movlw	1
  7370  0D59  07CC               	addwf	___fldiv@new_exp,f
  7371  0D5A  1803               	skipnc
  7372  0D5B  0ACD               	incf	___fldiv@new_exp+1,f
  7373  0D5C  3000               	movlw	0
  7374  0D5D  07CD               	addwf	___fldiv@new_exp+1,f
  7375  0D5E                     i1l2522:
  7376  0D5E  084D               	movf	___fldiv@new_exp+1,w
  7377  0D5F  3A80               	xorlw	128
  7378  0D60  00FF               	movwf	btemp+1
  7379  0D61  3080               	movlw	128
  7380  0D62  027F               	subwf	btemp+1,w
  7381  0D63  1D03               	skipz
  7382  0D64  2D67               	goto	u317_25
  7383  0D65  30FF               	movlw	255
  7384  0D66  024C               	subwf	___fldiv@new_exp,w
  7385  0D67                     u317_25:
  7386  0D67  1C03               	skipc
  7387  0D68  2D6A               	goto	u317_21
  7388  0D69  2D6B               	goto	u317_20
  7389  0D6A                     u317_21:
  7390  0D6A  2D79               	goto	i1l2526
  7391  0D6B                     u317_20:
  7392  0D6B                     i1l2524:
  7393  0D6B  30FF               	movlw	255
  7394  0D6C  1283               	bcf	3,5	;RP0=0, select bank0
  7395  0D6D  1303               	bcf	3,6	;RP1=0, select bank0
  7396  0D6E  00CC               	movwf	___fldiv@new_exp
  7397  0D6F  3000               	movlw	0
  7398  0D70  00CD               	movwf	___fldiv@new_exp+1
  7399  0D71  3000               	movlw	0
  7400  0D72  00C1               	movwf	___fldiv@b+3
  7401  0D73  3000               	movlw	0
  7402  0D74  00C0               	movwf	___fldiv@b+2
  7403  0D75  3000               	movlw	0
  7404  0D76  00BF               	movwf	___fldiv@b+1
  7405  0D77  3000               	movlw	0
  7406  0D78  00BE               	movwf	___fldiv@b
  7407  0D79                     i1l2526:
  7408  0D79  1283               	bcf	3,5	;RP0=0, select bank0
  7409  0D7A  1303               	bcf	3,6	;RP1=0, select bank0
  7410  0D7B  084D               	movf	___fldiv@new_exp+1,w
  7411  0D7C  3A80               	xorlw	128
  7412  0D7D  00FF               	movwf	btemp+1
  7413  0D7E  3080               	movlw	128
  7414  0D7F  027F               	subwf	btemp+1,w
  7415  0D80  1D03               	skipz
  7416  0D81  2D84               	goto	u318_25
  7417  0D82  3001               	movlw	1
  7418  0D83  024C               	subwf	___fldiv@new_exp,w
  7419  0D84                     u318_25:
  7420  0D84  1803               	skipnc
  7421  0D85  2D87               	goto	u318_21
  7422  0D86  2D88               	goto	u318_20
  7423  0D87                     u318_21:
  7424  0D87  2D95               	goto	i1l2534
  7425  0D88                     u318_20:
  7426  0D88                     i1l2528:
  7427  0D88  1283               	bcf	3,5	;RP0=0, select bank0
  7428  0D89  1303               	bcf	3,6	;RP1=0, select bank0
  7429  0D8A  01CC               	clrf	___fldiv@new_exp
  7430  0D8B  01CD               	clrf	___fldiv@new_exp+1
  7431  0D8C                     i1l2530:
  7432  0D8C  3000               	movlw	0
  7433  0D8D  00C1               	movwf	___fldiv@b+3
  7434  0D8E  3000               	movlw	0
  7435  0D8F  00C0               	movwf	___fldiv@b+2
  7436  0D90  3000               	movlw	0
  7437  0D91  00BF               	movwf	___fldiv@b+1
  7438  0D92  3000               	movlw	0
  7439  0D93  00BE               	movwf	___fldiv@b
  7440  0D94                     i1l2532:
  7441  0D94  01CB               	clrf	___fldiv@sign
  7442  0D95                     i1l2534:
  7443  0D95  1283               	bcf	3,5	;RP0=0, select bank0
  7444  0D96  1303               	bcf	3,6	;RP1=0, select bank0
  7445  0D97  084C               	movf	___fldiv@new_exp,w
  7446  0D98  00FF               	movwf	btemp+1
  7447  0D99  087F               	movf	btemp+1,w
  7448  0D9A  00D2               	movwf	___fldiv@bexp
  7449  0D9B                     i1l2536:
  7450  0D9B  1C52               	btfss	___fldiv@bexp,0
  7451  0D9C  2D9E               	goto	u319_21
  7452  0D9D  2D9F               	goto	u319_20
  7453  0D9E                     u319_21:
  7454  0D9E  2DA1               	goto	i1l2540
  7455  0D9F                     u319_20:
  7456  0D9F                     i1l2538:
  7457  0D9F  17C0               	bsf	___fldiv@b+2,7
  7458  0DA0  2DA5               	goto	i1l769
  7459  0DA1                     i1l2540:
  7460  0DA1  307F               	movlw	127
  7461  0DA2  00FF               	movwf	btemp+1
  7462  0DA3  087F               	movf	btemp+1,w
  7463  0DA4  05C0               	andwf	___fldiv@b+2,f
  7464  0DA5                     i1l769:
  7465  0DA5  0852               	movf	___fldiv@bexp,w
  7466  0DA6  00C2               	movwf	??___fldiv
  7467  0DA7  1003               	clrc
  7468  0DA8  0C42               	rrf	??___fldiv,w
  7469  0DA9  00FF               	movwf	btemp+1
  7470  0DAA  087F               	movf	btemp+1,w
  7471  0DAB  00C1               	movwf	___fldiv@b+3
  7472  0DAC  084B               	movf	___fldiv@sign,w
  7473  0DAD  00FF               	movwf	btemp+1
  7474  0DAE  087F               	movf	btemp+1,w
  7475  0DAF  04C1               	iorwf	___fldiv@b+3,f
  7476  0DB0  2C49               	goto	i1l2446
  7477  0DB1                     i1l747:
  7478  0DB1  0008               	return
  7479  0DB2                     __end_of___fldiv:
  7480                           
  7481                           	psect	text38
  7482  039E                     __ptext38:	
  7483 ;; *************** function ___fladd *****************
  7484 ;; Defined at:
  7485 ;;		line 10 in file "C:\Program Files\Microchip\xc8\v2.20\pic\sources\c90\common\sprcadd.c"
  7486 ;; Parameters:    Size  Location     Type
  7487 ;;  b               4    0[COMMON] unsigned char 
  7488 ;;  a               4    4[COMMON] unsigned char 
  7489 ;; Auto vars:     Size  Location     Type
  7490 ;;  grs             1   11[COMMON] unsigned char 
  7491 ;;  bexp            1   10[COMMON] unsigned char 
  7492 ;;  aexp            1    9[COMMON] unsigned char 
  7493 ;;  signs           1    8[COMMON] unsigned char 
  7494 ;; Return value:  Size  Location     Type
  7495 ;;                  4    0[COMMON] unsigned char 
  7496 ;; Registers used:
  7497 ;;		wreg, status,2, status,0, btemp+1
  7498 ;; Tracked objects:
  7499 ;;		On entry : 0/0
  7500 ;;		On exit  : 0/0
  7501 ;;		Unchanged: 0/0
  7502 ;; Data sizes:     COMMON   BANK0   BANK1   BANK3   BANK2
  7503 ;;      Params:         8       0       0       0       0
  7504 ;;      Locals:         4       0       0       0       0
  7505 ;;      Temps:          0       8       0       0       0
  7506 ;;      Totals:        12       8       0       0       0
  7507 ;;Total ram usage:       20 bytes
  7508 ;; Hardware stack levels used:    1
  7509 ;; This function calls:
  7510 ;;		Nothing
  7511 ;; This function is called by:
  7512 ;;		_AverageTemp
  7513 ;; This function uses a non-reentrant model
  7514 ;;
  7515                           
  7516                           
  7517                           ;psect for function ___fladd
  7518  039E                     ___fladd:
  7519  039E                     i1l2200:	
  7520                           ;incstack = 0
  7521 ;; hardware stack exceeded
  7522                           ; Regs used in ___fladd: [wreg+status,2+status,0+btemp+1]
  7523                           
  7524  039E  0873               	movf	___fladd@b+3,w
  7525  039F  3980               	andlw	128
  7526  03A0  00FF               	movwf	btemp+1
  7527  03A1  087F               	movf	btemp+1,w
  7528  03A2  00F8               	movwf	___fladd@signs
  7529  03A3                     i1l2202:
  7530  03A3  0873               	movf	___fladd@b+3,w
  7531  03A4  1283               	bcf	3,5	;RP0=0, select bank0
  7532  03A5  1303               	bcf	3,6	;RP1=0, select bank0
  7533  03A6  00A0               	movwf	??___fladd
  7534  03A7  0720               	addwf	??___fladd,w
  7535  03A8  00FF               	movwf	btemp+1
  7536  03A9  087F               	movf	btemp+1,w
  7537  03AA  00FA               	movwf	___fladd@bexp
  7538  03AB                     i1l2204:
  7539  03AB  1FF2               	btfss	___fladd@b+2,7
  7540  03AC  2BAE               	goto	u245_21
  7541  03AD  2BAF               	goto	u245_20
  7542  03AE                     u245_21:
  7543  03AE  2BB0               	goto	i1l2208
  7544  03AF                     u245_20:
  7545  03AF                     i1l2206:
  7546  03AF  147A               	bsf	___fladd@bexp,0
  7547  03B0                     i1l2208:
  7548  03B0  087A               	movf	___fladd@bexp,w
  7549  03B1  1903               	btfsc	3,2
  7550  03B2  2BB4               	goto	u246_21
  7551  03B3  2BB5               	goto	u246_20
  7552  03B4                     u246_21:
  7553  03B4  2BC5               	goto	i1l2218
  7554  03B5                     u246_20:
  7555  03B5                     i1l2210:
  7556  03B5  0A7A               	incf	___fladd@bexp,w
  7557  03B6  1D03               	btfss	3,2
  7558  03B7  2BB9               	goto	u247_21
  7559  03B8  2BBA               	goto	u247_20
  7560  03B9                     u247_21:
  7561  03B9  2BC2               	goto	i1l2214
  7562  03BA                     u247_20:
  7563  03BA                     i1l2212:
  7564  03BA  3000               	movlw	0
  7565  03BB  00F3               	movwf	___fladd@b+3
  7566  03BC  3000               	movlw	0
  7567  03BD  00F2               	movwf	___fladd@b+2
  7568  03BE  3000               	movlw	0
  7569  03BF  00F1               	movwf	___fladd@b+1
  7570  03C0  3000               	movlw	0
  7571  03C1  00F0               	movwf	___fladd@b
  7572  03C2                     i1l2214:
  7573  03C2  17F2               	bsf	___fladd@b+2,7
  7574  03C3                     i1l2216:
  7575  03C3  01F3               	clrf	___fladd@b+3
  7576  03C4  2BCD               	goto	i1l2220
  7577  03C5                     i1l2218:
  7578  03C5  3000               	movlw	0
  7579  03C6  00F3               	movwf	___fladd@b+3
  7580  03C7  3000               	movlw	0
  7581  03C8  00F2               	movwf	___fladd@b+2
  7582  03C9  3000               	movlw	0
  7583  03CA  00F1               	movwf	___fladd@b+1
  7584  03CB  3000               	movlw	0
  7585  03CC  00F0               	movwf	___fladd@b
  7586  03CD                     i1l2220:
  7587  03CD  0877               	movf	___fladd@a+3,w
  7588  03CE  3980               	andlw	128
  7589  03CF  00FF               	movwf	btemp+1
  7590  03D0  087F               	movf	btemp+1,w
  7591  03D1  00F9               	movwf	___fladd@aexp
  7592  03D2                     i1l2222:
  7593  03D2  0879               	movf	___fladd@aexp,w
  7594  03D3  0678               	xorwf	___fladd@signs,w
  7595  03D4  1903               	skipnz
  7596  03D5  2BD7               	goto	u248_21
  7597  03D6  2BD8               	goto	u248_20
  7598  03D7                     u248_21:
  7599  03D7  2BD9               	goto	i1l2226
  7600  03D8                     u248_20:
  7601  03D8                     i1l2224:
  7602  03D8  1778               	bsf	___fladd@signs,6
  7603  03D9                     i1l2226:
  7604  03D9  0877               	movf	___fladd@a+3,w
  7605  03DA  00A0               	movwf	??___fladd
  7606  03DB  0720               	addwf	??___fladd,w
  7607  03DC  00FF               	movwf	btemp+1
  7608  03DD  087F               	movf	btemp+1,w
  7609  03DE  00F9               	movwf	___fladd@aexp
  7610  03DF                     i1l2228:
  7611  03DF  1FF6               	btfss	___fladd@a+2,7
  7612  03E0  2BE2               	goto	u249_21
  7613  03E1  2BE3               	goto	u249_20
  7614  03E2                     u249_21:
  7615  03E2  2BE4               	goto	i1l2232
  7616  03E3                     u249_20:
  7617  03E3                     i1l2230:
  7618  03E3  1479               	bsf	___fladd@aexp,0
  7619  03E4                     i1l2232:
  7620  03E4  0879               	movf	___fladd@aexp,w
  7621  03E5  1903               	btfsc	3,2
  7622  03E6  2BE8               	goto	u250_21
  7623  03E7  2BE9               	goto	u250_20
  7624  03E8                     u250_21:
  7625  03E8  2BF9               	goto	i1l2242
  7626  03E9                     u250_20:
  7627  03E9                     i1l2234:
  7628  03E9  0A79               	incf	___fladd@aexp,w
  7629  03EA  1D03               	btfss	3,2
  7630  03EB  2BED               	goto	u251_21
  7631  03EC  2BEE               	goto	u251_20
  7632  03ED                     u251_21:
  7633  03ED  2BF6               	goto	i1l2238
  7634  03EE                     u251_20:
  7635  03EE                     i1l2236:
  7636  03EE  3000               	movlw	0
  7637  03EF  00F7               	movwf	___fladd@a+3
  7638  03F0  3000               	movlw	0
  7639  03F1  00F6               	movwf	___fladd@a+2
  7640  03F2  3000               	movlw	0
  7641  03F3  00F5               	movwf	___fladd@a+1
  7642  03F4  3000               	movlw	0
  7643  03F5  00F4               	movwf	___fladd@a
  7644  03F6                     i1l2238:
  7645  03F6  17F6               	bsf	___fladd@a+2,7
  7646  03F7                     i1l2240:
  7647  03F7  01F7               	clrf	___fladd@a+3
  7648  03F8  2C01               	goto	i1l689
  7649  03F9                     i1l2242:
  7650  03F9  3000               	movlw	0
  7651  03FA  00F7               	movwf	___fladd@a+3
  7652  03FB  3000               	movlw	0
  7653  03FC  00F6               	movwf	___fladd@a+2
  7654  03FD  3000               	movlw	0
  7655  03FE  00F5               	movwf	___fladd@a+1
  7656  03FF  3000               	movlw	0
  7657  0400  00F4               	movwf	___fladd@a
  7658  0401                     i1l689:
  7659  0401  087A               	movf	___fladd@bexp,w
  7660  0402  0279               	subwf	___fladd@aexp,w
  7661  0403  1803               	skipnc
  7662  0404  2C06               	goto	u252_21
  7663  0405  2C07               	goto	u252_20
  7664  0406                     u252_21:
  7665  0406  2C4B               	goto	i1l2278
  7666  0407                     u252_20:
  7667  0407                     i1l2244:
  7668  0407  1F78               	btfss	___fladd@signs,6
  7669  0408  2C0A               	goto	u253_21
  7670  0409  2C0B               	goto	u253_20
  7671  040A                     u253_21:
  7672  040A  2C0F               	goto	i1l2248
  7673  040B                     u253_20:
  7674  040B                     i1l2246:
  7675  040B  3080               	movlw	128
  7676  040C  00FF               	movwf	btemp+1
  7677  040D  087F               	movf	btemp+1,w
  7678  040E  06F8               	xorwf	___fladd@signs,f
  7679  040F                     i1l2248:
  7680  040F  087A               	movf	___fladd@bexp,w
  7681  0410  00FF               	movwf	btemp+1
  7682  0411  087F               	movf	btemp+1,w
  7683  0412  00FB               	movwf	___fladd@grs
  7684  0413                     i1l2250:
  7685  0413  0879               	movf	___fladd@aexp,w
  7686  0414  00FF               	movwf	btemp+1
  7687  0415  087F               	movf	btemp+1,w
  7688  0416  00FA               	movwf	___fladd@bexp
  7689  0417                     i1l2252:
  7690  0417  087B               	movf	___fladd@grs,w
  7691  0418  00FF               	movwf	btemp+1
  7692  0419  087F               	movf	btemp+1,w
  7693  041A  00F9               	movwf	___fladd@aexp
  7694  041B                     i1l2254:
  7695  041B  0870               	movf	___fladd@b,w
  7696  041C  00FF               	movwf	btemp+1
  7697  041D  087F               	movf	btemp+1,w
  7698  041E  00FB               	movwf	___fladd@grs
  7699  041F                     i1l2256:
  7700  041F  0874               	movf	___fladd@a,w
  7701  0420  00FF               	movwf	btemp+1
  7702  0421  087F               	movf	btemp+1,w
  7703  0422  00F0               	movwf	___fladd@b
  7704  0423                     i1l2258:
  7705  0423  087B               	movf	___fladd@grs,w
  7706  0424  00FF               	movwf	btemp+1
  7707  0425  087F               	movf	btemp+1,w
  7708  0426  00F4               	movwf	___fladd@a
  7709  0427                     i1l2260:
  7710  0427  0871               	movf	___fladd@b+1,w
  7711  0428  00FF               	movwf	btemp+1
  7712  0429  087F               	movf	btemp+1,w
  7713  042A  00FB               	movwf	___fladd@grs
  7714  042B                     i1l2262:
  7715  042B  0875               	movf	___fladd@a+1,w
  7716  042C  00FF               	movwf	btemp+1
  7717  042D  087F               	movf	btemp+1,w
  7718  042E  00F1               	movwf	___fladd@b+1
  7719  042F                     i1l2264:
  7720  042F  087B               	movf	___fladd@grs,w
  7721  0430  00FF               	movwf	btemp+1
  7722  0431  087F               	movf	btemp+1,w
  7723  0432  00F5               	movwf	___fladd@a+1
  7724  0433                     i1l2266:
  7725  0433  0872               	movf	___fladd@b+2,w
  7726  0434  00FF               	movwf	btemp+1
  7727  0435  087F               	movf	btemp+1,w
  7728  0436  00FB               	movwf	___fladd@grs
  7729  0437                     i1l2268:
  7730  0437  0876               	movf	___fladd@a+2,w
  7731  0438  00FF               	movwf	btemp+1
  7732  0439  087F               	movf	btemp+1,w
  7733  043A  00F2               	movwf	___fladd@b+2
  7734  043B                     i1l2270:
  7735  043B  087B               	movf	___fladd@grs,w
  7736  043C  00FF               	movwf	btemp+1
  7737  043D  087F               	movf	btemp+1,w
  7738  043E  00F6               	movwf	___fladd@a+2
  7739  043F                     i1l2272:
  7740  043F  0873               	movf	___fladd@b+3,w
  7741  0440  00FF               	movwf	btemp+1
  7742  0441  087F               	movf	btemp+1,w
  7743  0442  00FB               	movwf	___fladd@grs
  7744  0443                     i1l2274:
  7745  0443  0877               	movf	___fladd@a+3,w
  7746  0444  00FF               	movwf	btemp+1
  7747  0445  087F               	movf	btemp+1,w
  7748  0446  00F3               	movwf	___fladd@b+3
  7749  0447                     i1l2276:
  7750  0447  087B               	movf	___fladd@grs,w
  7751  0448  00FF               	movwf	btemp+1
  7752  0449  087F               	movf	btemp+1,w
  7753  044A  00F7               	movwf	___fladd@a+3
  7754  044B                     i1l2278:
  7755  044B  01FB               	clrf	___fladd@grs
  7756  044C                     i1l2280:
  7757  044C  0879               	movf	___fladd@aexp,w
  7758  044D  00A0               	movwf	??___fladd
  7759  044E  01A1               	clrf	??___fladd+1
  7760  044F  0821               	movf	??___fladd+1,w
  7761  0450  00A3               	movwf	??___fladd+3
  7762  0451  087A               	movf	___fladd@bexp,w
  7763  0452  0220               	subwf	??___fladd,w
  7764  0453  00A2               	movwf	??___fladd+2
  7765  0454  1C03               	skipc
  7766  0455  03A3               	decf	??___fladd+3,f
  7767  0456  0823               	movf	??___fladd+3,w
  7768  0457  3A80               	xorlw	128
  7769  0458  00FF               	movwf	btemp+1
  7770  0459  3080               	movlw	128
  7771  045A  027F               	subwf	btemp+1,w
  7772  045B  1D03               	skipz
  7773  045C  2C5F               	goto	u254_25
  7774  045D  301A               	movlw	26
  7775  045E  0222               	subwf	??___fladd+2,w
  7776  045F                     u254_25:
  7777  045F  1C03               	skipc
  7778  0460  2C62               	goto	u254_21
  7779  0461  2C63               	goto	u254_20
  7780  0462                     u254_21:
  7781  0462  2CA2               	goto	i1l2300
  7782  0463                     u254_20:
  7783  0463                     i1l2282:
  7784  0463  0873               	movf	___fladd@b+3,w
  7785  0464  0472               	iorwf	___fladd@b+2,w
  7786  0465  0471               	iorwf	___fladd@b+1,w
  7787  0466  0470               	iorwf	___fladd@b,w
  7788  0467  1D03               	skipz
  7789  0468  2C6A               	goto	u255_21
  7790  0469  2C6C               	goto	u255_20
  7791  046A                     u255_21:
  7792  046A  3001               	movlw	1
  7793  046B  2C6D               	goto	u256_20
  7794  046C                     u255_20:
  7795  046C  3000               	movlw	0
  7796  046D                     u256_20:
  7797  046D  00FF               	movwf	btemp+1
  7798  046E  087F               	movf	btemp+1,w
  7799  046F  00FB               	movwf	___fladd@grs
  7800  0470                     i1l2284:
  7801  0470  3000               	movlw	0
  7802  0471  00F3               	movwf	___fladd@b+3
  7803  0472  3000               	movlw	0
  7804  0473  00F2               	movwf	___fladd@b+2
  7805  0474  3000               	movlw	0
  7806  0475  00F1               	movwf	___fladd@b+1
  7807  0476  3000               	movlw	0
  7808  0477  00F0               	movwf	___fladd@b
  7809  0478                     i1l2286:
  7810  0478  0879               	movf	___fladd@aexp,w
  7811  0479  00FF               	movwf	btemp+1
  7812  047A  087F               	movf	btemp+1,w
  7813  047B  00FA               	movwf	___fladd@bexp
  7814  047C  2CA8               	goto	i1l693
  7815  047D                     i1l695:
  7816  047D  1C7B               	btfss	___fladd@grs,0
  7817  047E  2C80               	goto	u257_21
  7818  047F  2C81               	goto	u257_20
  7819  0480                     u257_21:
  7820  0480  2C8C               	goto	i1l2290
  7821  0481                     u257_20:
  7822  0481                     i1l2288:
  7823  0481  087B               	movf	___fladd@grs,w
  7824  0482  1283               	bcf	3,5	;RP0=0, select bank0
  7825  0483  1303               	bcf	3,6	;RP1=0, select bank0
  7826  0484  00A0               	movwf	??___fladd
  7827  0485  1003               	clrc
  7828  0486  0C20               	rrf	??___fladd,w
  7829  0487  3801               	iorlw	1
  7830  0488  00FF               	movwf	btemp+1
  7831  0489  087F               	movf	btemp+1,w
  7832  048A  00FB               	movwf	___fladd@grs
  7833  048B  2C8E               	goto	i1l2292
  7834  048C                     i1l2290:
  7835  048C  1003               	clrc
  7836  048D  0CFB               	rrf	___fladd@grs,f
  7837  048E                     i1l2292:
  7838  048E  1C70               	btfss	___fladd@b,0
  7839  048F  2C91               	goto	u258_21
  7840  0490  2C92               	goto	u258_20
  7841  0491                     u258_21:
  7842  0491  2C93               	goto	i1l2296
  7843  0492                     u258_20:
  7844  0492                     i1l2294:
  7845  0492  17FB               	bsf	___fladd@grs,7
  7846  0493                     i1l2296:
  7847  0493  3001               	movlw	1
  7848  0494  1283               	bcf	3,5	;RP0=0, select bank0
  7849  0495  1303               	bcf	3,6	;RP1=0, select bank0
  7850  0496  00A0               	movwf	??___fladd
  7851  0497                     u259_25:
  7852  0497  0D73               	rlf	___fladd@b+3,w
  7853  0498  0CF3               	rrf	___fladd@b+3,f
  7854  0499  0CF2               	rrf	___fladd@b+2,f
  7855  049A  0CF1               	rrf	___fladd@b+1,f
  7856  049B  0CF0               	rrf	___fladd@b,f
  7857  049C  0BA0               	decfsz	??___fladd& (0+127),f
  7858  049D  2C97               	goto	u259_25
  7859  049E                     i1l2298:
  7860  049E  3001               	movlw	1
  7861  049F  00FF               	movwf	btemp+1
  7862  04A0  087F               	movf	btemp+1,w
  7863  04A1  07FA               	addwf	___fladd@bexp,f
  7864  04A2                     i1l2300:
  7865  04A2  0879               	movf	___fladd@aexp,w
  7866  04A3  027A               	subwf	___fladd@bexp,w
  7867  04A4  1C03               	skipc
  7868  04A5  2CA7               	goto	u260_21
  7869  04A6  2CA8               	goto	u260_20
  7870  04A7                     u260_21:
  7871  04A7  2C7D               	goto	i1l695
  7872  04A8                     u260_20:
  7873  04A8                     i1l693:
  7874  04A8  1B78               	btfsc	___fladd@signs,6
  7875  04A9  2CAB               	goto	u261_21
  7876  04AA  2CAC               	goto	u261_20
  7877  04AB                     u261_21:
  7878  04AB  2CFB               	goto	i1l2326
  7879  04AC                     u261_20:
  7880  04AC                     i1l2302:
  7881  04AC  087A               	movf	___fladd@bexp,w
  7882  04AD  1D03               	btfss	3,2
  7883  04AE  2CB0               	goto	u262_21
  7884  04AF  2CB1               	goto	u262_20
  7885  04B0                     u262_21:
  7886  04B0  2CBA               	goto	i1l2308
  7887  04B1                     u262_20:
  7888  04B1                     i1l2304:
  7889  04B1  3000               	movlw	0
  7890  04B2  00F3               	movwf	?___fladd+3
  7891  04B3  3000               	movlw	0
  7892  04B4  00F2               	movwf	?___fladd+2
  7893  04B5  3000               	movlw	0
  7894  04B6  00F1               	movwf	?___fladd+1
  7895  04B7  3000               	movlw	0
  7896  04B8  00F0               	movwf	?___fladd
  7897  04B9  2E31               	goto	i1l702
  7898  04BA                     i1l2308:
  7899  04BA  0874               	movf	___fladd@a,w
  7900  04BB  07F0               	addwf	___fladd@b,f
  7901  04BC  0875               	movf	___fladd@a+1,w
  7902  04BD  1103               	clrz
  7903  04BE  1803               	skipnc
  7904  04BF  3E01               	addlw	1
  7905  04C0  1903               	skipnz
  7906  04C1  2CC3               	goto	u263_21
  7907  04C2  07F1               	addwf	___fladd@b+1,f
  7908  04C3                     u263_21:
  7909  04C3  0876               	movf	___fladd@a+2,w
  7910  04C4  1103               	clrz
  7911  04C5  1803               	skipnc
  7912  04C6  3E01               	addlw	1
  7913  04C7  1903               	skipnz
  7914  04C8  2CCA               	goto	u263_22
  7915  04C9  07F2               	addwf	___fladd@b+2,f
  7916  04CA                     u263_22:
  7917  04CA  0877               	movf	___fladd@a+3,w
  7918  04CB  1103               	clrz
  7919  04CC  1803               	skipnc
  7920  04CD  3E01               	addlw	1
  7921  04CE  1903               	skipnz
  7922  04CF  2CD1               	goto	u263_23
  7923  04D0  07F3               	addwf	___fladd@b+3,f
  7924  04D1                     u263_23:
  7925  04D1                     i1l2310:
  7926  04D1  1C73               	btfss	___fladd@b+3,0
  7927  04D2  2CD4               	goto	u264_21
  7928  04D3  2CD5               	goto	u264_20
  7929  04D4                     u264_21:
  7930  04D4  2DB3               	goto	i1l2362
  7931  04D5                     u264_20:
  7932  04D5                     i1l2312:
  7933  04D5  1C7B               	btfss	___fladd@grs,0
  7934  04D6  2CD8               	goto	u265_21
  7935  04D7  2CD9               	goto	u265_20
  7936  04D8                     u265_21:
  7937  04D8  2CE4               	goto	i1l2316
  7938  04D9                     u265_20:
  7939  04D9                     i1l2314:
  7940  04D9  087B               	movf	___fladd@grs,w
  7941  04DA  1283               	bcf	3,5	;RP0=0, select bank0
  7942  04DB  1303               	bcf	3,6	;RP1=0, select bank0
  7943  04DC  00A0               	movwf	??___fladd
  7944  04DD  1003               	clrc
  7945  04DE  0C20               	rrf	??___fladd,w
  7946  04DF  3801               	iorlw	1
  7947  04E0  00FF               	movwf	btemp+1
  7948  04E1  087F               	movf	btemp+1,w
  7949  04E2  00FB               	movwf	___fladd@grs
  7950  04E3  2CE6               	goto	i1l2318
  7951  04E4                     i1l2316:
  7952  04E4  1003               	clrc
  7953  04E5  0CFB               	rrf	___fladd@grs,f
  7954  04E6                     i1l2318:
  7955  04E6  1C70               	btfss	___fladd@b,0
  7956  04E7  2CE9               	goto	u266_21
  7957  04E8  2CEA               	goto	u266_20
  7958  04E9                     u266_21:
  7959  04E9  2CEB               	goto	i1l2322
  7960  04EA                     u266_20:
  7961  04EA                     i1l2320:
  7962  04EA  17FB               	bsf	___fladd@grs,7
  7963  04EB                     i1l2322:
  7964  04EB  3001               	movlw	1
  7965  04EC  1283               	bcf	3,5	;RP0=0, select bank0
  7966  04ED  1303               	bcf	3,6	;RP1=0, select bank0
  7967  04EE  00A0               	movwf	??___fladd
  7968  04EF                     u267_25:
  7969  04EF  0D73               	rlf	___fladd@b+3,w
  7970  04F0  0CF3               	rrf	___fladd@b+3,f
  7971  04F1  0CF2               	rrf	___fladd@b+2,f
  7972  04F2  0CF1               	rrf	___fladd@b+1,f
  7973  04F3  0CF0               	rrf	___fladd@b,f
  7974  04F4  0BA0               	decfsz	??___fladd& (0+127),f
  7975  04F5  2CEF               	goto	u267_25
  7976  04F6                     i1l2324:
  7977  04F6  3001               	movlw	1
  7978  04F7  00FF               	movwf	btemp+1
  7979  04F8  087F               	movf	btemp+1,w
  7980  04F9  07FA               	addwf	___fladd@bexp,f
  7981  04FA  2DB3               	goto	i1l2362
  7982  04FB                     i1l2326:
  7983  04FB  0873               	movf	___fladd@b+3,w
  7984  04FC  3A80               	xorlw	128
  7985  04FD  00FF               	movwf	btemp+1
  7986  04FE  0877               	movf	___fladd@a+3,w
  7987  04FF  3A80               	xorlw	128
  7988  0500  027F               	subwf	btemp+1,w
  7989  0501  1D03               	skipz
  7990  0502  2D0D               	goto	u268_23
  7991  0503  0876               	movf	___fladd@a+2,w
  7992  0504  0272               	subwf	___fladd@b+2,w
  7993  0505  1D03               	skipz
  7994  0506  2D0D               	goto	u268_23
  7995  0507  0875               	movf	___fladd@a+1,w
  7996  0508  0271               	subwf	___fladd@b+1,w
  7997  0509  1D03               	skipz
  7998  050A  2D0D               	goto	u268_23
  7999  050B  0874               	movf	___fladd@a,w
  8000  050C  0270               	subwf	___fladd@b,w
  8001  050D                     u268_23:
  8002  050D  1803               	skipnc
  8003  050E  2D10               	goto	u268_21
  8004  050F  2D11               	goto	u268_20
  8005  0510                     u268_21:
  8006  0510  2D6B               	goto	i1l2338
  8007  0511                     u268_20:
  8008  0511                     i1l2328:
  8009  0511  30FF               	movlw	255
  8010  0512  1283               	bcf	3,5	;RP0=0, select bank0
  8011  0513  1303               	bcf	3,6	;RP1=0, select bank0
  8012  0514  00A0               	movwf	??___fladd
  8013  0515  30FF               	movlw	255
  8014  0516  00A1               	movwf	??___fladd+1
  8015  0517  30FF               	movlw	255
  8016  0518  00A2               	movwf	??___fladd+2
  8017  0519  30FF               	movlw	255
  8018  051A  00A3               	movwf	??___fladd+3
  8019  051B  0874               	movf	___fladd@a,w
  8020  051C  00A4               	movwf	??___fladd+4
  8021  051D  0875               	movf	___fladd@a+1,w
  8022  051E  00A5               	movwf	??___fladd+5
  8023  051F  0876               	movf	___fladd@a+2,w
  8024  0520  00A6               	movwf	??___fladd+6
  8025  0521  0877               	movf	___fladd@a+3,w
  8026  0522  00A7               	movwf	??___fladd+7
  8027  0523  0870               	movf	___fladd@b,w
  8028  0524  02A4               	subwf	??___fladd+4,f
  8029  0525  0871               	movf	___fladd@b+1,w
  8030  0526  1C03               	skipc
  8031  0527  0F71               	incfsz	___fladd@b+1,w
  8032  0528  2D2A               	goto	u269_21
  8033  0529  2D2B               	goto	u269_22
  8034  052A                     u269_21:
  8035  052A  02A5               	subwf	??___fladd+5,f
  8036  052B                     u269_22:
  8037  052B  0872               	movf	___fladd@b+2,w
  8038  052C  1C03               	skipc
  8039  052D  0F72               	incfsz	___fladd@b+2,w
  8040  052E  2D30               	goto	u269_23
  8041  052F  2D31               	goto	u269_24
  8042  0530                     u269_23:
  8043  0530  02A6               	subwf	??___fladd+6,f
  8044  0531                     u269_24:
  8045  0531  0873               	movf	___fladd@b+3,w
  8046  0532  1C03               	skipc
  8047  0533  0F73               	incfsz	___fladd@b+3,w
  8048  0534  2D36               	goto	u269_25
  8049  0535  2D37               	goto	u269_26
  8050  0536                     u269_25:
  8051  0536  02A7               	subwf	??___fladd+7,f
  8052  0537                     u269_26:
  8053  0537  0824               	movf	??___fladd+4,w
  8054  0538  07A0               	addwf	??___fladd,f
  8055  0539  0825               	movf	??___fladd+5,w
  8056  053A  1803               	skipnc
  8057  053B  0F25               	incfsz	??___fladd+5,w
  8058  053C  2D3E               	goto	u270_20
  8059  053D  2D3F               	goto	u270_21
  8060  053E                     u270_20:
  8061  053E  07A1               	addwf	??___fladd+1,f
  8062  053F                     u270_21:
  8063  053F  0826               	movf	??___fladd+6,w
  8064  0540  1803               	skipnc
  8065  0541  0F26               	incfsz	??___fladd+6,w
  8066  0542  2D44               	goto	u270_22
  8067  0543  2D45               	goto	u270_23
  8068  0544                     u270_22:
  8069  0544  07A2               	addwf	??___fladd+2,f
  8070  0545                     u270_23:
  8071  0545  0827               	movf	??___fladd+7,w
  8072  0546  1803               	skipnc
  8073  0547  0A27               	incf	??___fladd+7,w
  8074  0548  07A3               	addwf	??___fladd+3,f
  8075  0549  0823               	movf	??___fladd+3,w
  8076  054A  00F3               	movwf	___fladd@b+3
  8077  054B  0822               	movf	??___fladd+2,w
  8078  054C  00F2               	movwf	___fladd@b+2
  8079  054D  0821               	movf	??___fladd+1,w
  8080  054E  00F1               	movwf	___fladd@b+1
  8081  054F  0820               	movf	??___fladd,w
  8082  0550  00F0               	movwf	___fladd@b
  8083  0551                     i1l2330:
  8084  0551  3080               	movlw	128
  8085  0552  00FF               	movwf	btemp+1
  8086  0553  087F               	movf	btemp+1,w
  8087  0554  06F8               	xorwf	___fladd@signs,f
  8088  0555                     i1l2332:
  8089  0555  09FB               	comf	___fladd@grs,f
  8090  0556  0AFB               	incf	___fladd@grs,f
  8091  0557                     i1l2334:
  8092  0557  087B               	movf	___fladd@grs,w
  8093  0558  1D03               	btfss	3,2
  8094  0559  2D5B               	goto	u271_21
  8095  055A  2D5C               	goto	u271_20
  8096  055B                     u271_21:
  8097  055B  2D79               	goto	i1l710
  8098  055C                     u271_20:
  8099  055C                     i1l2336:
  8100  055C  3001               	movlw	1
  8101  055D  07F0               	addwf	___fladd@b,f
  8102  055E  3000               	movlw	0
  8103  055F  1803               	skipnc
  8104  0560  3001               	movlw	1
  8105  0561  07F1               	addwf	___fladd@b+1,f
  8106  0562  3000               	movlw	0
  8107  0563  1803               	skipnc
  8108  0564  3001               	movlw	1
  8109  0565  07F2               	addwf	___fladd@b+2,f
  8110  0566  3000               	movlw	0
  8111  0567  1803               	skipnc
  8112  0568  3001               	movlw	1
  8113  0569  07F3               	addwf	___fladd@b+3,f
  8114  056A  2D79               	goto	i1l710
  8115  056B                     i1l2338:
  8116  056B  0874               	movf	___fladd@a,w
  8117  056C  02F0               	subwf	___fladd@b,f
  8118  056D  0875               	movf	___fladd@a+1,w
  8119  056E  1C03               	skipc
  8120  056F  0F75               	incfsz	___fladd@a+1,w
  8121  0570  02F1               	subwf	___fladd@b+1,f
  8122  0571  0876               	movf	___fladd@a+2,w
  8123  0572  1C03               	skipc
  8124  0573  0F76               	incfsz	___fladd@a+2,w
  8125  0574  02F2               	subwf	___fladd@b+2,f
  8126  0575  0877               	movf	___fladd@a+3,w
  8127  0576  1C03               	skipc
  8128  0577  0F77               	incfsz	___fladd@a+3,w
  8129  0578  02F3               	subwf	___fladd@b+3,f
  8130  0579                     i1l710:
  8131  0579  0873               	movf	___fladd@b+3,w
  8132  057A  0472               	iorwf	___fladd@b+2,w
  8133  057B  0471               	iorwf	___fladd@b+1,w
  8134  057C  0470               	iorwf	___fladd@b,w
  8135  057D  1D03               	skipz
  8136  057E  2D80               	goto	u272_21
  8137  057F  2D81               	goto	u272_20
  8138  0580                     u272_21:
  8139  0580  2DAF               	goto	i1l2360
  8140  0581                     u272_20:
  8141  0581                     i1l2340:
  8142  0581  087B               	movf	___fladd@grs,w
  8143  0582  1D03               	btfss	3,2
  8144  0583  2D85               	goto	u273_21
  8145  0584  2D86               	goto	u273_20
  8146  0585                     u273_21:
  8147  0585  2DAF               	goto	i1l2360
  8148  0586                     u273_20:
  8149  0586                     i1l2342:
  8150  0586  3000               	movlw	0
  8151  0587  00F3               	movwf	?___fladd+3
  8152  0588  3000               	movlw	0
  8153  0589  00F2               	movwf	?___fladd+2
  8154  058A  3000               	movlw	0
  8155  058B  00F1               	movwf	?___fladd+1
  8156  058C  3000               	movlw	0
  8157  058D  00F0               	movwf	?___fladd
  8158  058E  2E31               	goto	i1l702
  8159  058F                     i1l2346:
  8160  058F  3001               	movlw	1
  8161  0590  1283               	bcf	3,5	;RP0=0, select bank0
  8162  0591  1303               	bcf	3,6	;RP1=0, select bank0
  8163  0592  00A0               	movwf	??___fladd
  8164  0593                     u274_25:
  8165  0593  1003               	clrc
  8166  0594  0DF0               	rlf	___fladd@b,f
  8167  0595  0DF1               	rlf	___fladd@b+1,f
  8168  0596  0DF2               	rlf	___fladd@b+2,f
  8169  0597  0DF3               	rlf	___fladd@b+3,f
  8170  0598  0BA0               	decfsz	??___fladd,f
  8171  0599  2D93               	goto	u274_25
  8172  059A                     i1l2348:
  8173  059A  1FFB               	btfss	___fladd@grs,7
  8174  059B  2D9D               	goto	u275_21
  8175  059C  2D9E               	goto	u275_20
  8176  059D                     u275_21:
  8177  059D  2D9F               	goto	i1l714
  8178  059E                     u275_20:
  8179  059E                     i1l2350:
  8180  059E  1470               	bsf	___fladd@b,0
  8181  059F                     i1l714:
  8182  059F  1C7B               	btfss	___fladd@grs,0
  8183  05A0  2DA2               	goto	u276_21
  8184  05A1  2DA3               	goto	u276_20
  8185  05A2                     u276_21:
  8186  05A2  2DA6               	goto	i1l2354
  8187  05A3                     u276_20:
  8188  05A3                     i1l2352:
  8189  05A3  1403               	setc
  8190  05A4  0DFB               	rlf	___fladd@grs,f
  8191  05A5  2DA8               	goto	i1l2356
  8192  05A6                     i1l2354:
  8193  05A6  1003               	clrc
  8194  05A7  0DFB               	rlf	___fladd@grs,f
  8195  05A8                     i1l2356:
  8196  05A8  087A               	movf	___fladd@bexp,w
  8197  05A9  1903               	btfsc	3,2
  8198  05AA  2DAC               	goto	u277_21
  8199  05AB  2DAD               	goto	u277_20
  8200  05AC                     u277_21:
  8201  05AC  2DAF               	goto	i1l2360
  8202  05AD                     u277_20:
  8203  05AD                     i1l2358:
  8204  05AD  3001               	movlw	1
  8205  05AE  02FA               	subwf	___fladd@bexp,f
  8206  05AF                     i1l2360:
  8207  05AF  1FF2               	btfss	___fladd@b+2,7
  8208  05B0  2DB2               	goto	u278_21
  8209  05B1  2DB3               	goto	u278_20
  8210  05B2                     u278_21:
  8211  05B2  2D8F               	goto	i1l2346
  8212  05B3                     u278_20:
  8213  05B3                     i1l2362:
  8214  05B3  01F9               	clrf	___fladd@aexp
  8215  05B4                     i1l2364:
  8216  05B4  1FFB               	btfss	___fladd@grs,7
  8217  05B5  2DB7               	goto	u279_21
  8218  05B6  2DB8               	goto	u279_20
  8219  05B7                     u279_21:
  8220  05B7  2DC6               	goto	i1l2372
  8221  05B8                     u279_20:
  8222  05B8                     i1l2366:
  8223  05B8  087B               	movf	___fladd@grs,w
  8224  05B9  397F               	andlw	127
  8225  05BA  1903               	btfsc	3,2
  8226  05BB  2DBD               	goto	u280_21
  8227  05BC  2DBE               	goto	u280_20
  8228  05BD                     u280_21:
  8229  05BD  2DC1               	goto	i1l720
  8230  05BE                     u280_20:
  8231  05BE                     i1l2368:
  8232  05BE  01F9               	clrf	___fladd@aexp
  8233  05BF  0AF9               	incf	___fladd@aexp,f
  8234  05C0  2DC6               	goto	i1l2372
  8235  05C1                     i1l720:
  8236  05C1  1C70               	btfss	___fladd@b,0
  8237  05C2  2DC4               	goto	u281_21
  8238  05C3  2DC5               	goto	u281_20
  8239  05C4                     u281_21:
  8240  05C4  2DC6               	goto	i1l2372
  8241  05C5                     u281_20:
  8242  05C5  2DBE               	goto	i1l2368
  8243  05C6                     i1l2372:
  8244  05C6  0879               	movf	___fladd@aexp,w
  8245  05C7  1903               	btfsc	3,2
  8246  05C8  2DCA               	goto	u282_21
  8247  05C9  2DCB               	goto	u282_20
  8248  05CA                     u282_21:
  8249  05CA  2E01               	goto	i1l2382
  8250  05CB                     u282_20:
  8251  05CB                     i1l2374:
  8252  05CB  3001               	movlw	1
  8253  05CC  07F0               	addwf	___fladd@b,f
  8254  05CD  3000               	movlw	0
  8255  05CE  1803               	skipnc
  8256  05CF  3001               	movlw	1
  8257  05D0  07F1               	addwf	___fladd@b+1,f
  8258  05D1  3000               	movlw	0
  8259  05D2  1803               	skipnc
  8260  05D3  3001               	movlw	1
  8261  05D4  07F2               	addwf	___fladd@b+2,f
  8262  05D5  3000               	movlw	0
  8263  05D6  1803               	skipnc
  8264  05D7  3001               	movlw	1
  8265  05D8  07F3               	addwf	___fladd@b+3,f
  8266  05D9                     i1l2376:
  8267  05D9  1C73               	btfss	___fladd@b+3,0
  8268  05DA  2DDC               	goto	u283_21
  8269  05DB  2DDD               	goto	u283_20
  8270  05DC                     u283_21:
  8271  05DC  2E01               	goto	i1l2382
  8272  05DD                     u283_20:
  8273  05DD                     i1l2378:
  8274  05DD  0870               	movf	___fladd@b,w
  8275  05DE  1283               	bcf	3,5	;RP0=0, select bank0
  8276  05DF  1303               	bcf	3,6	;RP1=0, select bank0
  8277  05E0  00A0               	movwf	??___fladd
  8278  05E1  0871               	movf	___fladd@b+1,w
  8279  05E2  00A1               	movwf	??___fladd+1
  8280  05E3  0872               	movf	___fladd@b+2,w
  8281  05E4  00A2               	movwf	??___fladd+2
  8282  05E5  0873               	movf	___fladd@b+3,w
  8283  05E6  00A3               	movwf	??___fladd+3
  8284  05E7  3001               	movlw	1
  8285  05E8  00A4               	movwf	??___fladd+4
  8286  05E9                     u284_25:
  8287  05E9  0D23               	rlf	??___fladd+3,w
  8288  05EA  0CA3               	rrf	??___fladd+3,f
  8289  05EB  0CA2               	rrf	??___fladd+2,f
  8290  05EC  0CA1               	rrf	??___fladd+1,f
  8291  05ED  0CA0               	rrf	??___fladd,f
  8292  05EE                     u284_20:
  8293  05EE  0BA4               	decfsz	??___fladd+4,f
  8294  05EF  2DE9               	goto	u284_25
  8295  05F0  0823               	movf	??___fladd+3,w
  8296  05F1  00F3               	movwf	___fladd@b+3
  8297  05F2  0822               	movf	??___fladd+2,w
  8298  05F3  00F2               	movwf	___fladd@b+2
  8299  05F4  0821               	movf	??___fladd+1,w
  8300  05F5  00F1               	movwf	___fladd@b+1
  8301  05F6  0820               	movf	??___fladd,w
  8302  05F7  00F0               	movwf	___fladd@b
  8303  05F8  0A7A               	incf	___fladd@bexp,w
  8304  05F9  1903               	btfsc	3,2
  8305  05FA  2DFC               	goto	u285_21
  8306  05FB  2DFD               	goto	u285_20
  8307  05FC                     u285_21:
  8308  05FC  2E01               	goto	i1l2382
  8309  05FD                     u285_20:
  8310  05FD                     i1l2380:
  8311  05FD  3001               	movlw	1
  8312  05FE  00FF               	movwf	btemp+1
  8313  05FF  087F               	movf	btemp+1,w
  8314  0600  07FA               	addwf	___fladd@bexp,f
  8315  0601                     i1l2382:
  8316  0601  0A7A               	incf	___fladd@bexp,w
  8317  0602  1903               	btfsc	3,2
  8318  0603  2E05               	goto	u286_21
  8319  0604  2E06               	goto	u286_20
  8320  0605                     u286_21:
  8321  0605  2E0B               	goto	i1l2386
  8322  0606                     u286_20:
  8323  0606                     i1l2384:
  8324  0606  087A               	movf	___fladd@bexp,w
  8325  0607  1D03               	btfss	3,2
  8326  0608  2E0A               	goto	u287_21
  8327  0609  2E0B               	goto	u287_20
  8328  060A                     u287_21:
  8329  060A  2E19               	goto	i1l2392
  8330  060B                     u287_20:
  8331  060B                     i1l2386:
  8332  060B  3000               	movlw	0
  8333  060C  00F3               	movwf	___fladd@b+3
  8334  060D  3000               	movlw	0
  8335  060E  00F2               	movwf	___fladd@b+2
  8336  060F  3000               	movlw	0
  8337  0610  00F1               	movwf	___fladd@b+1
  8338  0611  3000               	movlw	0
  8339  0612  00F0               	movwf	___fladd@b
  8340  0613                     i1l2388:
  8341  0613  087A               	movf	___fladd@bexp,w
  8342  0614  1D03               	btfss	3,2
  8343  0615  2E17               	goto	u288_21
  8344  0616  2E18               	goto	u288_20
  8345  0617                     u288_21:
  8346  0617  2E19               	goto	i1l2392
  8347  0618                     u288_20:
  8348  0618                     i1l2390:
  8349  0618  01F8               	clrf	___fladd@signs
  8350  0619                     i1l2392:
  8351  0619  1C7A               	btfss	___fladd@bexp,0
  8352  061A  2E1C               	goto	u289_21
  8353  061B  2E1D               	goto	u289_20
  8354  061C                     u289_21:
  8355  061C  2E1F               	goto	i1l2396
  8356  061D                     u289_20:
  8357  061D                     i1l2394:
  8358  061D  17F2               	bsf	___fladd@b+2,7
  8359  061E  2E23               	goto	i1l731
  8360  061F                     i1l2396:
  8361  061F  307F               	movlw	127
  8362  0620  00FF               	movwf	btemp+1
  8363  0621  087F               	movf	btemp+1,w
  8364  0622  05F2               	andwf	___fladd@b+2,f
  8365  0623                     i1l731:
  8366  0623  087A               	movf	___fladd@bexp,w
  8367  0624  1283               	bcf	3,5	;RP0=0, select bank0
  8368  0625  1303               	bcf	3,6	;RP1=0, select bank0
  8369  0626  00A0               	movwf	??___fladd
  8370  0627  1003               	clrc
  8371  0628  0C20               	rrf	??___fladd,w
  8372  0629  00FF               	movwf	btemp+1
  8373  062A  087F               	movf	btemp+1,w
  8374  062B  00F3               	movwf	___fladd@b+3
  8375  062C                     i1l2398:
  8376  062C  1FF8               	btfss	___fladd@signs,7
  8377  062D  2E2F               	goto	u290_21
  8378  062E  2E30               	goto	u290_20
  8379  062F                     u290_21:
  8380  062F  2E31               	goto	i1l732
  8381  0630                     u290_20:
  8382  0630                     i1l2400:
  8383  0630  17F3               	bsf	___fladd@b+3,7
  8384  0631                     i1l732:
  8385  0631                     i1l702:
  8386  0631  0008               	return
  8387  0632                     __end_of___fladd:
  8388                           
  8389                           	psect	text39
  8390  16EA                     __ptext39:	
  8391 ;; *************** function _ADC_Read *****************
  8392 ;; Defined at:
  8393 ;;		line 11 in file "./ADC.h"
  8394 ;; Parameters:    Size  Location     Type
  8395 ;;		None
  8396 ;; Auto vars:     Size  Location     Type
  8397 ;;		None
  8398 ;; Return value:  Size  Location     Type
  8399 ;;                  2    0[COMMON] unsigned int 
  8400 ;; Registers used:
  8401 ;;		wreg, status,2, status,0, pclath, cstack
  8402 ;; Tracked objects:
  8403 ;;		On entry : 0/0
  8404 ;;		On exit  : 0/0
  8405 ;;		Unchanged: 0/0
  8406 ;; Data sizes:     COMMON   BANK0   BANK1   BANK3   BANK2
  8407 ;;      Params:         2       0       0       0       0
  8408 ;;      Locals:         0       0       0       0       0
  8409 ;;      Temps:          7       0       0       0       0
  8410 ;;      Totals:         9       0       0       0       0
  8411 ;;Total ram usage:        9 bytes
  8412 ;; Hardware stack levels used:    1
  8413 ;; Hardware stack levels required when called:    1
  8414 ;; This function calls:
  8415 ;;		_ADCInit
  8416 ;; This function is called by:
  8417 ;;		_TempSensor
  8418 ;; This function uses a non-reentrant model
  8419 ;;
  8420                           
  8421                           
  8422                           ;psect for function _ADC_Read
  8423  16EA                     _ADC_Read:
  8424  16EA                     i1l2666:	
  8425                           ;incstack = 0
  8426 ;; hardware stack exceeded
  8427                           ; Regs used in _ADC_Read: [wreg+status,2+status,0+pclath+cstack]
  8428                           
  8429                           
  8430                           ;./ADC.h: 12:     ADCInit();
  8431  16EA  160A  118A  2557  160A  118A  	fcall	_ADCInit
  8432  16EF                     i1l2668:
  8433                           
  8434                           ;./ADC.h: 13:    ADCON0=0x11;
  8435  16EF  3011               	movlw	17
  8436  16F0  1283               	bcf	3,5	;RP0=0, select bank0
  8437  16F1  1303               	bcf	3,6	;RP1=0, select bank0
  8438  16F2  009F               	movwf	31	;volatile
  8439  16F3                     i1l2670:
  8440                           
  8441                           ;./ADC.h: 14:     _delay((unsigned long)((1)*(20000000/4000.0)));
  8442  16F3  3007               	movlw	7
  8443  16F4  00F3               	movwf	??_ADC_Read+1
  8444  16F5  307D               	movlw	125
  8445  16F6  00F2               	movwf	??_ADC_Read
  8446  16F7                     u424_27:
  8447  16F7  0BF2               	decfsz	??_ADC_Read,f
  8448  16F8  2EF7               	goto	u424_27
  8449  16F9  0BF3               	decfsz	??_ADC_Read+1,f
  8450  16FA  2EF7               	goto	u424_27
  8451  16FB                     i1l2672:
  8452                           
  8453                           ;./ADC.h: 15:     ADCON0bits.GO=1;
  8454  16FB  1283               	bcf	3,5	;RP0=0, select bank0
  8455  16FC  1303               	bcf	3,6	;RP1=0, select bank0
  8456  16FD  151F               	bsf	31,2	;volatile
  8457  16FE                     i1l204:	
  8458                           ;./ADC.h: 16:     while(ADCON0bits.GO == 1);
  8459                           
  8460  16FE  191F               	btfsc	31,2	;volatile
  8461  16FF  2F01               	goto	u341_21
  8462  1700  2F02               	goto	u341_20
  8463  1701                     u341_21:
  8464  1701  2EFE               	goto	i1l204
  8465  1702                     u341_20:
  8466  1702                     i1l2674:
  8467                           
  8468                           ;./ADC.h: 18:    return ((((unsigned int)ADRESH)<<2)|(ADRESL>>6));
  8469  1702  1683               	bsf	3,5	;RP0=1, select bank1
  8470  1703  1303               	bcf	3,6	;RP1=0, select bank1
  8471  1704  081E               	movf	30,w	;volatile
  8472  1705  00F2               	movwf	??_ADC_Read
  8473  1706  3006               	movlw	6
  8474  1707                     u342_25:
  8475  1707  1003               	clrc
  8476  1708  0CF2               	rrf	??_ADC_Read,f
  8477  1709  3EFF               	addlw	-1
  8478  170A  1D03               	skipz
  8479  170B  2F07               	goto	u342_25
  8480  170C  0872               	movf	??_ADC_Read,w
  8481  170D  00F3               	movwf	??_ADC_Read+1
  8482  170E  01F4               	clrf	??_ADC_Read+2
  8483  170F  1283               	bcf	3,5	;RP0=0, select bank0
  8484  1710  1303               	bcf	3,6	;RP1=0, select bank0
  8485  1711  081E               	movf	30,w	;volatile
  8486  1712  00F5               	movwf	??_ADC_Read+3
  8487  1713  01F6               	clrf	??_ADC_Read+4
  8488  1714  1003               	clrc
  8489  1715  0DF5               	rlf	??_ADC_Read+3,f
  8490  1716  0DF6               	rlf	??_ADC_Read+4,f
  8491  1717  1003               	clrc
  8492  1718  0DF5               	rlf	??_ADC_Read+3,f
  8493  1719  0DF6               	rlf	??_ADC_Read+4,f
  8494  171A  0873               	movf	??_ADC_Read+1,w
  8495  171B  0475               	iorwf	??_ADC_Read+3,w
  8496  171C  00F7               	movwf	??_ADC_Read+5
  8497  171D  0874               	movf	??_ADC_Read+2,w
  8498  171E  0476               	iorwf	??_ADC_Read+4,w
  8499  171F  00F8               	movwf	??_ADC_Read+6
  8500  1720  0877               	movf	??_ADC_Read+5,w
  8501  1721  00F0               	movwf	?_ADC_Read
  8502  1722  0878               	movf	??_ADC_Read+6,w
  8503  1723  00F1               	movwf	?_ADC_Read+1
  8504  1724                     i1l207:
  8505  1724  0008               	return
  8506  1725                     __end_of_ADC_Read:
  8507                           
  8508                           	psect	text40
  8509  1557                     __ptext40:	
  8510 ;; *************** function _ADCInit *****************
  8511 ;; Defined at:
  8512 ;;		line 57 in file "./Init.h"
  8513 ;; Parameters:    Size  Location     Type
  8514 ;;		None
  8515 ;; Auto vars:     Size  Location     Type
  8516 ;;		None
  8517 ;; Return value:  Size  Location     Type
  8518 ;;                  1    wreg      void 
  8519 ;; Registers used:
  8520 ;;		wreg
  8521 ;; Tracked objects:
  8522 ;;		On entry : 0/0
  8523 ;;		On exit  : 0/0
  8524 ;;		Unchanged: 0/0
  8525 ;; Data sizes:     COMMON   BANK0   BANK1   BANK3   BANK2
  8526 ;;      Params:         0       0       0       0       0
  8527 ;;      Locals:         0       0       0       0       0
  8528 ;;      Temps:          0       0       0       0       0
  8529 ;;      Totals:         0       0       0       0       0
  8530 ;;Total ram usage:        0 bytes
  8531 ;; Hardware stack levels used:    1
  8532 ;; This function calls:
  8533 ;;		Nothing
  8534 ;; This function is called by:
  8535 ;;		_ADC_Read
  8536 ;; This function uses a non-reentrant model
  8537 ;;
  8538                           
  8539                           
  8540                           ;psect for function _ADCInit
  8541  1557                     _ADCInit:
  8542  1557                     i1l2106:	
  8543                           ;incstack = 0
  8544 ;; hardware stack exceeded
  8545                           ; Regs used in _ADCInit: [wreg]
  8546                           
  8547                           
  8548                           ;./Init.h: 58:     ADCON1=0x02;
  8549  1557  3002               	movlw	2
  8550  1558  1683               	bsf	3,5	;RP0=1, select bank1
  8551  1559  1303               	bcf	3,6	;RP1=0, select bank1
  8552  155A  009F               	movwf	31	;volatile
  8553                           
  8554                           ;./Init.h: 59:     ADCON0=0x41;
  8555  155B  3041               	movlw	65
  8556  155C  1283               	bcf	3,5	;RP0=0, select bank0
  8557  155D  1303               	bcf	3,6	;RP1=0, select bank0
  8558  155E  009F               	movwf	31	;volatile
  8559  155F                     i1l184:
  8560  155F  0008               	return
  8561  1560                     __end_of_ADCInit:
  8562  007E                     btemp	set	126	;btemp
  8563  007E                     wtemp0	set	126
  8564                           
  8565                           	psect	config
  8566                           
  8567                           ;Config register CONFIG @ 0x2007
  8568                           ;	Oscillator Selection bits
  8569                           ;	FOSC = HS, HS oscillator
  8570                           ;	Watchdog Timer Enable bit
  8571                           ;	WDTE = OFF, WDT disabled
  8572                           ;	Power-up Timer Enable bit
  8573                           ;	PWRTE = OFF, PWRT disabled
  8574                           ;	Brown-out Reset Enable bit
  8575                           ;	BOREN = OFF, BOR disabled
  8576                           ;	Low-Voltage (Single-Supply) In-Circuit Serial Programming Enable bit
  8577                           ;	LVP = ON, RB3/PGM pin has PGM function; low-voltage programming enabled
  8578                           ;	Data EEPROM Memory Code Protection bit
  8579                           ;	CPD = OFF, Data EEPROM code protection off
  8580                           ;	Flash Program Memory Write Enable bits
  8581                           ;	WRT = OFF, Write protection off; all program memory may be written to by EECON control
  8582                           ;	In-Circuit Debugger Mode bit
  8583                           ;	DEBUG = 0x1, unprogrammed default
  8584                           ;	Flash Program Memory Code Protection bit
  8585                           ;	CP = OFF, Code protection off
  8586  2007                     	org	8199
  8587  2007  3FBA               	dw	16314

Data Sizes:
    Strings     0
    Constant    0
    Data        14
    BSS         58
    Persistent  0
    Stack       0

Auto Spaces:
    Space          Size  Autos    Used
    COMMON           14     14      14
    BANK0            80     79      79
    BANK1            80     41      73
    BANK3            96      0      40
    BANK2            96      0       0

Pointer List with Targets:

    EEPROM_Read@data	PTR unsigned char  size(2) Largest target is 512
		 -> RAM(DATA[512]), 

    EEPROM_Write@data	PTR unsigned char  size(2) Largest target is 512
		 -> RAM(DATA[512]), 


Critical Paths under _main in COMMON

    None.

Critical Paths under _ISR in COMMON

    _TempSensor->___xxtofl
    ___flmul->___xxtofl
    _AverageTemp->___xxtofl
    ___fltol->___xxtofl
    ___fldiv->___xxtofl

Critical Paths under _main in BANK0

    None.

Critical Paths under _ISR in BANK0

    _TempSensor->_AverageTemp
    _AverageTemp->___fltol
    ___fltol->___fldiv
    ___fldiv->___flmul

Critical Paths under _main in BANK1

    _main->_SettingMode
    _SettingMode->_TempDisplay
    _SaveTemp->_I2C_Master_Init
    _I2C_Master_Init->___lldiv
    _EEPROM_Write->_I2C_Master_Write
    _FetchTemp->_EEPROM_Read
    _EEPROM_Read->_I2C_Master_Write
    _CurrentTempDisplay->___lwmod
    ___lwmod->___lwdiv

Critical Paths under _ISR in BANK1

    None.

Critical Paths under _main in BANK3

    None.

Critical Paths under _ISR in BANK3

    None.

Critical Paths under _main in BANK2

    None.

Critical Paths under _ISR in BANK2

    None.

Call Graph Tables:

 ---------------------------------------------------------------------------------
 (Depth) Function   	        Calls       Base Space   Used Autos Params    Refs
 ---------------------------------------------------------------------------------
 (0) _main                                                 0     0      0    3832
                 _CurrentTempDisplay
                        _SettingMode
                            _SysInit
 ---------------------------------------------------------------------------------
 (1) _SysInit                                              0     0      0       0
                        _ButtonsInit
                        _ElementInit
                            _LEDInit
                     _OnOff_Int_Init
                       _SevenSegInit
                         _Timer1Init
                         _Timer2Init
 ---------------------------------------------------------------------------------
 (2) _Timer2Init                                           0     0      0       0
 ---------------------------------------------------------------------------------
 (2) _Timer1Init                                           0     0      0       0
 ---------------------------------------------------------------------------------
 (2) _SevenSegInit                                         0     0      0       0
 ---------------------------------------------------------------------------------
 (2) _OnOff_Int_Init                                       0     0      0       0
 ---------------------------------------------------------------------------------
 (2) _LEDInit                                              0     0      0       0
 ---------------------------------------------------------------------------------
 (2) _ElementInit                                          0     0      0       0
 ---------------------------------------------------------------------------------
 (2) _ButtonsInit                                          0     0      0       0
 ---------------------------------------------------------------------------------
 (1) _SettingMode                                          9     9      0    2553
                                             32 BANK1      9     9      0
              _HeatingCoolingElement
                        _TempDisplay
                            _TempSet
 ---------------------------------------------------------------------------------
 (2) _TempSet                                              4     2      2       0
                                              4 BANK1      4     2      2
 ---------------------------------------------------------------------------------
 (2) _TempDisplay                                          6     6      0    2459
                                             26 BANK1      6     6      0
                          _FetchTemp
                           _SaveTemp
                            ___lwdiv
                            ___lwmod
 ---------------------------------------------------------------------------------
 (3) _SaveTemp                                             0     0      0     796
                       _EEPROM_Write
                    _I2C_Master_Init
 ---------------------------------------------------------------------------------
 (4) _I2C_Master_Init                                      8     4      4     412
                                             18 BANK1      8     4      4
                            ___lldiv
 ---------------------------------------------------------------------------------
 (5) ___lldiv                                             14     6      8     314
                                              4 BANK1     14     6      8
 ---------------------------------------------------------------------------------
 (4) _EEPROM_Write                                         9     4      5     384
                                              5 BANK1      9     4      5
           _I2C_Master_RepeatedStart
                   _I2C_Master_Start
                    _I2C_Master_Stop
                   _I2C_Master_Write
 ---------------------------------------------------------------------------------
 (3) _FetchTemp                                            0     0      0     384
                        _EEPROM_Read
 ---------------------------------------------------------------------------------
 (4) _EEPROM_Read                                         10     4      6     384
                                              5 BANK1     10     4      6
                            _I2C_ACK
           _I2C_Master_RepeatedStart
                   _I2C_Master_Start
                    _I2C_Master_Stop
                   _I2C_Master_Write
                      _I2C_Read_Byte
 ---------------------------------------------------------------------------------
 (5) _I2C_Read_Byte                                        0     0      0       0
                    _I2C_Master_Wait
 ---------------------------------------------------------------------------------
 (5) _I2C_Master_Write                                     1     1      0      22
                                              4 BANK1      1     1      0
                    _I2C_Master_Wait
 ---------------------------------------------------------------------------------
 (5) _I2C_Master_Stop                                      0     0      0       0
                    _I2C_Master_Wait
 ---------------------------------------------------------------------------------
 (5) _I2C_Master_Start                                     0     0      0       0
                    _I2C_Master_Wait
 ---------------------------------------------------------------------------------
 (5) _I2C_Master_RepeatedStart                             0     0      0       0
                    _I2C_Master_Wait
 ---------------------------------------------------------------------------------
 (5) _I2C_ACK                                              0     0      0       0
                    _I2C_Master_Wait
 ---------------------------------------------------------------------------------
 (6) _I2C_Master_Wait                                      0     0      0       0
 ---------------------------------------------------------------------------------
 (2) _HeatingCoolingElement                                2     2      0       0
                                              4 BANK1      2     2      0
 ---------------------------------------------------------------------------------
 (1) _CurrentTempDisplay                                   6     6      0    1279
                                             16 BANK1      6     6      0
                            ___lwdiv
                            ___lwmod
 ---------------------------------------------------------------------------------
 (3) ___lwmod                                              5     1      4     767
                                             11 BANK1      5     1      4
                            ___lwdiv (ARG)
 ---------------------------------------------------------------------------------
 (3) ___lwdiv                                              7     3      4     466
                                              4 BANK1      7     3      4
 ---------------------------------------------------------------------------------
 Estimated maximum stack depth 6
 ---------------------------------------------------------------------------------
 (Depth) Function   	        Calls       Base Space   Used Autos Params    Refs
 ---------------------------------------------------------------------------------
 (7) _ISR                                                  4     4      0   10992
                                              0 BANK1      4     4      0
                         _TempSensor
 ---------------------------------------------------------------------------------
 (8) _TempSensor                                           0     0      0   10992
                           _ADC_Read
                        _AverageTemp
                            ___fldiv
                            ___flmul
                            ___fltol
                           ___xxtofl
 ---------------------------------------------------------------------------------
 (9) ___flmul                                             26    18      8    2417
                                              0 BANK0     26    18      8
                          __Umul8_16
                           ___xxtofl (ARG)
 ---------------------------------------------------------------------------------
 (10) __Umul8_16                                           9     7      2     799
                                              0 COMMON     9     7      2
 ---------------------------------------------------------------------------------
 (9) _AverageTemp                                         17    17      0    5763
                                             62 BANK0     17    17      0
                            ___fladd
                            ___fldiv
                            ___fltol
                           ___xxtofl
            i1_HeatingCoolingElement
 ---------------------------------------------------------------------------------
 (10) i1_HeatingCoolingElement                             2     2      0       0
                                              0 COMMON     2     2      0
 ---------------------------------------------------------------------------------
 (9) ___xxtofl                                            14    10      4     550
                                              0 COMMON    14    10      4
 ---------------------------------------------------------------------------------
 (9) ___fltol                                             10     6      4     533
                                             52 BANK0     10     6      4
                            ___fldiv (ARG)
                            ___flmul (ARG)
                           ___xxtofl (ARG)
 ---------------------------------------------------------------------------------
 (9) ___fldiv                                             26    18      8    1729
                                             26 BANK0     26    18      8
                            ___flmul (ARG)
                           ___xxtofl (ARG)
 ---------------------------------------------------------------------------------
 (10) ___fladd                                            20    12      8    2566
                                              0 COMMON    12     4      8
                                              0 BANK0      8     8      0
 ---------------------------------------------------------------------------------
 (9) _ADC_Read                                             9     7      2       0
                                              0 COMMON     9     7      2
                            _ADCInit
 ---------------------------------------------------------------------------------
 (10) _ADCInit                                             0     0      0       0
 ---------------------------------------------------------------------------------
 Estimated maximum stack depth 10
 ---------------------------------------------------------------------------------

 Call Graph Graphs:

 _main (ROOT)
   _CurrentTempDisplay
     ___lwdiv
     ___lwmod
       ___lwdiv (ARG)
   _SettingMode
     _HeatingCoolingElement
     _TempDisplay
       _FetchTemp
         _EEPROM_Read
           _I2C_ACK
             _I2C_Master_Wait
           _I2C_Master_RepeatedStart
             _I2C_Master_Wait
           _I2C_Master_Start
             _I2C_Master_Wait
           _I2C_Master_Stop
             _I2C_Master_Wait
           _I2C_Master_Write
             _I2C_Master_Wait
           _I2C_Read_Byte
             _I2C_Master_Wait
       _SaveTemp
         _EEPROM_Write
           _I2C_Master_RepeatedStart
             _I2C_Master_Wait
           _I2C_Master_Start
             _I2C_Master_Wait
           _I2C_Master_Stop
             _I2C_Master_Wait
           _I2C_Master_Write
             _I2C_Master_Wait
         _I2C_Master_Init
           ___lldiv
       ___lwdiv
       ___lwmod
         ___lwdiv (ARG)
     _TempSet
   _SysInit
     _ButtonsInit
     _ElementInit
     _LEDInit
     _OnOff_Int_Init
     _SevenSegInit
     _Timer1Init
     _Timer2Init

 _ISR (ROOT)
   _TempSensor
     _ADC_Read
       _ADCInit
     _AverageTemp
       ___fladd
       ___fldiv
         ___flmul (ARG)
           __Umul8_16
           ___xxtofl (ARG)
         ___xxtofl (ARG)
       ___fltol
         ___fldiv (ARG)
           ___flmul (ARG)
             __Umul8_16
             ___xxtofl (ARG)
           ___xxtofl (ARG)
         ___flmul (ARG)
           __Umul8_16
           ___xxtofl (ARG)
         ___xxtofl (ARG)
       ___xxtofl
       i1_HeatingCoolingElement
     ___fldiv
       ___flmul (ARG)
         __Umul8_16
         ___xxtofl (ARG)
       ___xxtofl (ARG)
     ___flmul
       __Umul8_16
       ___xxtofl (ARG)
     ___fltol
       ___fldiv (ARG)
         ___flmul (ARG)
           __Umul8_16
           ___xxtofl (ARG)
         ___xxtofl (ARG)
       ___flmul (ARG)
         __Umul8_16
         ___xxtofl (ARG)
       ___xxtofl (ARG)
     ___xxtofl

 Address spaces:
Name               Size   Autos  Total    Cost      Usage
BANK3               60      0      28       9       41.7%
BITBANK3            60      0       0       8        0.0%
SFR3                 0      0       0       4        0.0%
BITSFR3              0      0       0       4        0.0%
BANK2               60      0       0      11        0.0%
BITBANK2            60      0       0      10        0.0%
SFR2                 0      0       0       5        0.0%
BITSFR2              0      0       0       5        0.0%
BANK1               50     29      49       7       91.2%
BITBANK1            50      0       0       6        0.0%
SFR1                 0      0       0       2        0.0%
BITSFR1              0      0       0       2        0.0%
BANK0               50     4F      4F       5       98.8%
BITBANK0            50      0       0       4        0.0%
SFR0                 0      0       0       1        0.0%
BITSFR0              0      0       0       1        0.0%
COMMON               E      E       E       1      100.0%
BITCOMMON            E      0       0       0        0.0%
CODE                 0      0       0       0        0.0%
DATA                 0      0      CE      12        0.0%
ABS                  0      0      CE       3        0.0%
NULL                 0      0       0       0        0.0%
STACK                0      0       0       2        0.0%
EEDATA             100      0       0       0        0.0%


Microchip Technology PIC Macro Assembler V2.20 build 20200408173844 
Symbol Table                                                                                   Tue Jul 14 15:25:01 2020

                     ___fldiv@aexp 0053                       ___fldiv@bexp 0052  
                                _i 00D3                                  _s 00CF  
                                _x 00D1                                  pc 0002  
                     ___fldiv@sign 004B                                 fsr 0004  
              __Umul8_16@word_mpld 0076                                l122 1590  
                              l131 1568                                l140 1628  
                              l125 159C                                l134 157A  
                              l143 1601                                l119 16E9  
                              l128 1571                                l137 161E  
                              l145 1606                                l161 17FF  
                              l233 076F                                l241 0B58  
                              l146 160F                                l170 0A03  
                              l226 1668                                l139 1622  
                              l155 17B2                                l236 0A6F  
                              l164 09A5                                l149 158F  
                              l229 15E2                                l181 15F8  
                              l270 0AE0                                l190 15BB  
                              l239 0B24                                l175 1546  
                              l280 08CB                                l432 0999  
                              l193 07FE                                l178 0803  
                              l187 1583                                l196 154E  
                              l279 08BA                                l199 168C  
                              l668 17A6                                l678 1760  
                              _GIE 005F                                _RA2 002A  
                              _RA3 002B                                _RA4 002C  
                              _RA5 002D                                _PEN 048A  
                              _ISR 0770                                _SEN 0488  
                  __end_of_I2C_ACK 1590                                fsr0 0004  
                  __end_of_ADCInit 1560                                indf 0000  
                     ___flmul@aexp 0032                       ___flmul@bexp 0033  
                     ___flmul@sign 002D                       ___flmul@temp 0038  
                     ___flmul@prod 0034                               ?_ISR 0070  
                  __end_of_LEDInit 0804                       ___fltol@exp1 005D  
                             l2000 156E                               l2002 1560  
                             l2010 1613                               l2004 1565  
                             l2012 1618                               l2020 15FE  
                             l2100 09EC                               l2030 1587  
                             l2006 1572                               l2014 1623  
                             l2022 1607                               l2102 09F4  
                             l2110 1655                               l2032 158C  
                             l2008 1577                               l2024 160C  
                             l2104 09FE                               l2112 15CF  
                             l2040 0950                               l3000 0A9F  
                             l2018 15F9                               l2050 0981  
                             l2042 0954                               l2034 0932  
                             l3010 0AC5                               l3002 0AA1  
                             l2028 1584                               l2052 0982  
                             l2044 0958                               l2036 0944  
                             l2060 16B4                               l2108 1646  
                             l3004 0AA7                               l3012 0ACE  
                             l2054 098B                               l2046 0961  
                             l2038 0947                               l2070 16E8  
                             l2062 16B8                               l3014 0ADB  
                             l3006 0AB4                               l2160 1775  
                             l2152 1761                               l2080 17D2  
                             l2072 17A7                               l2048 0973  
                             l2056 0991                               l2064 16BB  
                             l3008 0AC2                               l2170 1795  
                             l2162 1779                               l2154 1765  
                             l2090 09A0                               l2082 17E5  
                             l2074 17AD                               l2066 16E6  
                             l2172 179C                               l2164 177D  
                             l2156 176B                               l2180 172D  
                             l2092 09B0                               l2084 17ED  
                             l2076 17BD                               l2068 16E7  
                             l2166 178E                               l2158 176E  
                             l2174 17A2                               l2190 1749  
                             l2182 1730                               l2094 09CB  
                             l2086 17FA                               l2078 17CD  
                             l2168 1794                               l2192 174F  
                             l2184 1737                               l2096 09D0  
                             l2088 099A                               l3080 1633  
                             l2194 1756                               l2186 173B  
                             l2178 1725                               l2098 09E7  
                             l3082 1639                               l2188 173F  
                             l2196 175C                               l2700 0761  
                             l3084 163D                               l3076 1629  
                             l2702 076C                               l2710 0B08  
                             l2622 1541                               l2630 15EA  
                             l3078 162E                               l2800 0891  
                             l2720 0B3E                               l2712 0B12  
                             l2704 0AE1                               l2640 157B  
                             l2624 0800                               l2632 15ED  
                             l2802 0898                               l2722 0B49  
                             l2730 0B54                               l2714 0B1D  
                             l2706 0AE7                               l2634 15F0  
                             l2626 15E3                               l2650 15B8  
                             l2642 15AB                               l2804 08A9  
                             l2708 0AFD                               l2636 15F3  
                             l2628 15E7                               l2644 15B3  
                             l2660 07FB                               l2652 07F0  
                             l2806 08C0                               l2718 0B28  
                             l2662 1547                               l2638 15F4  
                             l2646 15B6                               l2654 07F6  
                             l2680 06F4                               l2664 154A  
                             l2648 15B7                               l2656 07F9  
                             l2690 073B                               l2682 06F9  
                             l2658 07FA                               l2692 073E  
                             l2684 06FF                               l2694 0748  
                             l2686 0704                               l2678 06EC  
                             l2950 1669                               l2960 0A3B  
                             l2696 0753                               l2688 0728  
                             l2952 1673                               l2970 0A57  
                             l2962 0A3E                               l2794 0867  
                             l1994 1590                               l2698 0756  
                             l2954 1678                               l2972 0A61  
                             l2964 0A48                               l2796 087A  
                             l1996 1596                               l2956 1687  
                             l2974 0A6C                               l2966 0A53  
                             l2958 0A04                               l2798 0880  
                             l1998 1569                               l2982 0A70  
                             l2968 0A56                               l2984 0A75  
                             l2994 0A89                               l2986 0A80  
                             l2996 0A8E                               l2988 0A85  
                             l2998 0A99                               u2100 0944  
                             u2101 0943                               u2200 09B0  
                             u2120 0958                               u2201 09AF  
                             u2121 0957                               u2210 09FE  
                             u2211 09FD                               u2115 0949  
                             u2060 1596                               u2140 0973  
                             u2061 1595                               u2141 0972  
                             u2070 159C                               u2071 159B  
                             u2215 09FA                               u2135 095A  
                             u2320 176B                               u2080 1622  
                             u2160 0991                               u4000 0A9F  
                             u2321 176A                               u2081 1621  
                             u2161 0990                               u2145 096F  
                             u4001 0A9E                               u2410 173F  
                             u2090 1606                               u2170 16C9  
                             u4010 0AB4                               u2411 173E  
                             u2091 1605                               u2155 0983  
                             u4011 0AB3                               u2340 177D  
                             u2420 1749                               u2180 17BD  
                             u4020 0ADB                               u4100 163D  
                             u2341 177C                               u2421 1748  
                             u2405 1731                               u2181 17BC  
                             u4021 0ADA                               u4101 163C  
                             u2190 17FA                               u2335 176F  
                             u2191 17F9                               u2175 16C4  
                             u4015 0AB0                               u2360 178E  
                             u2440 175C                               u2361 178D  
                             u2441 175B                               u2425 1745  
                             u4025 0AD7                               u2355 177E  
                             u2435 1750                               u2195 17F6  
                             u2380 17A2                               u2381 17A1  
                             u2365 178A                               u4117 0A7B  
                             u2390 172D                               u3430 06F4  
                             u2375 1796                               u2391 172C  
                             u4207 08C6                               u3431 06F3  
                             u4127 0ABC                               u3600 0891  
                             u3440 0AE7                               u4217 0A4E  
                             u3601 0890                               u4137 0AED  
                             u3441 0AE6                               u3610 08A9  
                             u3450 0AFD                               u4090 1639  
                             u4227 0A67                               u3611 08A8  
                             u4147 0B03                               u3451 0AFC  
                             u4091 1638                               u3620 08BA  
                             u3460 0B28                               u3621 08B9  
                             u3461 0B27                               u4157 0B18  
                             u3470 0B3E                               u3471 0B3D  
                             u4167 0B2E                               u4177 0B44  
                             u4187 074E                               _PEIE 005E  
                             u4197 0767                               u3590 087A  
                             _INTF 0059                               u3591 0879  
                             _RCEN 048B                               _TMR2 0011  
                             _RSEN 0489                               _Flag 00C9  
         ?i1_HeatingCoolingElement 0070                               _Temp 00E7  
                  ?_OnOff_Int_Init 0070   __end_of_I2C_Master_RepeatedStart 1569  
                             _main 1629                               btemp 007E  
                 __end_of_ADC_Read 1725                __end_of_ElementInit 1584  
                             start 0016                    ___fldiv@new_exp 004C  
                  EEPROM_Write@add 00A5            ??_HeatingCoolingElement 00A4  
                  EEPROM_Write@len 00A9                CurrentTempDisplay@a 00B2  
              CurrentTempDisplay@b 00B4                              ??_ISR 00A0  
              __end_of_AverageTemp 1000               __end_of_EEPROM_Write 1800  
                  __end_of_TempSet 0B59                   ?_I2C_Master_Init 00B2  
                 ?_I2C_Master_Wait 0070                   ?_I2C_Master_Stop 0070  
                    ___fltol@sign1 005C                    __end_of___fladd 0632  
                            ?_main 0070                              _ACKEN 048C  
                            _ACKDT 048D                    __end_of___fldiv 0DB2  
                    ??_ButtonsInit 00A4                    __end_of_SysInit 168D  
                  __end_of___flmul 039E                    __end_of___fltol 0BD5  
                  __end_of___lldiv 099A                              _T1CON 0010  
                            _T2CON 0012                    __end_of___lwdiv 17A7  
                            i1l204 16FE                              i1l207 1724  
                            i1l261 0931                              i1l184 155F  
                            i1l280 0866                    __end_of___lwmod 1761  
                            i1l258 0FFF                              i1l710 0579  
                            i1l702 0631                              i1l279 0857  
                            i1l720 05C1                              i1l714 059F  
                            i1l731 0623                              i1l299 07DF  
                            i1l732 0631                              i1l804 16A1  
                            i1l582 0BD4                              i1l806 16B3  
                            i1l831 06EB                              i1l592 0BD4  
                            i1l761 0D23                              i1l745 0C31  
                            i1l842 06B5                              i1l747 0DB1  
                            i1l843 06C1                              i1l693 04A8  
                            i1l589 0BBF                              i1l829 0654  
                            i1l695 047D                              i1l791 0309  
                            i1l689 0401                              i1l769 0DA5  
                            i1l785 039D                              i1l797 0391  
                            _TMR1H 000F                              _TMR1L 000E  
                            _PORTA 0005                              _PORTB 0006  
                            _PORTC 0007                              _PORTD 0008  
                            _TRISD 0088                              _SSPIF 0063  
           __size_of_I2C_Read_Byte 0017                              _count 00CB  
                            _value 00CD                              pclath 000A  
                            status 0003                              wtemp0 007E  
                 EEPROM_Write@data 00A7               __size_of_EEPROM_Read 006A  
                  __initialization 0019                       __end_of_main 1646  
                        ??_I2C_ACK 00A4                          ??_ADCInit 0070  
       __end_of_CurrentTempDisplay 0A70                             ??_main 00C9  
                 __end_of_SaveTemp 1669                          ??_LEDInit 00A4  
               __size_of_FetchTemp 0014                  ?_I2C_Master_Start 0070  
                ?_I2C_Master_Write 0070    __end_ofi1_HeatingCoolingElement 0867  
               ??_I2C_Master_Start 00A4                             _ADCON0 001F  
                           _ADCON1 009F                 ??_I2C_Master_Write 00A4  
              __end_of_ButtonsInit 1547                             _ADRESH 001E  
                           _ADRESL 009E                      ??_TempDisplay 00BA  
                      _ElementInit 157B                             i1l2200 039E  
                           i1l2120 0B6F                             i1l2106 1557  
                           i1l2210 03B5                             i1l2202 03A3  
                           i1l2130 0B93                             i1l2122 0B84  
                           i1l2114 0B59                             i1l2300 04A2  
                           i1l2220 03CD                             i1l2212 03BA  
                           i1l2204 03AB                             i1l2140 0BAD  
                           i1l2124 0B85                             i1l2116 0B66  
                           i1l2310 04D1                             i1l2302 04AC  
                           i1l2230 03E3                             i1l2222 03D2  
                           i1l2214 03C2                             i1l2206 03AF  
                           i1l2150 0BC9                             i1l2126 0B8D  
                           i1l3030 0781                             i1l3022 0770  
                           i1l2400 0630                             i1l2320 04EA  
                           i1l2312 04D5                             i1l2304 04B1  
                           i1l2240 03F7                             i1l2232 03E4  
                           i1l2224 03D8                             i1l2216 03C3  
                           i1l2208 03B0                             i1l2136 0B9B  
                           i1l2128 0B8F                             i1l3040 0798  
                           i1l3032 0782                             i1l3024 0776  
                           i1l2330 0551                             i1l2322 04EB  
                           i1l2314 04D9                             i1l2250 0413  
                           i1l2234 03E9                             i1l2242 03F9  
                           i1l2226 03D9                             i1l2218 03C5  
                           i1l2410 0BE7                             i1l2402 0BD5  
                           i1l2146 0BB4                             i1l2138 0BA4  
                           i1l3050 07B0                             i1l3042 079C  
                           i1l3026 077B                             i1l3034 0783  
                           i1l2340 0581                             i1l2332 0555  
                           i1l2324 04F6                             i1l2316 04E4  
                           i1l2308 04BA                             i1l2260 0427  
                           i1l2252 0417                             i1l2244 0407  
                           i1l2236 03EE                             i1l2228 03DF  
                           i1l2500 0D03                             i1l2412 0BEC  
                           i1l2420 0BFC                             i1l2404 0BDC  
                           i1l2148 0BC4                             i1l3060 07C3  
                           i1l3044 079E                             i1l3036 0787  
                           i1l3052 07B1                             i1l3028 077F  
                           i1l2350 059E                             i1l2342 0586  
                           i1l2334 0557                             i1l2318 04E6  
                           i1l2326 04FB                             i1l2270 043B  
                           i1l2262 042B                             i1l2254 041B  
                           i1l2246 040B                             i1l2238 03F6  
                           i1l2502 0D07                             i1l2430 0C14  
                           i1l2422 0C04                             i1l2414 0BF1  
                           i1l2406 0BE2                             i1l3070 07D5  
                           i1l3062 07C7                             i1l3054 07B5  
                           i1l3046 07A6                             i1l3038 0789  
                           i1l2352 05A3                             i1l2360 05AF  
                           i1l2336 055C                             i1l2328 0511  
                           i1l2280 044C                             i1l2272 043F  
                           i1l2264 042F                             i1l2256 041F  
                           i1l2248 040F                             i1l2520 0D58  
                           i1l2512 0D28                             i1l2504 0D08  
                           i1l2432 0C19                             i1l2440 0C29  
                           i1l2424 0C09                             i1l2416 0BF9  
                           i1l2408 0BE6                             i1l2600 06DE  
                           i1l3072 07DD                             i1l3064 07C8  
                           i1l3056 07B9                             i1l3048 07AE  
                           i1l2354 05A6                             i1l2346 058F  
                           i1l2338 056B                             i1l2362 05B3  
                           i1l2290 048C                             i1l2282 0463  
                           i1l2274 0443                             i1l2266 0433  
                           i1l2258 0423                             i1l2530 0D8C  
                           i1l2514 0D2D                             i1l2522 0D5E  
                           i1l2506 0D0C                             i1l2442 0C39  
                           i1l2450 0C52                             i1l2434 0C1E  
                           i1l2426 0C0F                             i1l2418 0BFA  
                           i1l2602 06E2                             i1l2610 0817  
                           i1l3074 07DE                             i1l3058 07BF  
                           i1l3066 07CB                             i1l2380 05FD  
                           i1l2372 05C6                             i1l2364 05B4  
                           i1l2356 05A8                             i1l2348 059A  
                           i1l2292 048E                             i1l2284 0470  
                           i1l2276 0447                             i1l2268 0437  
                           i1l2540 0DA1                             i1l2532 0D94  
                           i1l2524 0D6B                             i1l2516 0D3B  
                           i1l2508 0D20                             i1l2460 0C7A  
                           i1l2452 0C57                             i1l2444 0C45  
                           i1l2436 0C26                             i1l2428 0C13  
                           i1l2604 06E3                             i1l2620 085D  
                           i1l2612 081D                             i1l3068 07D1  
                           i1l2390 0618                             i1l2374 05CB  
                           i1l2382 0601                             i1l2366 05B8  
                           i1l2358 05AD                             i1l2294 0492  
                           i1l2286 0478                             i1l2278 044B  
                           i1l2534 0D95                             i1l2526 0D79  
                           i1l2518 0D3F                             i1l2470 0CA3  
                           i1l2462 0C82                             i1l2446 0C49  
                           i1l2438 0C27                             i1l2614 082E  
                           i1l2550 1697                             i1l2392 0619  
                           i1l2384 0606                             i1l2376 05D9  
                           i1l2368 05BE                             i1l2296 0493  
                           i1l2288 0481                             i1l2536 0D9B  
                           i1l2528 0D88                             i1l2480 0CC4  
                           i1l2472 0CA7                             i1l2464 0C8A  
                           i1l2456 0C60                             i1l2560 0633  
                           i1l2616 0835                             i1l2608 0804  
                           i1l2552 169B                             i1l2394 061D  
                           i1l2386 060B                             i1l2378 05DD  
                           i1l2298 049E                             i1l2538 0D9F  
                           i1l2490 0CE6                             i1l2482 0CD2  
                           i1l2474 0CA8                             i1l2466 0C8C  
                           i1l2458 0C72                             i1l2562 0638  
                           i1l2618 0846                             i1l2554 16AA  
                           i1l2546 168E                             i1l2810 0044  
                           i1l2396 061F                             i1l2388 0613  
                           i1l2492 0CEF                             i1l2468 0C91  
                           i1l2476 0CB1                             i1l2484 0CD6  
                           i1l2580 067E                             i1l2572 0665  
                           i1l2564 063C                             i1l2740 0DE1  
                           i1l2556 16AF                             i1l2548 1690  
                           i1l2900 02DA                             i1l2820 0059  
                           i1l2812 004A                             i1l2670 16F3  
                           i1l2398 062C                             i1l2494 0CF3  
                           i1l2486 0CDC                             i1l2478 0CC3  
                           i1l2590 06AB                             i1l2582 0682  
                           i1l2574 066A                             i1l2566 064C  
                           i1l2750 0E41                             i1l2742 0DFD  
                           i1l2734 0DB2                             i1l2910 02F2  
                           i1l2902 02E3                             i1l2830 0076  
                           i1l2822 0061                             i1l2814 004E  
                           i1l2672 16FB                             i1l2496 0CF4  
                           i1l2488 0CE4                             i1l2592 06AF  
                           i1l2584 0690                             i1l2576 066E  
                           i1l2568 065C                             i1l2760 0ED8  
                           i1l2752 0E5F                             i1l2744 0E05  
                           i1l2736 0DCA                             i1l2920 0321  
                           i1l2912 0306                             i1l2904 02E9  
                           i1l2840 008D                             i1l2832 007A  
                           i1l2824 0063                             i1l2816 004F  
                           i1l2808 003D                             i1l2674 1702  
                           i1l2666 16EA                             i1l2498 0CFD  
                           i1l2594 06B9                             i1l2586 0699  
                           i1l2578 0677                             i1l2770 0F13  
                           i1l2746 0E0A                             i1l2754 0EA5  
                           i1l2738 0DD2                             i1l2930 035C  
                           i1l2922 0325                             i1l2906 02ED  
                           i1l2842 008F                             i1l2834 007B  
                           i1l2826 006B                             i1l2818 0054  
                           i1l2668 16EF                             i1l2596 06C3  
                           i1l2588 06A0                             i1l2772 0F20  
                           i1l2756 0EB4                             i1l2748 0E3B  
                           i1l2940 0385                             i1l2932 036B  
                           i1l2924 033E                             i1l2916 030E  
                           i1l2908 02EE                             i1l2860 0100  
                           i1l2852 00AA                             i1l2844 0097  
                           i1l2836 0080                             i1l2828 0070  
                           i1l2598 06D9                             i1l2790 0FC8  
                           i1l2766 0EDC                             i1l2758 0ED0  
                           i1l2774 0F53                             i1l2942 0389  
                           i1l2934 0375                             i1l2918 0313  
                           i1l2926 0344                             i1l2870 017D  
                           i1l2862 012C                             i1l2854 00BA  
                           i1l2846 009C                             i1l2838 0085  
                           i1l2784 0F84                             i1l2776 0F62  
                           i1l2768 0F0D                             i1l2792 0FFA  
                           i1l2944 038A                             i1l2936 0377  
                           i1l2928 0351                             i1l2880 01FD  
                           i1l2872 019A                             i1l2864 0148  
                           i1l2856 00C7                             i1l2848 00A1  
                           i1l2786 0FB5                             i1l2778 0F80  
                           i1l2946 0395                             i1l2938 037D  
                           i1l2890 02B5                             i1l2882 022A  
                           i1l2874 01AA                             i1l2866 0164  
                           i1l2858 00E4                             i1l2788 0FBB  
                           i1l2892 02BE                             i1l2884 023A  
                           i1l2876 01C7                             i1l2868 016D  
                           i1l2980 092C                             u300_25 0C93  
                           i1l2894 02CC                             i1l2886 0267  
                           i1l2878 01E0                             i1l2896 02D5  
                           i1l2888 028D                             i1l2976 08CC  
                           i1l2898 02D9                             i1l2978 08D7  
                           u301_25 0C9C                             u310_20 0D07  
                           u302_20 0CA7                             u230_20 0BC4  
                           u222_20 0B66                             u310_21 0D06  
                           u302_21 0CA6                             u230_21 0BC3  
                           u222_21 0B65                             u311_20 0D0C  
                           u231_20 0BC9                             u223_20 0B7D  
                           u311_21 0D0B                             u231_21 0BC8  
                           u303_25 0CAA                             u223_25 0B78  
                           u312_20 0D20                             u304_20 0CC3  
                           u224_20 0B93                             u320_20 169B  
                           u312_21 0D1F                             u304_21 0CC2  
                           u224_21 0B92                             u320_21 169A  
                           u304_25 0CBF                             u313_20 0D27  
                           u305_20 0CDC                             u225_20 0B9A  
                           _INTCON 000B                             u313_21 0D26  
                           u305_21 0CDB                             u225_21 0B99  
                           u321_25 16A2                             u250_20 03E9  
                           u314_20 0D2D                             u306_20 0CE4  
                           u322_20 16AF                             u250_21 03E8  
                           u314_21 0D2C                             u306_21 0CE3  
                           u322_21 16AE                             u226_25 0B9C  
                           u330_25 06A4                             u251_20 03EE  
                           u315_20 0D3F                             u227_20 0BAC  
                           u331_20 06AF                             u323_20 0638  
                           u403_20 0776                             u251_21 03ED  
                           u315_21 0D3E                             u227_21 0BAB  
                           u331_21 06AE                             u323_21 0637  
                           u403_21 0775                             u307_25 0CE8  
                           u260_20 04A8                             u252_20 0407  
                           u316_20 0D4E                             u308_20 0CF3  
                           u228_20 0BB3                             u332_20 06B5  
                           u324_20 063C                             u340_20 0857  
                           u404_20 0787                             u260_21 04A7  
                           u252_21 0406                             u308_21 0CF2  
                           u228_21 0BB2                             u332_21 06B4  
                           u324_21 063B                             u340_21 0856  
                           u404_21 0786                             u316_25 0D49  
                           u341_20 1702                             u261_20 04AC  
                           u253_20 040B                             u245_20 03AF  
                           u317_20 0D6B                             u333_20 06B9  
                           u325_20 065C                             u405_20 0798  
                           u341_21 1701                             u261_21 04AB  
                           u253_21 040A                             u245_21 03AE  
                           u317_21 0D6A                             u333_21 06B8  
                           u325_21 065B                             u405_21 0797  
                           u317_25 0D67                             u309_25 0CF6  
                           u229_25 0BB6                             u405_25 0794  
                           u270_20 053E                             u262_20 04B1  
                           u254_20 0463                             u246_20 03B5  
                           u318_20 0D88                             u334_20 06CE  
                           u406_20 07B5                             u270_21 053F  
                           u262_21 04B0                             u254_21 0462  
                           u246_21 03B4                             u318_21 0D87  
                           u406_21 07B4                             u270_22 0544  
                           u270_23 0545                             u342_25 1707  
                           u254_25 045F                             u318_25 0D84  
                           u334_25 06C9                             u326_25 066F  
                           u350_25 0E0F                             u271_20 055C  
                           u255_20 046C                             u247_20 03BA  
                           u319_20 0D9F                             u335_20 06DE  
                           u327_20 067D                             u351_20 0E5F  
                           u407_20 07BF                             u271_21 055B  
                           u263_21 04C3                             u255_21 046A  
                           u247_21 03B9                             u319_21 0D9E  
                           u335_21 06DD                             u327_21 067C  
                           u351_21 0E5E                             u407_21 07BE  
                           u263_22 04CA                             u263_23 04D1  
                           u351_25 0E5B                             u423_27 0861  
                           u280_20 05BE                             u272_20 0581  
                           u264_20 04D5                             u256_20 046D  
                           u248_20 03D8                             u336_20 06E2  
                           u352_20 0EB4                             u408_20 07D1  
                           u280_21 05BD                             u272_21 0580  
                           u264_21 04D4                             u248_21 03D7  
                           u336_21 06E1                             u352_21 0EB3  
                           u408_21 07D0                             u328_25 0691  
                           u352_25 0EB0                             u424_27 16F7  
                           u281_20 05C5                             u273_20 0586  
                           u265_20 04D9                             u257_20 0481  
                           u249_20 03E3                             u329_20 069F  
                           u337_20 0817                             u281_21 05C4  
                           u273_21 0585                             u265_21 04D8  
                           u257_21 0480                             u249_21 03E2  
                           u329_21 069E                             u337_21 0816  
                           u353_25 0EBB                             u290_20 0630  
                           u282_20 05CB                             u266_20 04EA  
                           u258_20 0492                             u338_20 082E  
                           u370_20 00A1                             u290_21 062F  
                           u282_21 05CA                             u266_21 04E9  
                           u258_21 0491                             u338_21 082D  
                           u370_21 00A0                             u274_25 0593  
                           u354_25 0EE1                             u283_20 05DD  
                           u275_20 059E                             u291_20 0BE6  
                           u339_20 0846                             u355_20 0F20  
                           u363_20 004E                             u283_21 05DC  
                           u275_21 059D                             u291_21 0BE5  
                           u339_21 0845                             u355_21 0F1F  
                           u371_21 00F2                             u363_21 004D  
                           u371_22 00F9                             u371_23 0100  
                           u267_25 04EF                             u259_25 0497  
                           u355_25 0F1C                             u284_20 05EE  
                           u276_20 05A3                             u268_20 0511  
                           u292_20 0BEC                             u356_20 0F62  
                           u348_20 0DE1                             u364_20 0054  
                           u276_21 05A2                             u268_21 0510  
                           u292_21 0BEB                             u356_21 0F61  
                           u348_21 0DE0                             u380_21 021C  
                           u372_21 010E                             u364_21 0053  
                           u380_22 0223                             u372_22 0115  
                           u268_23 050D                             u380_23 022A  
                           u372_23 011C                             u284_25 05E9  
                           u356_25 0F5E                             u348_25 0DDD  
                           u285_20 05FD                             u277_20 05AD  
                           u293_20 0BF1                             u365_20 0059  
                           u285_21 05FC                             u277_21 05AC  
                           u269_21 052A                             u293_21 0BF0  
                           u381_21 0249                             u373_21 013A  
                           u365_21 0058                             u269_22 052B  
                           u381_22 0250                             u373_22 0141  
                           u269_23 0530                             u381_23 0257  
                           u373_23 0148                             u269_24 0531  
                           u269_25 0536                             u357_25 0F89  
                           u349_25 0DE8                             u269_26 0537  
                           u286_20 0606                             u278_20 05B3  
                           u294_20 0C13                             u358_20 0FC8  
                           u390_20 02ED                             u382_20 0273  
                           u366_20 007A                             u286_21 0605  
                           u278_21 05B2                             u294_21 0C12  
                           u358_21 0FC7                             u390_21 02EC  
                           u374_21 0156                             u366_21 0079  
                           u374_22 015D                             u374_23 0164  
                           u358_25 0FC4                             u382_25 026E  
                           u287_20 060B                             u279_20 05B8  
                           u295_20 0C19                             u391_20 02F2  
                           u367_20 0080                             u287_21 060A  
                           u279_21 05B7                             u295_21 0C18  
                           u391_21 02F1                             u383_21 027F  
                           u367_21 007F                             u383_22 0286  
                           u383_23 028D                             u375_25 0166  
                           u288_20 0618                             u296_20 0C1E  
                           u392_20 0306                             u384_20 029B  
                           u368_20 0085                             u288_21 0617  
                           u296_21 0C1D                             u392_21 0305  
                           u376_21 018C                             u368_21 0084  
                           u376_22 0193                             u376_23 019A  
                           u384_25 0296                             u289_20 061D  
                           u297_20 0C39                             u393_20 030D  
                           u369_20 009C                             u289_21 061C  
                           u297_21 0C38                             u393_21 030C  
                           u385_21 02A7                             u377_21 01B9  
                           u369_21 009B                             u385_22 02AE  
                           u377_22 01C0                             u385_23 02B5  
                           u377_23 01C7                             u298_20 0C57  
                           u394_20 0313                             u298_21 0C56  
                           u394_21 0312                             u386_25 02B7  
                           u378_25 01C9                             u299_20 0C91  
                           u395_20 0325                             u299_21 0C90  
                           u395_21 0324                             u379_21 01EF  
                           u379_22 01F6                             u379_23 01FD  
                           u387_25 02CE                             u396_20 0334  
                           u388_20 02D9                             u388_21 02D8  
                           u396_25 032F                             u397_20 0351  
                           u397_21 0350                             u397_25 034D  
                           u389_25 02DC                             u398_20 036B  
                           u398_21 036A                             u398_25 0367  
                           u399_20 0389                             u399_21 0388  
                           _TMR1IE 0460                             _TMR1IF 0060  
                           _TMR2IE 0461                             _TMR2IF 0061  
                           _TMR1ON 0080                             _TMR2ON 0092  
                           _SSPADD 0093                             _TRISB0 0430  
                           _TRISB1 0431                             _TRISA4 042C  
                           _TRISA5 042D                             _TRISB4 0434  
                           _TRISC2 043A                             _TRISC3 043B  
                           _TRISB5 0435                             _TRISC4 043C  
                           _TRISC5 043D                             _SSPCON 0014  
                           _SSPBUF 0013                   __end_of___xxtofl 06EC  
                      _AverageTemp 0DB2                         _TempSensor 08CC  
                       _Timer1Init 15AB                         _Timer2Init 07F0  
                        ??_TempSet 00A6           _I2C_Master_RepeatedStart 1560  
                    _I2C_Read_Byte 15F9                          ??___fladd 0020  
                        ??___fldiv 0042                          ??_SysInit 00A4  
                        ??___flmul 0028                          ??___fltol 0058  
                        ??___lldiv 00AC                          ??___lwdiv 00A8  
                        ??___lwmod 00AF                 __size_of__Umul8_16 0027  
                        ?_ADC_Read 0070                      ??_SettingMode 00C0  
                           saved_w 007E                       ___xxtofl@arg 007A  
                     ___xxtofl@exp 0079                       ___xxtofl@val 0070  
          __end_of__initialization 0039                         ___fltol@f1 0054  
              __end_of_TempDisplay 0770                  __end_of_FetchTemp 15E3  
            __size_of_EEPROM_Write 0059                     ?_I2C_Read_Byte 0070  
                   __pcstackCOMMON 0070                       __pidataBANK1 159D  
                      _ButtonsInit 1541                         ??_ADC_Read 0072  
                 ??_OnOff_Int_Init 00A4                       _EEPROM_Write 17A7  
                       __pbssBANK1 00C9                         __pbssBANK3 0190  
              __end_of_SettingMode 0AE1                          ?_SaveTemp 0070  
                      ?_TempSensor 0070                  __end_of__Umul8_16 16B4  
                      ?_Timer1Init 0070                        ?_Timer2Init 0070  
                       __pmaintext 1629                      ?_SevenSegInit 0070  
   __size_of_HeatingCoolingElement 0065      __end_of_HeatingCoolingElement 08CC  
                       __pintentry 0004   __size_ofi1_HeatingCoolingElement 0063  
                          _I2C_ACK 1584                            _ACKSTAT 048E  
                          _ADCInit 1557                            _LEDInit 0800  
                        ?___xxtofl 0070                            _SSPCON2 0091  
                          _SSPSTAT 0094                        _TempDisplay 06EC  
                          _Address 00E5                     _binary_pattern 00DB  
                  ??_I2C_Read_Byte 00A4                         ??_SaveTemp 00BA  
                        _ADCResult 00D9                     ??_SevenSegInit 00A4  
                          _TempSet 0AE1                            ___fladd 039E  
                          ___fldiv 0BD5                            _SysInit 1669  
                          ___flmul 003D                            ___fltol 0B59  
                          ___lldiv 0932                            ___lwdiv 1761  
                          ___lwmod 1725                            __ptext1 1669  
                          __ptext2 07F0                            __ptext3 15AB  
                          __ptext4 15E3                            __ptext5 1547  
                          __ptext6 0800                            __ptext7 157B  
                          __ptext8 1541                            __ptext9 0A70  
                     __size_of_ISR 0080                         ??___xxtofl 0074  
                      _SettingMode 0A70           __size_of_I2C_Master_Init 0036  
              __size_of_TempSensor 0066           __size_of_I2C_Master_Wait 000D  
         __size_of_I2C_Master_Stop 0009                __size_of_Timer1Init 0011  
              __size_of_Timer2Init 000F                            clrloop0 1550  
                     ?_ElementInit 0070               end_of_initialization 0039  
               _CurrentTempDisplay 0A04         ??_I2C_Master_RepeatedStart 00A4  
                    ??_EEPROM_Read 00AB                       ?_AverageTemp 0070  
        __size_of_I2C_Master_Start 0009          __size_of_I2C_Master_Write 0019  
                  ___lldiv@divisor 00A4                ?_CurrentTempDisplay 0070  
                  ___lldiv@counter 00B1                   AverageTemp@j_293 0067  
                 AverageTemp@j_294 0069                          _PORTAbits 0005  
                        _PORTBbits 0006                          _PORTCbits 0007  
                      ___fladd@grs 007B               ??_CurrentTempDisplay 00B0  
                    ___xxtofl@sign 0078                        ___fldiv@grs 004E  
                      ___fldiv@rem 0047                  __size_of_ADC_Read 003B  
                    EEPROM_Write@i 00AC                        ___flmul@grs 002E  
              __end_of_EEPROM_Read 0A04            i1_HeatingCoolingElement 0804  
                        _FetchTemp 15CF                       ?_ButtonsInit 0070  
              start_initialization 0019                        __end_of_ISR 07F0  
             __end_of_SevenSegInit 15F9                  ??_I2C_Master_Init 00B6  
                ??_I2C_Master_Wait 00A4                  ??_I2C_Master_Stop 00A4  
                     ??_TempSensor 007E                       ??_Timer1Init 00A4  
                     ??_Timer2Init 00A4                  __size_of_SaveTemp 0023  
                       init_fetch0 15BC                         ?_FetchTemp 0070  
                        __Umul8_16 168D                        __pdataBANK1 00DB  
                         ?_I2C_ACK 0070                           ?_ADCInit 0070  
                   AverageTemp@tmp 006B                          ___fladd@a 0074  
                        ___fladd@b 0070                          ___fldiv@a 003A  
                        ___fldiv@b 003E                           ?_LEDInit 0070  
                        ___flmul@a 0024                          ___flmul@b 0020  
                        ___latbits 0002                      __pcstackBANK0 0020  
                    __pcstackBANK1 00A0                 __end_of_TempSensor 0932  
                __size_of___xxtofl 00BA                 __end_of_Timer1Init 15BC  
               __end_of_Timer2Init 07FF                       ?_TempDisplay 0070  
                     TempDisplay@a 00BC                       TempDisplay@b 00BE  
             __size_of_ElementInit 0009                        _EEPROM_Read 099A  
                 _I2C_Master_Start 1569                   _I2C_Master_Write 1610  
        ??i1_HeatingCoolingElement 0070                   ___lwdiv@dividend 00A6  
                         ?_TempSet 00A4               __size_of_AverageTemp 024E  
                         ?___fladd 0070                           ?___fldiv 003A  
                         ?_SysInit 0070                           ?___flmul 0020  
                         ?___fltol 0054                           ?___lldiv 00A4  
                       ?__Umul8_16 0070                           ?___lwdiv 00A4  
                         ?___lwmod 00AB              _HeatingCoolingElement 0867  
             I2C_Master_Write@data 00A4                           _ADC_Read 16EA  
                     ?_SettingMode 0070                   ___lwdiv@quotient 00A8  
                interrupt_function 0004                          clear_ram0 154F  
          __size_of_OnOff_Int_Init 0008              __end_of_I2C_Read_Byte 1610  
                      _averageTemp 00D5                        ??_FetchTemp 00AF  
                     EEPROM_Read@i 00AD                   __size_of_I2C_ACK 000C  
                 __size_of_ADCInit 0009                         _ADCON0bits 001F  
            __size_of_SevenSegInit 0016                   __size_of_LEDInit 0004  
             __size_of_ButtonsInit 0006                I2C_Master_Init@baud 00B2  
                         _Readings 0190                           _SaveTemp 1646  
                     _SevenSegInit 15E3                   __size_of_TempSet 0078  
           ?_HeatingCoolingElement 0070                        ??__Umul8_16 0072  
__size_of_I2C_Master_RepeatedStart 0009                   __size_of___fladd 0294  
                 __size_of___fldiv 01DD                   __size_of_SysInit 0024  
                 __size_of___flmul 0361          ?_I2C_Master_RepeatedStart 0070  
                 __size_of___fltol 007C                   __size_of___lldiv 0068  
                 __size_of___lwdiv 0046                   __size_of___lwmod 003C  
                      _currentTemp 00D7                    _I2C_Master_Init 16B4  
                         ___xxtofl 0632        __size_of_CurrentTempDisplay 006C  
                  _I2C_Master_Wait 1590                    _I2C_Master_Stop 1572  
                  ___lwdiv@divisor 00A4                    ___lwdiv@counter 00AA  
                         __ptext10 0AE1                           __ptext11 06EC  
                         __ptext20 1572                           __ptext12 1646  
                         __ptext21 1569                           __ptext13 16B4  
                         __ptext30 08CC                           __ptext22 1560  
                         __ptext14 0932                           __ptext31 003D  
                         __ptext23 1584                           __ptext15 17A7  
                         __ptext40 1557                           __ptext32 168D  
                         __ptext24 1590                           __ptext16 15CF  
                         __ptext33 0DB2                           __ptext25 0867  
                         __ptext17 099A                           __ptext34 0804  
                         __ptext26 0A04                           __ptext18 15F9  
                         __ptext35 0632                           __ptext27 1725  
                         __ptext19 1610                           __ptext36 0B59  
                         __ptext28 1761                           __ptext37 0BD5  
                         __ptext29 0770                           __ptext38 039E  
                         __ptext39 16EA                      ?_EEPROM_Write 00A5  
             __size_of_TempDisplay 0084                      __size_of_main 001D  
                     SettingMode@k 00C7                       SettingMode@y 00C5  
                     SettingMode@z 00C3                 AverageTemp@reading 0063  
         __end_of_I2C_Master_Start 1572           __end_of_I2C_Master_Write 1629  
                         init_ram0 15C0                       AverageTemp@j 0061  
                   ??_EEPROM_Write 00AA               __size_of_SettingMode 0071  
                         intlevel1 0000                   ___lwmod@dividend 00AD  
                     ?_EEPROM_Read 00A5                   ___lldiv@dividend 00A8  
                   _OnOff_Int_Init 1547            __end_of_I2C_Master_Init 16EA  
          __end_of_I2C_Master_Wait 159D            __end_of_I2C_Master_Stop 157B  
           __Umul8_16@multiplicand 0070                         _OPTION_REG 0081  
                 ___lldiv@quotient 00AD                    ___lwmod@divisor 00AB  
                  ___lwmod@counter 00AF                      ??_ElementInit 00A4  
                    ___fladd@signs 0078             __end_of_OnOff_Int_Init 154F  
                     ___fladd@aexp 0079                       ___fladd@bexp 007A  
             __Umul8_16@multiplier 0078                      ??_AverageTemp 005E  
                  EEPROM_Read@data 00A7                     EEPROM_Read@add 00A5  
                   EEPROM_Read@len 00A9                  __Umul8_16@product 0074  
